EXPORTS
 ??$CopyElements@VCOleVariant@@@@YGXPAVCOleVariant@@PBV0@H@Z @ 256 NONAME
 ??$HashKey@ABUtagVARIANT@@@@YGIABUtagVARIANT@@@Z @ 257 NONAME
 ??$HashKey@PB_W@@YGIPB_W@Z @ 258 NONAME
 ??$HashKey@PBD@@YGIPBD@Z @ 259 NONAME
 ??$HashKey@VCComBSTR@ATL@@@@YGIVCComBSTR@ATL@@@Z @ 260 NONAME
 ??$SerializeElements@V?$CStringT@_WV?$StrTraitMFC_DLL@_WV?$ChTraitsCRT@_W@ATL@@@@@ATL@@@@YGXAAVCArchive@@PAV?$CStringT@_WV?$StrTraitMFC_DLL@_WV?$ChTraitsCRT@_W@ATL@@@@@ATL@@H@Z @ 261 NONAME
 ??$SerializeElements@V?$CStringT@DV?$StrTraitMFC_DLL@DV?$ChTraitsCRT@D@ATL@@@@@ATL@@@@YGXAAVCArchive@@PAV?$CStringT@DV?$StrTraitMFC_DLL@DV?$ChTraitsCRT@D@ATL@@@@@ATL@@H@Z @ 262 NONAME
 ??$SerializeElements@VCComBSTR@ATL@@@@YGXAAVCArchive@@PAVCComBSTR@ATL@@H@Z @ 263 NONAME
 ??$SerializeElements@VCOleVariant@@@@YGXAAVCArchive@@PAVCOleVariant@@H@Z @ 264 NONAME
 ??_U@YAPAXI@Z @ 265 NONAME
 ??_V@YAXPAX@Z @ 266 NONAME
 ??0?$CSimpleStringT@_W$00@ATL@@QAE@ABV?$CSimpleStringT@_W$0A@@1@@Z @ 267 NONAME
 ??0?$CSimpleStringT@_W$00@ATL@@QAE@ABV01@@Z @ 268 NONAME
 ??0?$CSimpleStringT@_W$00@ATL@@QAE@PAUIAtlStringMgr@1@@Z @ 269 NONAME
 ??0?$CSimpleStringT@_W$00@ATL@@QAE@PB_WHPAUIAtlStringMgr@1@@Z @ 270 NONAME
 ??0?$CSimpleStringT@_W$00@ATL@@QAE@PB_WPAUIAtlStringMgr@1@@Z @ 271 NONAME
 ??0?$CSimpleStringT@D$00@ATL@@QAE@ABV?$CSimpleStringT@D$0A@@1@@Z @ 272 NONAME
 ??0?$CSimpleStringT@D$00@ATL@@QAE@ABV01@@Z @ 273 NONAME
 ??0?$CSimpleStringT@D$00@ATL@@QAE@PAUIAtlStringMgr@1@@Z @ 274 NONAME
 ??0?$CSimpleStringT@D$00@ATL@@QAE@PBDHPAUIAtlStringMgr@1@@Z @ 275 NONAME
 ??0?$CSimpleStringT@D$00@ATL@@QAE@PBDPAUIAtlStringMgr@1@@Z @ 276 NONAME
 ??0?$CStringT@_WV?$StrTraitMFC_DLL@_WV?$ChTraitsCRT@_W@ATL@@@@@ATL@@QAE@_WH@Z @ 277 NONAME
 ??0?$CStringT@_WV?$StrTraitMFC_DLL@_WV?$ChTraitsCRT@_W@ATL@@@@@ATL@@QAE@ABUtagVARIANT@@@Z @ 278 NONAME
 ??0?$CStringT@_WV?$StrTraitMFC_DLL@_WV?$ChTraitsCRT@_W@ATL@@@@@ATL@@QAE@ABUtagVARIANT@@PAUIAtlStringMgr@1@@Z @ 279 NONAME
 ??0?$CStringT@_WV?$StrTraitMFC_DLL@_WV?$ChTraitsCRT@_W@ATL@@@@@ATL@@QAE@ABV01@@Z @ 280 NONAME
 ??0?$CStringT@_WV?$StrTraitMFC_DLL@_WV?$ChTraitsCRT@_W@ATL@@@@@ATL@@QAE@DH@Z @ 281 NONAME
 ??0?$CStringT@_WV?$StrTraitMFC_DLL@_WV?$ChTraitsCRT@_W@ATL@@@@@ATL@@QAE@PA_W@Z @ 282 NONAME
 ??0?$CStringT@_WV?$StrTraitMFC_DLL@_WV?$ChTraitsCRT@_W@ATL@@@@@ATL@@QAE@PAD@Z @ 283 NONAME
 ??0?$CStringT@_WV?$StrTraitMFC_DLL@_WV?$ChTraitsCRT@_W@ATL@@@@@ATL@@QAE@PAE@Z @ 284 NONAME
 ??0?$CStringT@_WV?$StrTraitMFC_DLL@_WV?$ChTraitsCRT@_W@ATL@@@@@ATL@@QAE@PAUIAtlStringMgr@1@@Z @ 285 NONAME
 ??0?$CStringT@_WV?$StrTraitMFC_DLL@_WV?$ChTraitsCRT@_W@ATL@@@@@ATL@@QAE@PB_W@Z @ 286 NONAME
 ??0?$CStringT@_WV?$StrTraitMFC_DLL@_WV?$ChTraitsCRT@_W@ATL@@@@@ATL@@QAE@PB_WH@Z @ 287 NONAME
 ??0?$CStringT@_WV?$StrTraitMFC_DLL@_WV?$ChTraitsCRT@_W@ATL@@@@@ATL@@QAE@PB_WHPAUIAtlStringMgr@1@@Z @ 288 NONAME
 ??0?$CStringT@_WV?$StrTraitMFC_DLL@_WV?$ChTraitsCRT@_W@ATL@@@@@ATL@@QAE@PB_WPAUIAtlStringMgr@1@@Z @ 289 NONAME
 ??0?$CStringT@_WV?$StrTraitMFC_DLL@_WV?$ChTraitsCRT@_W@ATL@@@@@ATL@@QAE@PBD@Z @ 290 NONAME
 ??0?$CStringT@_WV?$StrTraitMFC_DLL@_WV?$ChTraitsCRT@_W@ATL@@@@@ATL@@QAE@PBDH@Z @ 291 NONAME
 ??0?$CStringT@_WV?$StrTraitMFC_DLL@_WV?$ChTraitsCRT@_W@ATL@@@@@ATL@@QAE@PBDHPAUIAtlStringMgr@1@@Z @ 292 NONAME
 ??0?$CStringT@_WV?$StrTraitMFC_DLL@_WV?$ChTraitsCRT@_W@ATL@@@@@ATL@@QAE@PBDPAUIAtlStringMgr@1@@Z @ 293 NONAME
 ??0?$CStringT@_WV?$StrTraitMFC_DLL@_WV?$ChTraitsCRT@_W@ATL@@@@@ATL@@QAE@PBE@Z @ 294 NONAME
 ??0?$CStringT@_WV?$StrTraitMFC_DLL@_WV?$ChTraitsCRT@_W@ATL@@@@@ATL@@QAE@PBEPAUIAtlStringMgr@1@@Z @ 295 NONAME
 ??0?$CStringT@_WV?$StrTraitMFC_DLL@_WV?$ChTraitsCRT@_W@ATL@@@@@ATL@@QAE@XZ @ 296 NONAME
 ??0?$CStringT@DV?$StrTraitMFC_DLL@DV?$ChTraitsCRT@D@ATL@@@@@ATL@@QAE@_WH@Z @ 297 NONAME
 ??0?$CStringT@DV?$StrTraitMFC_DLL@DV?$ChTraitsCRT@D@ATL@@@@@ATL@@QAE@ABUtagVARIANT@@@Z @ 298 NONAME
 ??0?$CStringT@DV?$StrTraitMFC_DLL@DV?$ChTraitsCRT@D@ATL@@@@@ATL@@QAE@ABUtagVARIANT@@PAUIAtlStringMgr@1@@Z @ 299 NONAME
 ??0?$CStringT@DV?$StrTraitMFC_DLL@DV?$ChTraitsCRT@D@ATL@@@@@ATL@@QAE@ABV01@@Z @ 300 NONAME
 ??0?$CStringT@DV?$StrTraitMFC_DLL@DV?$ChTraitsCRT@D@ATL@@@@@ATL@@QAE@DH@Z @ 301 NONAME
 ??0?$CStringT@DV?$StrTraitMFC_DLL@DV?$ChTraitsCRT@D@ATL@@@@@ATL@@QAE@PA_W@Z @ 302 NONAME
 ??0?$CStringT@DV?$StrTraitMFC_DLL@DV?$ChTraitsCRT@D@ATL@@@@@ATL@@QAE@PAD@Z @ 303 NONAME
 ??0?$CStringT@DV?$StrTraitMFC_DLL@DV?$ChTraitsCRT@D@ATL@@@@@ATL@@QAE@PAE@Z @ 304 NONAME
 ??0?$CStringT@DV?$StrTraitMFC_DLL@DV?$ChTraitsCRT@D@ATL@@@@@ATL@@QAE@PAUIAtlStringMgr@1@@Z @ 305 NONAME
 ??0?$CStringT@DV?$StrTraitMFC_DLL@DV?$ChTraitsCRT@D@ATL@@@@@ATL@@QAE@PB_W@Z @ 306 NONAME
 ??0?$CStringT@DV?$StrTraitMFC_DLL@DV?$ChTraitsCRT@D@ATL@@@@@ATL@@QAE@PB_WH@Z @ 307 NONAME
 ??0?$CStringT@DV?$StrTraitMFC_DLL@DV?$ChTraitsCRT@D@ATL@@@@@ATL@@QAE@PB_WHPAUIAtlStringMgr@1@@Z @ 308 NONAME
 ??0?$CStringT@DV?$StrTraitMFC_DLL@DV?$ChTraitsCRT@D@ATL@@@@@ATL@@QAE@PB_WPAUIAtlStringMgr@1@@Z @ 309 NONAME
 ??0?$CStringT@DV?$StrTraitMFC_DLL@DV?$ChTraitsCRT@D@ATL@@@@@ATL@@QAE@PBD@Z @ 310 NONAME
 ??0?$CStringT@DV?$StrTraitMFC_DLL@DV?$ChTraitsCRT@D@ATL@@@@@ATL@@QAE@PBDH@Z @ 311 NONAME
 ??0?$CStringT@DV?$StrTraitMFC_DLL@DV?$ChTraitsCRT@D@ATL@@@@@ATL@@QAE@PBDHPAUIAtlStringMgr@1@@Z @ 312 NONAME
 ??0?$CStringT@DV?$StrTraitMFC_DLL@DV?$ChTraitsCRT@D@ATL@@@@@ATL@@QAE@PBDPAUIAtlStringMgr@1@@Z @ 313 NONAME
 ??0?$CStringT@DV?$StrTraitMFC_DLL@DV?$ChTraitsCRT@D@ATL@@@@@ATL@@QAE@PBE@Z @ 314 NONAME
 ??0?$CStringT@DV?$StrTraitMFC_DLL@DV?$ChTraitsCRT@D@ATL@@@@@ATL@@QAE@PBEPAUIAtlStringMgr@1@@Z @ 315 NONAME
 ??0?$CStringT@DV?$StrTraitMFC_DLL@DV?$ChTraitsCRT@D@ATL@@@@@ATL@@QAE@XZ @ 316 NONAME
 ??0_AFX_D2D_STATE@@QAE@XZ @ 317 NONAME
 ??0_AFX_DAO_STATE@@QAE@XZ @ 318 NONAME
 ??0_AFX_THREAD_STATE@@QAE@XZ @ 319 NONAME
 ??0AFX_DDPDATA@@QAE@PAXHH0IPBD@Z @ 320 NONAME
 ??0AFX_EXCEPTION_LINK@@QAE@XZ @ 321 NONAME
 ??0AFX_GLOBAL_DATA@@QAE@XZ @ 322 NONAME
 ??0AFX_MAINTAIN_STATE@@QAE@PAVAFX_MODULE_STATE@@@Z @ 323 NONAME
 ??0AFX_MAINTAIN_STATE2@@QAE@PAVAFX_MODULE_STATE@@@Z @ 324 NONAME
 ??0AFX_MODULE_STATE@@QAE@HP6GJPAUHWND__@@IIJ@ZKH@Z @ 325 NONAME
 ??0AFX_MODULE_THREAD_STATE@@QAE@XZ @ 326 NONAME
 ??0CAnimationBaseObject@@QAE@IIK@Z @ 327 NONAME
 ??0CAnimationBaseObject@@QAE@XZ @ 328 NONAME
 ??0CAnimationColor@@QAE@KIIK@Z @ 329 NONAME
 ??0CAnimationColor@@QAE@XZ @ 330 NONAME
 ??0CAnimationController@@QAE@XZ @ 331 NONAME
 ??0CAnimationGroup@@QAE@PAVCAnimationController@@I@Z @ 332 NONAME
 ??0CAnimationPoint@@QAE@ABVCPoint@@IIK@Z @ 333 NONAME
 ??0CAnimationPoint@@QAE@XZ @ 334 NONAME
 ??0CAnimationRect@@QAE@ABVCPoint@@ABVCSize@@IIK@Z @ 335 NONAME
 ??0CAnimationRect@@QAE@ABVCRect@@IIK@Z @ 336 NONAME
 ??0CAnimationRect@@QAE@HHHHIIK@Z @ 337 NONAME
 ??0CAnimationRect@@QAE@XZ @ 338 NONAME
 ??0CAnimationSize@@QAE@ABVCSize@@IIK@Z @ 339 NONAME
 ??0CAnimationSize@@QAE@XZ @ 340 NONAME
 ??0CAnimationValue@@QAE@NIIK@Z @ 341 NONAME
 ??0CAnimationValue@@QAE@XZ @ 342 NONAME
 ??0CAnimationVariable@@QAE@N@Z @ 343 NONAME
 ??0CAppDestinations@@QAE@PBD@Z @ 344 NONAME
 ??0CAppDestinations@@QAE@XZ @ 345 NONAME
 ??0CArchive@@QAE@PAVCFile@@IHPAX@Z @ 346 NONAME
 ??0CArchivePropExchange@@QAE@AAVCArchive@@@Z @ 347 NONAME
 ??0CArchiveStream@@QAE@PAVCArchive@@@Z @ 348 NONAME
 ??0CAsyncMonikerFile@@QAE@XZ @ 349 NONAME
 ??0CAsyncPropExchange@@QAE@K@Z @ 350 NONAME
 ??0CAsyncSocket@@QAE@XZ @ 351 NONAME
 ??0CAutoHideDockSite@@QAE@XZ @ 352 NONAME
 ??0CBasePane@@QAE@XZ @ 353 NONAME
 ??0CBaseTabbedPane@@QAE@H@Z @ 354 NONAME
 ??0CBlobProperty@@QAE@PAX@Z @ 355 NONAME
 ??0CBrowserControlSite@@QAE@PAVCOleControlContainer@@PAVCDHtmlDialog@@@Z @ 356 NONAME
 ??0CBrush@@QAE@HK@Z @ 357 NONAME
 ??0CBrush@@QAE@K@Z @ 358 NONAME
 ??0CBrush@@QAE@PAVCBitmap@@@Z @ 359 NONAME
 ??0CByteArray@@QAE@XZ @ 360 NONAME
 ??0CChevronOwnerDrawMenu@@QAE@XZ @ 361 NONAME
 ??0CClientDC@@QAE@PAVCWnd@@@Z @ 362 NONAME
 ??0CCmdTarget@@QAE@XZ @ 363 NONAME
 ??0CCmdUI@@QAE@XZ @ 364 NONAME
 ??0CColorDialog@@QAE@KKPAVCWnd@@@Z @ 365 NONAME
 ??0CCommandLineInfo@@QAE@XZ @ 366 NONAME
 ??0CCommandManager@@IAE@XZ @ 367 NONAME
 ??0CConnectionPoint@@QAE@XZ @ 368 NONAME
 ??0CContextMenuManager@@QAE@XZ @ 369 NONAME
 ??0CControlBar@@IAE@XZ @ 370 NONAME
 ??0CControlBarInfo@@QAE@XZ @ 371 NONAME
 ??0CControlCreationInfo@@QAE@XZ @ 372 NONAME
 ??0CControlDataSource@COleControl@@QAE@PAV1@@Z @ 373 NONAME
 ??0CControlFrameWnd@@QAE@PAVCOleControl@@@Z @ 374 NONAME
 ??0CControlSiteFactoryMgr@@QAE@XZ @ 375 NONAME
 ??0CCtrlView@@QAE@PBDK@Z @ 376 NONAME
 ??0CD2DBitmap@@IAE@PAVCRenderTarget@@H@Z @ 377 NONAME
 ??0CD2DBitmap@@QAE@PAVCRenderTarget@@IPBDVCD2DSizeU@@H@Z @ 378 NONAME
 ??0CD2DBitmap@@QAE@PAVCRenderTarget@@PAUHBITMAP__@@VCD2DSizeU@@H@Z @ 379 NONAME
 ??0CD2DBitmap@@QAE@PAVCRenderTarget@@PBDVCD2DSizeU@@H@Z @ 380 NONAME
 ??0CD2DBitmapBrush@@QAE@PAVCRenderTarget@@IPBDVCD2DSizeU@@PAUD2D1_BITMAP_BRUSH_PROPERTIES@@PAVCD2DBrushProperties@@H@Z @ 381 NONAME
 ??0CD2DBitmapBrush@@QAE@PAVCRenderTarget@@PAUD2D1_BITMAP_BRUSH_PROPERTIES@@PAVCD2DBrushProperties@@H@Z @ 382 NONAME
 ??0CD2DBitmapBrush@@QAE@PAVCRenderTarget@@PBDVCD2DSizeU@@PAUD2D1_BITMAP_BRUSH_PROPERTIES@@PAVCD2DBrushProperties@@H@Z @ 383 NONAME
 ??0CD2DBrush@@IAE@PAVCRenderTarget@@PAVCD2DBrushProperties@@H@Z @ 384 NONAME
 ??0CD2DBrushProperties@@QAE@M@Z @ 385 NONAME
 ??0CD2DBrushProperties@@QAE@UD2D_MATRIX_3X2_F@@M@Z @ 386 NONAME
 ??0CD2DBrushProperties@@QAE@XZ @ 387 NONAME
 ??0CD2DEllipse@@QAE@ABUD2D1_ELLIPSE@@@Z @ 388 NONAME
 ??0CD2DEllipse@@QAE@ABVCD2DPointF@@ABVCD2DSizeF@@@Z @ 389 NONAME
 ??0CD2DEllipse@@QAE@ABVCD2DRectF@@@Z @ 390 NONAME
 ??0CD2DEllipse@@QAE@PBUD2D1_ELLIPSE@@@Z @ 391 NONAME
 ??0CD2DGeometry@@QAE@PAVCRenderTarget@@H@Z @ 392 NONAME
 ??0CD2DGeometrySink@@QAE@AAVCD2DPathGeometry@@@Z @ 393 NONAME
 ??0CD2DGradientBrush@@QAE@PAVCRenderTarget@@PBUD2D1_GRADIENT_STOP@@IW4D2D1_GAMMA@@W4D2D1_EXTEND_MODE@@PAVCD2DBrushProperties@@H@Z @ 394 NONAME
 ??0CD2DLayer@@QAE@PAVCRenderTarget@@H@Z @ 395 NONAME
 ??0CD2DLinearGradientBrush@@QAE@PAVCRenderTarget@@PBUD2D1_GRADIENT_STOP@@IUD2D1_LINEAR_GRADIENT_BRUSH_PROPERTIES@@W4D2D1_GAMMA@@W4D2D1_EXTEND_MODE@@PAVCD2DBrushProperties@@H@Z @ 396 NONAME
 ??0CD2DMesh@@QAE@PAVCRenderTarget@@H@Z @ 397 NONAME
 ??0CD2DPathGeometry@@QAE@PAVCRenderTarget@@H@Z @ 398 NONAME
 ??0CD2DPointF@@QAE@ABUD2D_POINT_2F@@@Z @ 399 NONAME
 ??0CD2DPointF@@QAE@ABVCPoint@@@Z @ 400 NONAME
 ??0CD2DPointF@@QAE@MM@Z @ 401 NONAME
 ??0CD2DPointF@@QAE@PBUD2D_POINT_2F@@@Z @ 402 NONAME
 ??0CD2DPointU@@QAE@ABUD2D_POINT_2U@@@Z @ 403 NONAME
 ??0CD2DPointU@@QAE@ABVCPoint@@@Z @ 404 NONAME
 ??0CD2DPointU@@QAE@II@Z @ 405 NONAME
 ??0CD2DPointU@@QAE@PBUD2D_POINT_2U@@@Z @ 406 NONAME
 ??0CD2DRadialGradientBrush@@QAE@PAVCRenderTarget@@PBUD2D1_GRADIENT_STOP@@IUD2D1_RADIAL_GRADIENT_BRUSH_PROPERTIES@@W4D2D1_GAMMA@@W4D2D1_EXTEND_MODE@@PAVCD2DBrushProperties@@H@Z @ 407 NONAME
 ??0CD2DRectF@@QAE@ABUD2D_RECT_F@@@Z @ 408 NONAME
 ??0CD2DRectF@@QAE@ABVCRect@@@Z @ 409 NONAME
 ??0CD2DRectF@@QAE@MMMM@Z @ 410 NONAME
 ??0CD2DRectF@@QAE@PBUD2D_RECT_F@@@Z @ 411 NONAME
 ??0CD2DRectU@@QAE@ABUD2D_RECT_U@@@Z @ 412 NONAME
 ??0CD2DRectU@@QAE@ABVCRect@@@Z @ 413 NONAME
 ??0CD2DRectU@@QAE@IIII@Z @ 414 NONAME
 ??0CD2DRectU@@QAE@PBUD2D_RECT_U@@@Z @ 415 NONAME
 ??0CD2DResource@@IAE@PAVCRenderTarget@@H@Z @ 416 NONAME
 ??0CD2DRoundedRect@@QAE@ABUD2D1_ROUNDED_RECT@@@Z @ 417 NONAME
 ??0CD2DRoundedRect@@QAE@ABVCD2DRectF@@ABVCD2DSizeF@@@Z @ 418 NONAME
 ??0CD2DRoundedRect@@QAE@PBUD2D1_ROUNDED_RECT@@@Z @ 419 NONAME
 ??0CD2DSizeF@@QAE@ABUD2D_SIZE_F@@@Z @ 420 NONAME
 ??0CD2DSizeF@@QAE@ABVCSize@@@Z @ 421 NONAME
 ??0CD2DSizeF@@QAE@MM@Z @ 422 NONAME
 ??0CD2DSizeF@@QAE@PBUD2D_SIZE_F@@@Z @ 423 NONAME
 ??0CD2DSizeU@@QAE@ABUD2D_SIZE_U@@@Z @ 424 NONAME
 ??0CD2DSizeU@@QAE@ABVCSize@@@Z @ 425 NONAME
 ??0CD2DSizeU@@QAE@II@Z @ 426 NONAME
 ??0CD2DSizeU@@QAE@PBUD2D_SIZE_U@@@Z @ 427 NONAME
 ??0CD2DSolidColorBrush@@QAE@PAVCRenderTarget@@KHPAVCD2DBrushProperties@@H@Z @ 428 NONAME
 ??0CD2DSolidColorBrush@@QAE@PAVCRenderTarget@@U_D3DCOLORVALUE@@PAVCD2DBrushProperties@@H@Z @ 429 NONAME
 ??0CD2DTextFormat@@QAE@PAVCRenderTarget@@ABV?$CStringT@DV?$StrTraitMFC_DLL@DV?$ChTraitsCRT@D@ATL@@@@@ATL@@MW4DWRITE_FONT_WEIGHT@@W4DWRITE_FONT_STYLE@@W4DWRITE_FONT_STRETCH@@1PAUIDWriteFontCollection@@H@Z @ 430 NONAME
 ??0CD2DTextLayout@@QAE@PAVCRenderTarget@@ABV?$CStringT@DV?$StrTraitMFC_DLL@DV?$ChTraitsCRT@D@ATL@@@@@ATL@@AAVCD2DTextFormat@@ABVCD2DSizeF@@H@Z @ 431 NONAME
 ??0CDaoDatabase@@QAE@PAVCDaoWorkspace@@@Z @ 432 NONAME
 ??0CDaoException@@QAE@XZ @ 433 NONAME
 ??0CDaoFieldExchange@@QAE@IPAVCDaoRecordset@@PAX@Z @ 434 NONAME
 ??0CDaoIndexInfo@@QAE@XZ @ 435 NONAME
 ??0CDaoQueryDef@@QAE@PAVCDaoDatabase@@@Z @ 436 NONAME
 ??0CDaoRecordset@@QAE@PAVCDaoDatabase@@@Z @ 437 NONAME
 ??0CDaoRecordView@@IAE@I@Z @ 438 NONAME
 ??0CDaoRecordView@@IAE@PBD@Z @ 439 NONAME
 ??0CDaoRelationInfo@@QAE@XZ @ 440 NONAME
 ??0CDaoTableDef@@QAE@PAVCDaoDatabase@@@Z @ 441 NONAME
 ??0CDaoWorkspace@@QAE@XZ @ 442 NONAME
 ??0CDatabase@@QAE@XZ @ 443 NONAME
 ??0CDataBoundProperty@@QAE@PAV0@JG@Z @ 444 NONAME
 ??0CDataExchange@@QAE@PAVCWnd@@H@Z @ 445 NONAME
 ??0CDataRecoveryHandler@@QAE@KH@Z @ 446 NONAME
 ??0CDataSourceControl@@QAE@PAVCOleControlSite@@@Z @ 447 NONAME
 ??0CDBException@@QAE@F@Z @ 448 NONAME
 ??0CDBVariant@@QAE@XZ @ 449 NONAME
 ??0CDC@@QAE@XZ @ 450 NONAME
 ??0CDCRenderTarget@@QAE@XZ @ 451 NONAME
 ??0CDHtmlControlSink@@QAE@PAUIUnknown@@PAVCDHtmlSinkHandler@@PBDK@Z @ 452 NONAME
 ??0CDHtmlControlSink@@QAE@XZ @ 453 NONAME
 ??0CDHtmlDialog@@QAE@IIPAVCWnd@@@Z @ 454 NONAME
 ??0CDHtmlDialog@@QAE@PBD0PAVCWnd@@@Z @ 455 NONAME
 ??0CDHtmlDialog@@QAE@XZ @ 456 NONAME
 ??0CDHtmlElementEventSink@@QAE@PAVCDHtmlEventSink@@PAUIDispatch@@@Z @ 457 NONAME
 ??0CDialog@@QAE@IPAVCWnd@@@Z @ 458 NONAME
 ??0CDialog@@QAE@PBDPAVCWnd@@@Z @ 459 NONAME
 ??0CDialog@@QAE@XZ @ 460 NONAME
 ??0CDialogBar@@QAE@XZ @ 461 NONAME
 ??0CDialogEx@@QAE@IPAVCWnd@@@Z @ 462 NONAME
 ??0CDialogEx@@QAE@PBDPAVCWnd@@@Z @ 463 NONAME
 ??0CDialogEx@@QAE@XZ @ 464 NONAME
 ??0CDialogImpl@@IAE@AAVCWnd@@@Z @ 465 NONAME
 ??0CDialogTemplate@@QAE@PAX@Z @ 466 NONAME
 ??0CDialogTemplate@@QAE@PBUDLGTEMPLATE@@@Z @ 467 NONAME
 ??0CDocItem@@IAE@XZ @ 468 NONAME
 ??0CDockablePane@@QAE@XZ @ 469 NONAME
 ??0CDockablePaneAdapter@@QAE@XZ @ 470 NONAME
 ??0CDockBar@@QAE@H@Z @ 471 NONAME
 ??0CDockContext@@QAE@PAVCControlBar@@@Z @ 472 NONAME
 ??0CDockingManager@@QAE@XZ @ 473 NONAME
 ??0CDockingPanesRow@@QAE@PAVCDockSite@@HH@Z @ 474 NONAME
 ??0CDockSite@@QAE@XZ @ 475 NONAME
 ??0CDockState@@QAE@XZ @ 476 NONAME
 ??0CDocManager@@QAE@XZ @ 477 NONAME
 ??0CDocObjectServer@@QAE@PAVCOleServerDoc@@PAUIOleDocumentSite@@@Z @ 478 NONAME
 ??0CDocObjectServerItem@@IAE@PAVCOleServerDoc@@H@Z @ 479 NONAME
 ??0CDocTemplate@@IAE@IPAUCRuntimeClass@@00@Z @ 480 NONAME
 ??0CDocument@@QAE@XZ @ 481 NONAME
 ??0CDrawingManager@@QAE@AAVCDC@@@Z @ 482 NONAME
 ??0CDumpContext@@QAE@PAVCFile@@@Z @ 483 NONAME
 ??0CDWordArray@@QAE@XZ @ 484 NONAME
 ??0CDynLinkLibrary@@QAE@AAUAFX_EXTENSION_MODULE@@H@Z @ 485 NONAME
 ??0CDynLinkLibrary@@QAE@PAUHINSTANCE__@@0@Z @ 486 NONAME
 ??0CEditView@@QAE@XZ @ 487 NONAME
 ??0CEnumArray@@QAE@IPBXIH@Z @ 488 NONAME
 ??0CEnumConnections@@QAE@PBXI@Z @ 489 NONAME
 ??0CEnumConnPoints@@QAE@PBXI@Z @ 490 NONAME
 ??0CEnumFormatEtc@@QAE@XZ @ 491 NONAME
 ??0CEvent@@QAE@HHPBDPAU_SECURITY_ATTRIBUTES@@@Z @ 492 NONAME
 ??0CException@@QAE@H@Z @ 493 NONAME
 ??0CException@@QAE@XZ @ 494 NONAME
 ??0CFieldExchange@@QAE@IPAVCRecordset@@PAX@Z @ 495 NONAME
 ??0CFile@@QAE@PAVCAtlTransactionManager@ATL@@@Z @ 496 NONAME
 ??0CFile@@QAE@PAX@Z @ 497 NONAME
 ??0CFile@@QAE@PBDI@Z @ 498 NONAME
 ??0CFile@@QAE@PBDIPAVCAtlTransactionManager@ATL@@@Z @ 499 NONAME
 ??0CFile@@QAE@XZ @ 500 NONAME
 ??0CFileDialog@@QAE@HPBD0K0PAVCWnd@@KH@Z @ 501 NONAME
 ??0CFileFind@@QAE@PAVCAtlTransactionManager@ATL@@@Z @ 502 NONAME
 ??0CFileFind@@QAE@XZ @ 503 NONAME
 ??0CFindReplaceDialog@@QAE@XZ @ 504 NONAME
 ??0CFixedAlloc@@QAE@II@Z @ 505 NONAME
 ??0CFixedAllocNoSync@@QAE@II@Z @ 506 NONAME
 ??0CFolderPickerDialog@@QAE@PBDKPAVCWnd@@KH@Z @ 507 NONAME
 ??0CFontDialog@@QAE@ABU_charformat@@KPAVCDC@@PAVCWnd@@@Z @ 508 NONAME
 ??0CFontDialog@@QAE@PAUtagLOGFONTA@@KPAVCDC@@PAVCWnd@@@Z @ 509 NONAME
 ??0CFontHolder@@QAE@PAUIPropertyNotifySink@@@Z @ 510 NONAME
 ??0CFormView@@IAE@I@Z @ 511 NONAME
 ??0CFormView@@IAE@PBD@Z @ 512 NONAME
 ??0CFrameImpl@@QAE@PAVCFrameWnd@@@Z @ 513 NONAME
 ??0CFrameWnd@@QAE@XZ @ 514 NONAME
 ??0CFrameWndEx@@IAE@XZ @ 515 NONAME
 ??0CFtpConnection@@QAE@PAVCInternetSession@@PAXPBDK@Z @ 516 NONAME
 ??0CFtpConnection@@QAE@PAVCInternetSession@@PBD11KGH@Z @ 517 NONAME
 ??0CFtpFileFind@@QAE@PAVCFtpConnection@@K@Z @ 518 NONAME
 ??0CFullScreenImpl@@QAE@PAVCFrameImpl@@@Z @ 519 NONAME
 ??0CGestureConfig@@QAE@XZ @ 520 NONAME
 ??0CGlobalUtils@@QAE@XZ @ 521 NONAME
 ??0CGopherConnection@@QAE@PAVCInternetSession@@PAXPBDK@Z @ 522 NONAME
 ??0CGopherConnection@@QAE@PAVCInternetSession@@PBD11KG@Z @ 523 NONAME
 ??0CGopherFile@@IAE@PAX0PBDKK@Z @ 524 NONAME
 ??0CGopherFile@@IAE@PAXAAVCGopherLocator@@PAVCGopherConnection@@@Z @ 525 NONAME
 ??0CGopherFileFind@@QAE@PAVCGopherConnection@@K@Z @ 526 NONAME
 ??0CGopherLocator@@AAE@PBDK@Z @ 527 NONAME
 ??0CHandleMap@@QAE@PAUCRuntimeClass@@P6GXPAVCObject@@@Z2IH@Z @ 528 NONAME
 ??0CHtmlControlSite@@QAE@PAVCOleControlContainer@@@Z @ 529 NONAME
 ??0CHtmlEditCtrl@@QAE@XZ @ 530 NONAME
 ??0CHtmlEditDoc@@QAE@XZ @ 531 NONAME
 ??0CHtmlEditView@@QAE@XZ @ 532 NONAME
 ??0CHtmlView@@IAE@XZ @ 533 NONAME
 ??0CHttpConnection@@QAE@PAVCInternetSession@@PAXPBDK@Z @ 534 NONAME
 ??0CHttpConnection@@QAE@PAVCInternetSession@@PBDG11K@Z @ 535 NONAME
 ??0CHttpConnection@@QAE@PAVCInternetSession@@PBDKG11K@Z @ 536 NONAME
 ??0CHttpFile@@IAE@PAX0PBD11K@Z @ 537 NONAME
 ??0CHttpFile@@IAE@PAXPBD1PAVCHttpConnection@@@Z @ 538 NONAME
 ??0CHwndRenderTarget@@QAE@PAUHWND__@@@Z @ 539 NONAME
 ??0CImageList@@QAE@XZ @ 540 NONAME
 ??0CInternetConnection@@QAE@PAVCInternetSession@@PBDGK@Z @ 541 NONAME
 ??0CInternetException@@QAE@K@Z @ 542 NONAME
 ??0CInternetFile@@IAE@PAX0PBD1KH@Z @ 543 NONAME
 ??0CInternetFile@@IAE@PAXPBDPAVCInternetConnection@@H@Z @ 544 NONAME
 ??0CInternetSession@@QAE@PBDKK00K@Z @ 545 NONAME
 ??0CJumpList@@QAE@H@Z @ 546 NONAME
 ??0CKeyboardManager@@QAE@XZ @ 547 NONAME
 ??0CKeyFrame@@QAE@PAVCBaseKeyFrame@@N@Z @ 548 NONAME
 ??0CKeyFrame@@QAE@PAVCBaseTransition@@@Z @ 549 NONAME
 ??0CLongBinary@@QAE@XZ @ 550 NONAME
 ??0CMapPtrToPtr@@QAE@H@Z @ 551 NONAME
 ??0CMapPtrToWord@@QAE@H@Z @ 552 NONAME
 ??0CMapStringToOb@@QAE@H@Z @ 553 NONAME
 ??0CMapStringToPtr@@QAE@H@Z @ 554 NONAME
 ??0CMapStringToString@@QAE@H@Z @ 555 NONAME
 ??0CMapWordToOb@@QAE@H@Z @ 556 NONAME
 ??0CMapWordToPtr@@QAE@H@Z @ 557 NONAME
 ??0CMDIChildWnd@@QAE@XZ @ 558 NONAME
 ??0CMDIChildWndEx@@IAE@XZ @ 559 NONAME
 ??0CMDIClientAreaWnd@@QAE@XZ @ 560 NONAME
 ??0CMDIFrameWnd@@QAE@XZ @ 561 NONAME
 ??0CMDIFrameWndEx@@IAE@XZ @ 562 NONAME
 ??0CMDITabInfo@@QAE@XZ @ 563 NONAME
 ??0CMDITabProxyWnd@@QAE@XZ @ 564 NONAME
 ??0CMemDC@@QAE@AAVCDC@@ABVCRect@@@Z @ 565 NONAME
 ??0CMemDC@@QAE@AAVCDC@@PAVCWnd@@@Z @ 566 NONAME
 ??0CMemFile@@QAE@I@Z @ 567 NONAME
 ??0CMemFile@@QAE@PAEII@Z @ 568 NONAME
 ??0CMenuHash@@QAE@XZ @ 569 NONAME
 ??0CMenuTearOffManager@@QAE@XZ @ 570 NONAME
 ??0CMetaFileDC@@QAE@XZ @ 571 NONAME
 ??0CMFCAcceleratorKey@@QAE@PAUtagACCEL@@@Z @ 572 NONAME
 ??0CMFCAcceleratorKey@@QAE@XZ @ 573 NONAME
 ??0CMFCAcceleratorKeyAssignCtrl@@QAE@XZ @ 574 NONAME
 ??0CMFCAutoHideBar@@QAE@XZ @ 575 NONAME
 ??0CMFCAutoHideButton@@QAE@XZ @ 576 NONAME
 ??0CMFCBaseAccessibleObject@@QAE@XZ @ 577 NONAME
 ??0CMFCBaseTabCtrl@@QAE@XZ @ 578 NONAME
 ??0CMFCBaseToolBar@@QAE@XZ @ 579 NONAME
 ??0CMFCBaseVisualManager@@QAE@XZ @ 580 NONAME
 ??0CMFCButton@@QAE@XZ @ 581 NONAME
 ??0CMFCCaptionBar@@QAE@XZ @ 582 NONAME
 ??0CMFCCaptionButton@@QAE@IH@Z @ 583 NONAME
 ??0CMFCCaptionButton@@QAE@XZ @ 584 NONAME
 ??0CMFCCaptionButtonEx@@QAE@I@Z @ 585 NONAME
 ??0CMFCCaptionMenuButton@@QAE@IH@Z @ 586 NONAME
 ??0CMFCCaptionMenuButton@@QAE@XZ @ 587 NONAME
 ??0CMFCCmdUsageCount@@QAE@XZ @ 588 NONAME
 ??0CMFCColorBar@@IAE@AAV0@I@Z @ 589 NONAME
 ??0CMFCColorBar@@IAE@ABV?$CArray@KK@@KPBD11AAV?$CList@KK@@HHHKIPAVCMFCColorButton@@@Z @ 590 NONAME
 ??0CMFCColorBar@@IAE@ABV?$CArray@KK@@KPBD11AAV?$CList@KK@@HKIPAVCMFCRibbonColorButton@@@Z @ 591 NONAME
 ??0CMFCColorBar@@QAE@XZ @ 592 NONAME
 ??0CMFCColorBarCmdUI@@QAE@XZ @ 593 NONAME
 ??0CMFCColorButton@@QAE@XZ @ 594 NONAME
 ??0CMFCColorDialog@@QAE@KKPAVCWnd@@PAUHPALETTE__@@@Z @ 595 NONAME
 ??0CMFCColorMenuButton@@QAE@IPBDPAVCPalette@@@Z @ 596 NONAME
 ??0CMFCColorMenuButton@@QAE@XZ @ 597 NONAME
 ??0CMFCColorPickerCtrl@@QAE@XZ @ 598 NONAME
 ??0CMFCColorPropertySheet@@QAE@IPAVCWnd@@I@Z @ 599 NONAME
 ??0CMFCColorPropertySheet@@QAE@PBDPAVCWnd@@I@Z @ 600 NONAME
 ??0CMFCControlBarImpl@@QAE@PAVCPane@@@Z @ 601 NONAME
 ??0CMFCControlContainer@@QAE@PAVCWnd@@@Z @ 602 NONAME
 ??0CMFCControlRenderer@@QAE@XZ @ 603 NONAME
 ??0CMFCControlRendererInfo@@QAE@ABV0@@Z @ 604 NONAME
 ??0CMFCControlRendererInfo@@QAE@IABVCRect@@000@Z @ 605 NONAME
 ??0CMFCControlRendererInfo@@QAE@IKABVCRect@@000H@Z @ 606 NONAME
 ??0CMFCControlRendererInfo@@QAE@PBDABVCRect@@111@Z @ 607 NONAME
 ??0CMFCControlRendererInfo@@QAE@PBDKABVCRect@@111H@Z @ 608 NONAME
 ??0CMFCControlRendererInfo@@QAE@XZ @ 609 NONAME
 ??0CMFCCustomColorsPropertyPage@@QAE@XZ @ 610 NONAME
 ??0CMFCCustomizeButton@@QAE@HABV?$CStringT@DV?$StrTraitMFC_DLL@DV?$ChTraitsCRT@D@ATL@@@@@ATL@@@Z @ 611 NONAME
 ??0CMFCCustomizeButton@@QAE@XZ @ 612 NONAME
 ??0CMFCCustomizeMenuButton@@QAE@IPAUHMENU__@@HPBDH@Z @ 613 NONAME
 ??0CMFCCustomizeMenuButton@@QAE@XZ @ 614 NONAME
 ??0CMFCDesktopAlertDialog@@QAE@XZ @ 615 NONAME
 ??0CMFCDesktopAlertWnd@@QAE@XZ @ 616 NONAME
 ??0CMFCDragFrameImpl@@QAE@XZ @ 617 NONAME
 ??0CMFCDropDownFrame@@QAE@XZ @ 618 NONAME
 ??0CMFCDropDownListBox@@QAE@PAVCMFCRibbonComboBox@@@Z @ 619 NONAME
 ??0CMFCDropDownListBox@@QAE@PAVCWnd@@@Z @ 620 NONAME
 ??0CMFCDropDownListBox@@QAE@XZ @ 621 NONAME
 ??0CMFCDropDownToolbarButton@@QAE@PBDPAVCMFCDropDownToolBar@@@Z @ 622 NONAME
 ??0CMFCDropDownToolbarButton@@QAE@XZ @ 623 NONAME
 ??0CMFCEditBrowseCtrl@@QAE@XZ @ 624 NONAME
 ??0CMFCFilterChunkValueImpl@@QAE@XZ @ 625 NONAME
 ??0CMFCFontComboBox@@QAE@XZ @ 626 NONAME
 ??0CMFCHeaderCtrl@@QAE@XZ @ 627 NONAME
 ??0CMFCImageEditorDialog@@QAE@PAVCBitmap@@PAVCWnd@@H@Z @ 628 NONAME
 ??0CMFCImagePaintArea@@QAE@PAVCMFCImageEditorDialog@@@Z @ 629 NONAME
 ??0CMFCKeyMapDialog@@QAE@PAVCFrameWnd@@H@Z @ 630 NONAME
 ??0CMFCLinkCtrl@@QAE@XZ @ 631 NONAME
 ??0CMFCListCtrl@@QAE@XZ @ 632 NONAME
 ??0CMFCMaskedEdit@@QAE@XZ @ 633 NONAME
 ??0CMFCMenuBar@@QAE@XZ @ 634 NONAME
 ??0CMFCMenuButton@@QAE@XZ @ 635 NONAME
 ??0CMFCMousePropertyPage@@QAE@XZ @ 636 NONAME
 ??0CMFCOutlookBar@@QAE@XZ @ 637 NONAME
 ??0CMFCOutlookBarPane@@QAE@XZ @ 638 NONAME
 ??0CMFCOutlookBarPaneAdapter@@QAE@XZ @ 639 NONAME
 ??0CMFCOutlookBarPaneButton@@QAE@XZ @ 640 NONAME
 ??0CMFCOutlookBarTabCtrl@@QAE@XZ @ 641 NONAME
 ??0CMFCOutlookBarToolBar@@QAE@PAVCMFCOutlookBarTabCtrl@@@Z @ 642 NONAME
 ??0CMFCPopupMenu@@IAE@PAVCMFCToolBarsMenuPropertyPage@@PBD@Z @ 643 NONAME
 ??0CMFCPopupMenu@@QAE@XZ @ 644 NONAME
 ??0CMFCPopupMenuBar@@QAE@XZ @ 645 NONAME
 ??0CMFCPreviewCtrlImpl@@QAE@XZ @ 646 NONAME
 ??0CMFCPropertyGridColorProperty@@QAE@ABV?$CStringT@DV?$StrTraitMFC_DLL@DV?$ChTraitsCRT@D@ATL@@@@@ATL@@ABKPAVCPalette@@PBDK@Z @ 647 NONAME
 ??0CMFCPropertyGridCtrl@@QAE@XZ @ 648 NONAME
 ??0CMFCPropertyGridFileProperty@@QAE@ABV?$CStringT@DV?$StrTraitMFC_DLL@DV?$ChTraitsCRT@D@ATL@@@@@ATL@@0KPBD@Z @ 649 NONAME
 ??0CMFCPropertyGridFileProperty@@QAE@ABV?$CStringT@DV?$StrTraitMFC_DLL@DV?$ChTraitsCRT@D@ATL@@@@@ATL@@H0PBDK11K@Z @ 650 NONAME
 ??0CMFCPropertyGridFontProperty@@QAE@ABV?$CStringT@DV?$StrTraitMFC_DLL@DV?$ChTraitsCRT@D@ATL@@@@@ATL@@AAUtagLOGFONTA@@KPBDKK@Z @ 651 NONAME
 ??0CMFCPropertyGridProperty@@QAE@ABV?$CStringT@DV?$StrTraitMFC_DLL@DV?$ChTraitsCRT@D@ATL@@@@@ATL@@ABVCOleVariant@@PBDK222@Z @ 652 NONAME
 ??0CMFCPropertyGridProperty@@QAE@ABV?$CStringT@DV?$StrTraitMFC_DLL@DV?$ChTraitsCRT@D@ATL@@@@@ATL@@KH@Z @ 653 NONAME
 ??0CMFCPropertyGridToolTipCtrl@@QAE@XZ @ 654 NONAME
 ??0CMFCPropertyPage@@QAE@II@Z @ 655 NONAME
 ??0CMFCPropertyPage@@QAE@PBDI@Z @ 656 NONAME
 ??0CMFCPropertyPage@@QAE@XZ @ 657 NONAME
 ??0CMFCPropertySheet@@QAE@IPAVCWnd@@I@Z @ 658 NONAME
 ??0CMFCPropertySheet@@QAE@PBDPAVCWnd@@I@Z @ 659 NONAME
 ??0CMFCPropertySheet@@QAE@XZ @ 660 NONAME
 ??0CMFCPropertySheetCategoryInfo@@QAE@PBDHHPBV0@AAVCMFCPropertySheet@@@Z @ 661 NONAME
 ??0CMFCPropertySheetListBox@@AAE@XZ @ 662 NONAME
 ??0CMFCPropertySheetTabCtrl@@AAE@XZ @ 663 NONAME
 ??0CMFCReBar@@QAE@XZ @ 664 NONAME
 ??0CMFCRibbonBar@@QAE@H@Z @ 665 NONAME
 ??0CMFCRibbonBaseElement@@QAE@XZ @ 666 NONAME
 ??0CMFCRibbonButton@@QAE@IPBDHHH@Z @ 667 NONAME
 ??0CMFCRibbonButton@@QAE@IPBDPAUHICON__@@H1HH@Z @ 668 NONAME
 ??0CMFCRibbonButton@@QAE@XZ @ 669 NONAME
 ??0CMFCRibbonButtonsGroup@@QAE@PAVCMFCRibbonBaseElement@@@Z @ 670 NONAME
 ??0CMFCRibbonButtonsGroup@@QAE@XZ @ 671 NONAME
 ??0CMFCRibbonCaptionButton@@IAE@IPAUHWND__@@@Z @ 672 NONAME
 ??0CMFCRibbonCategory@@IAE@PAVCMFCRibbonBar@@PBDIIVCSize@@2@Z @ 673 NONAME
 ??0CMFCRibbonCategory@@IAE@XZ @ 674 NONAME
 ??0CMFCRibbonCheckBox@@QAE@IPBD@Z @ 675 NONAME
 ??0CMFCRibbonCheckBox@@QAE@XZ @ 676 NONAME
 ??0CMFCRibbonCmdUI@@QAE@XZ @ 677 NONAME
 ??0CMFCRibbonCollector@@QAE@AAVCMFCRibbonInfo@@K@Z @ 678 NONAME
 ??0CMFCRibbonColorButton@@QAE@IPBDHHHK@Z @ 679 NONAME
 ??0CMFCRibbonColorButton@@QAE@IPBDHK@Z @ 680 NONAME
 ??0CMFCRibbonColorButton@@QAE@XZ @ 681 NONAME
 ??0CMFCRibbonComboBox@@IAE@XZ @ 682 NONAME
 ??0CMFCRibbonComboBox@@QAE@IHHPBDH@Z @ 683 NONAME
 ??0CMFCRibbonCommandsListBox@@QAE@PAVCMFCRibbonBar@@HHH@Z @ 684 NONAME
 ??0CMFCRibbonConstructor@@QAE@ABVCMFCRibbonInfo@@@Z @ 685 NONAME
 ??0CMFCRibbonContextCaption@@IAE@PBDIW4AFX_RibbonCategoryColor@@@Z @ 686 NONAME
 ??0CMFCRibbonContextCaption@@IAE@XZ @ 687 NONAME
 ??0CMFCRibbonCustomizeDialog@@QAE@PAVCWnd@@PAVCMFCRibbonBar@@@Z @ 688 NONAME
 ??0CMFCRibbonCustomizePropertyPage@@QAE@PAVCMFCRibbonBar@@@Z @ 689 NONAME
 ??0CMFCRibbonDefaultPanelButton@@QAE@PAVCMFCRibbonPanel@@@Z @ 690 NONAME
 ??0CMFCRibbonEdit@@IAE@XZ @ 691 NONAME
 ??0CMFCRibbonEdit@@QAE@IHPBDH@Z @ 692 NONAME
 ??0CMFCRibbonFontComboBox@@IAE@XZ @ 693 NONAME
 ??0CMFCRibbonFontComboBox@@QAE@IHEEH@Z @ 694 NONAME
 ??0CMFCRibbonGallery@@QAE@IPBDHHAAVCMFCToolBarImages@@@Z @ 695 NONAME
 ??0CMFCRibbonGallery@@QAE@IPBDHHIH@Z @ 696 NONAME
 ??0CMFCRibbonGallery@@QAE@IPBDHHVCSize@@HH@Z @ 697 NONAME
 ??0CMFCRibbonGallery@@QAE@XZ @ 698 NONAME
 ??0CMFCRibbonGalleryIcon@@QAE@PAVCMFCRibbonGallery@@H@Z @ 699 NONAME
 ??0CMFCRibbonGalleryMenuButton@@IAE@XZ @ 700 NONAME
 ??0CMFCRibbonGalleryMenuButton@@QAE@IHPBDAAVCMFCToolBarImages@@@Z @ 701 NONAME
 ??0CMFCRibbonGalleryMenuButton@@QAE@IHPBDIH@Z @ 702 NONAME
 ??0CMFCRibbonInfo@@QAE@XZ @ 703 NONAME
 ??0CMFCRibbonInfoLoader@@QAE@AAVCMFCRibbonInfo@@@Z @ 704 NONAME
 ??0CMFCRibbonKeyboardCustomizeDialog@@QAE@PAVCMFCRibbonBar@@PAVCWnd@@@Z @ 705 NONAME
 ??0CMFCRibbonKeyTip@@QAE@PAVCMFCRibbonBaseElement@@H@Z @ 706 NONAME
 ??0CMFCRibbonLabel@@IAE@XZ @ 707 NONAME
 ??0CMFCRibbonLabel@@QAE@PBDH@Z @ 708 NONAME
 ??0CMFCRibbonLaunchButton@@QAE@XZ @ 709 NONAME
 ??0CMFCRibbonLinkCtrl@@QAE@IPBD0@Z @ 710 NONAME
 ??0CMFCRibbonLinkCtrl@@QAE@XZ @ 711 NONAME
 ??0CMFCRibbonMainPanel@@QAE@XZ @ 712 NONAME
 ??0CMFCRibbonMainPanelButton@@QAE@IPBDH@Z @ 713 NONAME
 ??0CMFCRibbonMainPanelButton@@QAE@IPBDPAUHICON__@@@Z @ 714 NONAME
 ??0CMFCRibbonMainPanelButton@@QAE@XZ @ 715 NONAME
 ??0CMFCRibbonMiniToolBar@@QAE@XZ @ 716 NONAME
 ??0CMFCRibbonPanel@@IAE@PAVCMFCRibbonGallery@@@Z @ 717 NONAME
 ??0CMFCRibbonPanel@@IAE@PBDPAUHICON__@@@Z @ 718 NONAME
 ??0CMFCRibbonPanelMenu@@IAE@XZ @ 719 NONAME
 ??0CMFCRibbonPanelMenu@@QAE@PAVCMFCRibbonBar@@ABV?$CArray@PAVCMFCRibbonBaseElement@@PAV1@@@H@Z @ 720 NONAME
 ??0CMFCRibbonPanelMenu@@QAE@PAVCMFCRibbonCategory@@VCSize@@@Z @ 721 NONAME
 ??0CMFCRibbonPanelMenu@@QAE@PAVCMFCRibbonGallery@@@Z @ 722 NONAME
 ??0CMFCRibbonPanelMenu@@QAE@PAVCMFCRibbonPanel@@@Z @ 723 NONAME
 ??0CMFCRibbonPanelMenuBar@@IAE@XZ @ 724 NONAME
 ??0CMFCRibbonPanelMenuBar@@QAE@PAVCMFCRibbonBar@@ABV?$CArray@PAVCMFCRibbonBaseElement@@PAV1@@@H@Z @ 725 NONAME
 ??0CMFCRibbonPanelMenuBar@@QAE@PAVCMFCRibbonCategory@@VCSize@@@Z @ 726 NONAME
 ??0CMFCRibbonPanelMenuBar@@QAE@PAVCMFCRibbonGallery@@@Z @ 727 NONAME
 ??0CMFCRibbonPanelMenuBar@@QAE@PAVCMFCRibbonPanel@@@Z @ 728 NONAME
 ??0CMFCRibbonProgressBar@@QAE@IHH@Z @ 729 NONAME
 ??0CMFCRibbonProgressBar@@QAE@XZ @ 730 NONAME
 ??0CMFCRibbonQuickAccessToolBar@@QAE@XZ @ 731 NONAME
 ??0CMFCRibbonQuickAccessToolBarDefaultState@@QAE@XZ @ 732 NONAME
 ??0CMFCRibbonRichEditCtrl@@QAE@AAVCMFCRibbonEdit@@@Z @ 733 NONAME
 ??0CMFCRibbonSeparator@@QAE@H@Z @ 734 NONAME
 ??0CMFCRibbonSlider@@QAE@IH@Z @ 735 NONAME
 ??0CMFCRibbonSlider@@QAE@XZ @ 736 NONAME
 ??0CMFCRibbonStatusBar@@QAE@XZ @ 737 NONAME
 ??0CMFCRibbonStatusBarPane@@QAE@IPBDHPAUHICON__@@0H@Z @ 738 NONAME
 ??0CMFCRibbonStatusBarPane@@QAE@IPBDIHKPAUHICON__@@HH@Z @ 739 NONAME
 ??0CMFCRibbonStatusBarPane@@QAE@IPBDPAUHBITMAP__@@HKPAUHICON__@@HH@Z @ 740 NONAME
 ??0CMFCRibbonStatusBarPane@@QAE@XZ @ 741 NONAME
 ??0CMFCRibbonTab@@QAE@XZ @ 742 NONAME
 ??0CMFCRibbonTabsGroup@@QAE@PAVCMFCRibbonBaseElement@@@Z @ 743 NONAME
 ??0CMFCRibbonTabsGroup@@QAE@XZ @ 744 NONAME
 ??0CMFCRibbonUndoButton@@QAE@IPBDHH@Z @ 745 NONAME
 ??0CMFCRibbonUndoButton@@QAE@IPBDPAUHICON__@@@Z @ 746 NONAME
 ??0CMFCRibbonUndoButton@@QAE@XZ @ 747 NONAME
 ??0CMFCShadowRenderer@@QAE@XZ @ 748 NONAME
 ??0CMFCShellListCtrl@@QAE@XZ @ 749 NONAME
 ??0CMFCShellTreeCtrl@@QAE@XZ @ 750 NONAME
 ??0CMFCShowAllButton@@QAE@XZ @ 751 NONAME
 ??0CMFCSpinButtonCtrl@@QAE@XZ @ 752 NONAME
 ??0CMFCStandardColorsPropertyPage@@QAE@XZ @ 753 NONAME
 ??0CMFCStatusBar@@QAE@XZ @ 754 NONAME
 ??0CMFCTabCtrl@@QAE@XZ @ 755 NONAME
 ??0CMFCTasksPane@@QAE@XZ @ 756 NONAME
 ??0CMFCTasksPaneFrameWnd@@QAE@XZ @ 757 NONAME
 ??0CMFCToolBar@@QAE@XZ @ 758 NONAME
 ??0CMFCToolBarButton@@QAE@IHPBDHH@Z @ 759 NONAME
 ??0CMFCToolBarButton@@QAE@XZ @ 760 NONAME
 ??0CMFCToolBarButtonCustomizeDialog@@QAE@PAVCMFCToolBarButton@@PAVCMFCToolBarImages@@PAVCWnd@@HH@Z @ 761 NONAME
 ??0CMFCToolBarButtonsListButton@@QAE@XZ @ 762 NONAME
 ??0CMFCToolBarComboBoxButton@@QAE@IHKH@Z @ 763 NONAME
 ??0CMFCToolBarComboBoxButton@@QAE@XZ @ 764 NONAME
 ??0CMFCToolBarComboBoxEdit@@QAE@AAVCMFCToolBarComboBoxButton@@@Z @ 765 NONAME
 ??0CMFCToolBarDateTimeCtrl@@QAE@IHKH@Z @ 766 NONAME
 ??0CMFCToolBarDateTimeCtrl@@QAE@XZ @ 767 NONAME
 ??0CMFCToolBarDropSource@@QAE@XZ @ 768 NONAME
 ??0CMFCToolBarDropTarget@@QAE@XZ @ 769 NONAME
 ??0CMFCToolBarEditBoxButton@@QAE@IHKH@Z @ 770 NONAME
 ??0CMFCToolBarEditBoxButton@@QAE@XZ @ 771 NONAME
 ??0CMFCToolBarEditCtrl@@QAE@AAVCMFCToolBarEditBoxButton@@@Z @ 772 NONAME
 ??0CMFCToolBarFontComboBox@@IAE@PAVCObList@@HEE@Z @ 773 NONAME
 ??0CMFCToolBarFontComboBox@@IAE@XZ @ 774 NONAME
 ??0CMFCToolBarFontComboBox@@QAE@IHHEKHE@Z @ 775 NONAME
 ??0CMFCToolBarFontSizeComboBox@@IAE@XZ @ 776 NONAME
 ??0CMFCToolBarFontSizeComboBox@@QAE@IHKH@Z @ 777 NONAME
 ??0CMFCToolBarImages@@QAE@H@Z @ 778 NONAME
 ??0CMFCToolBarImages@@QAE@XZ @ 779 NONAME
 ??0CMFCToolBarInfo@@QAE@XZ @ 780 NONAME
 ??0CMFCToolBarMenuButton@@QAE@ABV0@@Z @ 781 NONAME
 ??0CMFCToolBarMenuButton@@QAE@IPAUHMENU__@@HPBDH@Z @ 782 NONAME
 ??0CMFCToolBarMenuButton@@QAE@XZ @ 783 NONAME
 ??0CMFCToolBarMenuButtonsButton@@QAE@I@Z @ 784 NONAME
 ??0CMFCToolBarMenuButtonsButton@@QAE@XZ @ 785 NONAME
 ??0CMFCToolBarNameDialog@@QAE@PAVCWnd@@@Z @ 786 NONAME
 ??0CMFCToolBarsCommandsListBox@@QAE@XZ @ 787 NONAME
 ??0CMFCToolBarsCommandsPropertyPage@@QAE@XZ @ 788 NONAME
 ??0CMFCToolBarsCustomizeDialog@@QAE@PAVCFrameWnd@@HIPAV?$CList@PAUCRuntimeClass@@PAU1@@@@Z @ 789 NONAME
 ??0CMFCToolBarsKeyboardPropertyPage@@QAE@PAVCFrameWnd@@H@Z @ 790 NONAME
 ??0CMFCToolBarsListCheckBox@@QAE@XZ @ 791 NONAME
 ??0CMFCToolBarsListPropertyPage@@QAE@PAVCFrameWnd@@@Z @ 792 NONAME
 ??0CMFCToolBarsMenuPropertyPage@@QAE@PAVCFrameWnd@@H@Z @ 793 NONAME
 ??0CMFCToolBarsOptionsPropertyPage@@QAE@H@Z @ 794 NONAME
 ??0CMFCToolBarSpinEditBoxButton@@QAE@IHKH@Z @ 795 NONAME
 ??0CMFCToolBarSpinEditBoxButton@@QAE@XZ @ 796 NONAME
 ??0CMFCToolBarsToolsPropertyPage@@QAE@XZ @ 797 NONAME
 ??0CMFCToolBarSystemMenuButton@@QAE@PAUHMENU__@@PAUHICON__@@@Z @ 798 NONAME
 ??0CMFCToolBarSystemMenuButton@@QAE@XZ @ 799 NONAME
 ??0CMFCToolTipCtrl@@QAE@PAVCMFCToolTipInfo@@@Z @ 800 NONAME
 ??0CMFCVisualManager@@QAE@H@Z @ 801 NONAME
 ??0CMFCVisualManagerBitmapCache@@QAE@XZ @ 802 NONAME
 ??0CMFCVisualManagerBitmapCacheItem@CMFCVisualManagerBitmapCache@@QAE@XZ @ 803 NONAME
 ??0CMFCVisualManagerOffice2003@@QAE@XZ @ 804 NONAME
 ??0CMFCVisualManagerOffice2007@@IAE@XZ @ 805 NONAME
 ??0CMFCVisualManagerOfficeXP@@IAE@H@Z @ 806 NONAME
 ??0CMFCVisualManagerVS2005@@QAE@XZ @ 807 NONAME
 ??0CMFCVisualManagerVS2008@@QAE@XZ @ 808 NONAME
 ??0CMFCVisualManagerWindows@@QAE@H@Z @ 809 NONAME
 ??0CMFCVisualManagerWindows7@@QAE@XZ @ 810 NONAME
 ??0CMFCWindowsManagerDialog@@QAE@PAVCMDIFrameWndEx@@H@Z @ 811 NONAME
 ??0CMFCZoomKernel@@QAE@XZ @ 812 NONAME
 ??0CMiniDockFrameWnd@@QAE@XZ @ 813 NONAME
 ??0CMiniFrameWnd@@QAE@XZ @ 814 NONAME
 ??0CMouseManager@@QAE@XZ @ 815 NONAME
 ??0CMultiDocTemplate@@QAE@IPAUCRuntimeClass@@00@Z @ 816 NONAME
 ??0CMultiLock@@QAE@QAPAVCSyncObject@@KH@Z @ 817 NONAME
 ??0CMultiPageDHtmlDialog@@QAE@IIPAVCWnd@@@Z @ 818 NONAME
 ??0CMultiPageDHtmlDialog@@QAE@PBD0PAVCWnd@@@Z @ 819 NONAME
 ??0CMultiPageDHtmlDialog@@QAE@XZ @ 820 NONAME
 ??0CMultiPaneFrameWnd@@QAE@XZ @ 821 NONAME
 ??0CMutex@@QAE@HPBDPAU_SECURITY_ATTRIBUTES@@@Z @ 822 NONAME
 ??0CObArray@@QAE@XZ @ 823 NONAME
 ??0CObList@@QAE@H@Z @ 824 NONAME
 ??0COleBusyDialog@@QAE@PAUHTASK__@@HKPAVCWnd@@@Z @ 825 NONAME
 ??0COleChangeIconDialog@@QAE@PAVCOleClientItem@@KPAVCWnd@@@Z @ 826 NONAME
 ??0COleChangeSourceDialog@@QAE@PAVCOleClientItem@@PAVCWnd@@@Z @ 827 NONAME
 ??0COleClientItem@@QAE@PAVCOleDocument@@@Z @ 828 NONAME
 ??0COleCmdUI@@QAE@PAU_tagOLECMD@@KPBU_GUID@@@Z @ 829 NONAME
 ??0COleCntrFrameWnd@@QAE@PAVCOleIPFrameWnd@@@Z @ 830 NONAME
 ??0COleCntrFrameWndEx@@QAE@PAVCOleIPFrameWnd@@@Z @ 831 NONAME
 ??0COleControl@@QAE@XZ @ 832 NONAME
 ??0COleControlContainer@@QAE@PAVCWnd@@@Z @ 833 NONAME
 ??0COleControlLock@@QAE@ABU_GUID@@@Z @ 834 NONAME
 ??0COleControlSite@@QAE@PAVCOleControlContainer@@@Z @ 835 NONAME
 ??0COleControlSiteOrWnd@@QAE@PAUHWND__@@H@Z @ 836 NONAME
 ??0COleControlSiteOrWnd@@QAE@PAVCOleControlSite@@@Z @ 837 NONAME
 ??0COleControlSiteOrWnd@@QAE@XZ @ 838 NONAME
 ??0COleConvertDialog@@QAE@PAVCOleClientItem@@KPAU_GUID@@PAVCWnd@@@Z @ 839 NONAME
 ??0COleCurrency@@QAE@JJ@Z @ 840 NONAME
 ??0COleDataObject@@QAE@XZ @ 841 NONAME
 ??0COleDataSource@@QAE@XZ @ 842 NONAME
 ??0COleDialog@@QAE@PAVCWnd@@@Z @ 843 NONAME
 ??0COleDispatchDriver@@QAE@ABV0@@Z @ 844 NONAME
 ??0COleDispatchDriver@@QAE@PAUIDispatch@@H@Z @ 845 NONAME
 ??0COleDispatchDriver@@QAE@XZ @ 846 NONAME
 ??0COleDispatchException@@QAE@PBDIG@Z @ 847 NONAME
 ??0COleDocIPFrameWnd@@QAE@XZ @ 848 NONAME
 ??0COleDocIPFrameWndEx@@IAE@XZ @ 849 NONAME
 ??0COleDocObjectItem@@QAE@PAVCOleDocument@@@Z @ 850 NONAME
 ??0COleDocument@@QAE@XZ @ 851 NONAME
 ??0COleDropSource@@QAE@XZ @ 852 NONAME
 ??0COleDropTarget@@QAE@XZ @ 853 NONAME
 ??0COleFrameHook@@QAE@PAVCFrameWnd@@PAVCOleClientItem@@@Z @ 854 NONAME
 ??0COleInsertDialog@@QAE@KPAVCWnd@@@Z @ 855 NONAME
 ??0COleIPFrameWnd@@QAE@XZ @ 856 NONAME
 ??0COleIPFrameWndEx@@IAE@XZ @ 857 NONAME
 ??0COleLinkingDoc@@QAE@XZ @ 858 NONAME
 ??0COleLinksDialog@@QAE@PAVCOleDocument@@PAVCView@@KPAVCWnd@@@Z @ 859 NONAME
 ??0COleMessageFilter@@QAE@XZ @ 860 NONAME
 ??0COleObjectFactory@@QAE@ABU_GUID@@PAUCRuntimeClass@@HHPBD@Z @ 861 NONAME
 ??0COleObjectFactory@@QAE@ABU_GUID@@PAUCRuntimeClass@@HPBD@Z @ 862 NONAME
 ??0COlePasteSpecialDialog@@QAE@KPAVCOleDataObject@@PAVCWnd@@@Z @ 863 NONAME
 ??0COlePropertiesDialog@@QAE@PAVCOleClientItem@@IIPAVCWnd@@@Z @ 864 NONAME
 ??0COlePropertyPage@@QAE@II@Z @ 865 NONAME
 ??0COleResizeBar@@QAE@XZ @ 866 NONAME
 ??0COleSafeArray@@QAE@ABUtagSAFEARRAY@@G@Z @ 867 NONAME
 ??0COleSafeArray@@QAE@ABUtagVARIANT@@@Z @ 868 NONAME
 ??0COleSafeArray@@QAE@ABV0@@Z @ 869 NONAME
 ??0COleSafeArray@@QAE@ABVCOleVariant@@@Z @ 870 NONAME
 ??0COleSafeArray@@QAE@PBUtagSAFEARRAY@@G@Z @ 871 NONAME
 ??0COleSafeArray@@QAE@PBUtagVARIANT@@@Z @ 872 NONAME
 ??0COleServerDoc@@QAE@XZ @ 873 NONAME
 ??0COleServerDocEx@@IAE@XZ @ 874 NONAME
 ??0COleServerItem@@IAE@PAVCOleServerDoc@@H@Z @ 875 NONAME
 ??0COleStreamFile@@QAE@PAUIStream@@@Z @ 876 NONAME
 ??0COleTemplateServer@@QAE@XZ @ 877 NONAME
 ??0COleUILinkInfo@@QAE@PAVCOleClientItem@@@Z @ 878 NONAME
 ??0COleUILinkInfo@@QAE@PAVCOleDocument@@@Z @ 879 NONAME
 ??0COleUpdateDialog@@QAE@PAVCOleDocument@@HHPAVCWnd@@@Z @ 880 NONAME
 ??0COleVariant@@QAE@ABUtagVARIANT@@@Z @ 881 NONAME
 ??0COleVariant@@QAE@ABV0@@Z @ 882 NONAME
 ??0COleVariant@@QAE@FG@Z @ 883 NONAME
 ??0COleVariant@@QAE@JG@Z @ 884 NONAME
 ??0COleVariant@@QAE@PBDG@Z @ 885 NONAME
 ??0COleVariant@@QAE@PBU_ITEMIDLIST@@@Z @ 886 NONAME
 ??0COleVariant@@QAE@PBUtagVARIANT@@@Z @ 887 NONAME
 ??0COutlookOptionsDlg@@QAE@AAVCMFCOutlookBarTabCtrl@@@Z @ 888 NONAME
 ??0CPageSetupDialog@@QAE@KPAVCWnd@@@Z @ 889 NONAME
 ??0CPaintDC@@QAE@PAVCWnd@@@Z @ 890 NONAME
 ??0CPane@@IAE@XZ @ 891 NONAME
 ??0CPaneContainer@@QAE@PAVCPaneContainerManager@@PAVCDockablePane@@1PAVCPaneDivider@@@Z @ 892 NONAME
 ??0CPaneContainerManager@@QAE@XZ @ 893 NONAME
 ??0CPaneDialog@@QAE@XZ @ 894 NONAME
 ??0CPaneDivider@@QAE@HPAVCWnd@@@Z @ 895 NONAME
 ??0CPaneDivider@@QAE@XZ @ 896 NONAME
 ??0CPaneFrameWnd@@QAE@XZ @ 897 NONAME
 ??0CPen@@QAE@HHK@Z @ 898 NONAME
 ??0CPen@@QAE@HHPBUtagLOGBRUSH@@HPBK@Z @ 899 NONAME
 ??0CPictureHolder@@QAE@XZ @ 900 NONAME
 ??0CPngImage@@QAE@XZ @ 901 NONAME
 ??0CPreviewDC@@QAE@XZ @ 902 NONAME
 ??0CPreviewView@@QAE@XZ @ 903 NONAME
 ??0CPreviewViewEx@@IAE@XZ @ 904 NONAME
 ??0CPrintDialog@@IAE@AAUtagPDA@@@Z @ 905 NONAME
 ??0CPrintDialog@@QAE@HKPAVCWnd@@@Z @ 906 NONAME
 ??0CPrintDialogEx@@QAE@KPAVCWnd@@@Z @ 907 NONAME
 ??0CPrintInfo@@QAE@XZ @ 908 NONAME
 ??0CPrintPreviewState@@QAE@XZ @ 909 NONAME
 ??0CPropbagPropExchange@@QAE@PAUIPropertyBag@@PAUIErrorLog@@HH@Z @ 910 NONAME
 ??0CProperty@@QAE@KQAXK@Z @ 911 NONAME
 ??0CProperty@@QAE@XZ @ 912 NONAME
 ??0CPropertyPage@@QAE@IIIIK@Z @ 913 NONAME
 ??0CPropertyPage@@QAE@IIK@Z @ 914 NONAME
 ??0CPropertyPage@@QAE@PBDIIIK@Z @ 915 NONAME
 ??0CPropertyPage@@QAE@PBDIK@Z @ 916 NONAME
 ??0CPropertyPage@@QAE@XZ @ 917 NONAME
 ??0CPropertySection@@QAE@U_GUID@@@Z @ 918 NONAME
 ??0CPropertySection@@QAE@XZ @ 919 NONAME
 ??0CPropertySet@@QAE@U_GUID@@@Z @ 920 NONAME
 ??0CPropertySet@@QAE@XZ @ 921 NONAME
 ??0CPropertySheet@@QAE@IPAVCWnd@@I@Z @ 922 NONAME
 ??0CPropertySheet@@QAE@IPAVCWnd@@IPAUHBITMAP__@@PAUHPALETTE__@@1@Z @ 923 NONAME
 ??0CPropertySheet@@QAE@PBDPAVCWnd@@I@Z @ 924 NONAME
 ??0CPropertySheet@@QAE@PBDPAVCWnd@@IPAUHBITMAP__@@PAUHPALETTE__@@2@Z @ 925 NONAME
 ??0CPropertySheet@@QAE@XZ @ 926 NONAME
 ??0CPropsetPropExchange@@QAE@AAVCPropertySection@@PAUIStorage@@H@Z @ 927 NONAME
 ??0CPtrArray@@QAE@XZ @ 928 NONAME
 ??0CPtrList@@QAE@H@Z @ 929 NONAME
 ??0CReBar@@QAE@XZ @ 930 NONAME
 ??0CRecentDockSiteInfo@@QAE@PAVCPane@@@Z @ 931 NONAME
 ??0CRecentFileList@@QAE@IPBD0HH@Z @ 932 NONAME
 ??0CRecentPaneContainerInfo@@QAE@XZ @ 933 NONAME
 ??0CRecordset@@QAE@PAVCDatabase@@@Z @ 934 NONAME
 ??0CRecordView@@IAE@I@Z @ 935 NONAME
 ??0CRecordView@@IAE@PBD@Z @ 936 NONAME
 ??0CRectTracker@@QAE@PBUtagRECT@@I@Z @ 937 NONAME
 ??0CRenderTarget@@QAE@XZ @ 938 NONAME
 ??0CReObject@@QAE@PAVCRichEditCntrItem@@@Z @ 939 NONAME
 ??0CReObject@@QAE@XZ @ 940 NONAME
 ??0CResetPropExchange@@QAE@XZ @ 941 NONAME
 ??0CRibbonCategoryScroll@@AAE@XZ @ 942 NONAME
 ??0CRichEditCntrItem@@QAE@PAU_reobject@@PAVCRichEditDoc@@@Z @ 943 NONAME
 ??0CRichEditDoc@@IAE@XZ @ 944 NONAME
 ??0CRichEditView@@QAE@XZ @ 945 NONAME
 ??0CScreenWnd@@QAE@XZ @ 946 NONAME
 ??0CScrollView@@IAE@XZ @ 947 NONAME
 ??0CSemaphore@@QAE@JJPBDPAU_SECURITY_ATTRIBUTES@@@Z @ 948 NONAME
 ??0CSettingsStore@@IAE@XZ @ 949 NONAME
 ??0CSettingsStore@@QAE@HH@Z @ 950 NONAME
 ??0CSharedFile@@QAE@II@Z @ 951 NONAME
 ??0CShellManager@@QAE@XZ @ 952 NONAME
 ??0CSingleDocTemplate@@QAE@IPAUCRuntimeClass@@00@Z @ 953 NONAME
 ??0CSingleLock@@QAE@PAVCSyncObject@@H@Z @ 954 NONAME
 ??0CSmartDockingGroupGuide@@QAE@XZ @ 955 NONAME
 ??0CSmartDockingGroupGuidesManager@@QAE@XZ @ 956 NONAME
 ??0CSmartDockingGroupGuidesWnd@@IAE@XZ @ 957 NONAME
 ??0CSmartDockingHighlighterWnd@@QAE@XZ @ 958 NONAME
 ??0CSmartDockingInfo@@QAE@XZ @ 959 NONAME
 ??0CSmartDockingManager@@QAE@XZ @ 960 NONAME
 ??0CSmartDockingStandaloneGuide@@QAE@XZ @ 961 NONAME
 ??0CSmartDockingStandaloneGuideWnd@@QAE@XZ @ 962 NONAME
 ??0CSocket@@QAE@XZ @ 963 NONAME
 ??0CSocketFile@@QAE@PAVCSocket@@H@Z @ 964 NONAME
 ??0CSocketWnd@@QAE@XZ @ 965 NONAME
 ??0CSplitterWnd@@QAE@XZ @ 966 NONAME
 ??0CSplitterWndEx@@QAE@XZ @ 967 NONAME
 ??0CStatusBar@@QAE@XZ @ 968 NONAME
 ??0CStdioFile@@QAE@PAU_iobuf@@@Z @ 969 NONAME
 ??0CStdioFile@@QAE@PAVCAtlTransactionManager@ATL@@@Z @ 970 NONAME
 ??0CStdioFile@@QAE@PBDI@Z @ 971 NONAME
 ??0CStdioFile@@QAE@PBDIPAVCAtlTransactionManager@ATL@@@Z @ 972 NONAME
 ??0CStdioFile@@QAE@XZ @ 973 NONAME
 ??0CStringArray@@QAE@XZ @ 974 NONAME
 ??0CStringList@@QAE@H@Z @ 975 NONAME
 ??0CSyncObject@@QAE@PBD@Z @ 976 NONAME
 ??0CTabbedPane@@QAE@H@Z @ 977 NONAME
 ??0CTabView@@IAE@XZ @ 978 NONAME
 ??0CTagManager@@QAE@PBD@Z @ 979 NONAME
 ??0CTestCmdUI@@QAE@XZ @ 980 NONAME
 ??0CThreadSlotData@@QAE@XZ @ 981 NONAME
 ??0CToolBar@@QAE@XZ @ 982 NONAME
 ??0CToolTipCtrl@@QAE@XZ @ 983 NONAME
 ??0CTooltipManager@@QAE@XZ @ 984 NONAME
 ??0CUIntArray@@QAE@XZ @ 985 NONAME
 ??0CUserTool@@QAE@XZ @ 986 NONAME
 ??0CUserToolsManager@@QAE@IIIPAUCRuntimeClass@@II@Z @ 987 NONAME
 ??0CUserToolsManager@@QAE@XZ @ 988 NONAME
 ??0CView@@IAE@XZ @ 989 NONAME
 ??0CVSListBox@@QAE@XZ @ 990 NONAME
 ??0CVSListBoxBase@@IAE@XZ @ 991 NONAME
 ??0CVSListBoxEditCtrl@@QAE@XZ @ 992 NONAME
 ??0CWinApp@@QAE@PBD@Z @ 993 NONAME
 ??0CWinAppEx@@QAE@H@Z @ 994 NONAME
 ??0CWindowDC@@QAE@PAVCWnd@@@Z @ 995 NONAME
 ??0CWindowlessDC@@QAE@PAUHDC__@@AAVCPoint@@@Z @ 996 NONAME
 ??0CWinThread@@QAE@P6AIPAX@Z0@Z @ 997 NONAME
 ??0CWinThread@@QAE@XZ @ 998 NONAME
 ??0CWnd@@AAE@PAUHWND__@@@Z @ 999 NONAME
 ??0CWnd@@QAE@XZ @ 1000 NONAME
 ??0CWordArray@@QAE@XZ @ 1001 NONAME
 ??0CXMLParserCollection@@IAE@PAUIXMLDOMNodeList@@@Z @ 1002 NONAME
 ??0PAGE_INFO@CPreviewView@@QAE@XZ @ 1003 NONAME
 ??0XBase@CMFCRibbonInfo@@IAE@W4XElementType@1@@Z @ 1004 NONAME
 ??0XCategory@CMFCRibbonInfo@@QAE@XZ @ 1005 NONAME
 ??0XCategoryMain@CMFCRibbonInfo@@QAE@XZ @ 1006 NONAME
 ??0XContext@CMFCRibbonInfo@@QAE@XZ @ 1007 NONAME
 ??0XElement@CMFCRibbonInfo@@IAE@W4XElementType@1@@Z @ 1008 NONAME
 ??0XElementButton@CMFCRibbonInfo@@IAE@W4XElementType@1@@Z @ 1009 NONAME
 ??0XElementButton@CMFCRibbonInfo@@QAE@XZ @ 1010 NONAME
 ??0XElementButtonApplication@CMFCRibbonInfo@@QAE@XZ @ 1011 NONAME
 ??0XElementButtonCheck@CMFCRibbonInfo@@QAE@XZ @ 1012 NONAME
 ??0XElementButtonColor@CMFCRibbonInfo@@QAE@XZ @ 1013 NONAME
 ??0XElementButtonGallery@CMFCRibbonInfo@@IAE@W4XElementType@1@@Z @ 1014 NONAME
 ??0XElementButtonGallery@CMFCRibbonInfo@@QAE@XZ @ 1015 NONAME
 ??0XElementButtonLaunch@CMFCRibbonInfo@@QAE@XZ @ 1016 NONAME
 ??0XElementButtonLinkCtrl@CMFCRibbonInfo@@QAE@XZ @ 1017 NONAME
 ??0XElementButtonMainPanel@CMFCRibbonInfo@@QAE@XZ @ 1018 NONAME
 ??0XElementButtonUndo@CMFCRibbonInfo@@QAE@XZ @ 1019 NONAME
 ??0XElementComboBox@CMFCRibbonInfo@@IAE@W4XElementType@1@@Z @ 1020 NONAME
 ??0XElementComboBox@CMFCRibbonInfo@@QAE@XZ @ 1021 NONAME
 ??0XElementEdit@CMFCRibbonInfo@@IAE@W4XElementType@1@@Z @ 1022 NONAME
 ??0XElementEdit@CMFCRibbonInfo@@QAE@XZ @ 1023 NONAME
 ??0XElementFontComboBox@CMFCRibbonInfo@@QAE@XZ @ 1024 NONAME
 ??0XElementGroup@CMFCRibbonInfo@@QAE@XZ @ 1025 NONAME
 ??0XElementLabel@CMFCRibbonInfo@@QAE@XZ @ 1026 NONAME
 ??0XElementProgressBar@CMFCRibbonInfo@@QAE@XZ @ 1027 NONAME
 ??0XElementSeparator@CMFCRibbonInfo@@QAE@XZ @ 1028 NONAME
 ??0XElementSlider@CMFCRibbonInfo@@QAE@XZ @ 1029 NONAME
 ??0XGalleryGroup@XElementButtonGallery@CMFCRibbonInfo@@QAE@XZ @ 1030 NONAME
 ??0XID@CMFCRibbonInfo@@QAE@XZ @ 1031 NONAME
 ??0XImage@CMFCRibbonInfo@@QAE@XZ @ 1032 NONAME
 ??0XInfoError@CMFCRibbonInfo@@QAE@XZ @ 1033 NONAME
 ??0XPanel@CMFCRibbonInfo@@QAE@XZ @ 1034 NONAME
 ??0XQAT@CMFCRibbonInfo@@QAE@XZ @ 1035 NONAME
 ??0XQATItem@XQAT@CMFCRibbonInfo@@QAE@XZ @ 1036 NONAME
 ??0XRibbonBar@CMFCRibbonInfo@@QAE@XZ @ 1037 NONAME
 ??0XRibbonInfoParser@CMFCRibbonInfo@@IAE@XZ @ 1038 NONAME
 ??0XRibbonInfoParserCollection@CMFCRibbonInfo@@IAE@XZ @ 1039 NONAME
 ??0XRibbonInfoParserRoot@CMFCRibbonInfo@@IAE@XZ @ 1040 NONAME
 ??1?$CSimpleStringT@_W$00@ATL@@QAE@XZ @ 1041 NONAME
 ??1?$CSimpleStringT@D$00@ATL@@QAE@XZ @ 1042 NONAME
 ??1?$CStringT@_WV?$StrTraitMFC_DLL@_WV?$ChTraitsCRT@_W@ATL@@@@@ATL@@QAE@XZ @ 1043 NONAME
 ??1?$CStringT@DV?$StrTraitMFC_DLL@DV?$ChTraitsCRT@D@ATL@@@@@ATL@@QAE@XZ @ 1044 NONAME
 ??1_AFX_D2D_STATE@@UAE@XZ @ 1045 NONAME
 ??1_AFX_DAO_STATE@@UAE@XZ @ 1046 NONAME
 ??1_AFX_THREAD_STATE@@UAE@XZ @ 1047 NONAME
 ??1AFX_GLOBAL_DATA@@QAE@XZ @ 1048 NONAME
 ??1AFX_MAINTAIN_STATE@@QAE@XZ @ 1049 NONAME
 ??1AFX_MAINTAIN_STATE2@@QAE@XZ @ 1050 NONAME
 ??1AFX_MODULE_STATE@@UAE@XZ @ 1051 NONAME
 ??1AFX_MODULE_THREAD_STATE@@UAE@XZ @ 1052 NONAME
 ??1CAnimateCtrl@@UAE@XZ @ 1053 NONAME
 ??1CAnimationBaseObject@@UAE@XZ @ 1054 NONAME
 ??1CAnimationController@@UAE@XZ @ 1055 NONAME
 ??1CAnimationGroup@@QAE@XZ @ 1056 NONAME
 ??1CAnimationVariable@@UAE@XZ @ 1057 NONAME
 ??1CArchive@@QAE@XZ @ 1058 NONAME
 ??1CAsyncMonikerFile@@UAE@XZ @ 1059 NONAME
 ??1CAsyncSocket@@UAE@XZ @ 1060 NONAME
 ??1CAutoHideDockSite@@UAE@XZ @ 1061 NONAME
 ??1CBasePane@@UAE@XZ @ 1062 NONAME
 ??1CBaseTabbedPane@@UAE@XZ @ 1063 NONAME
 ??1CButton@@UAE@XZ @ 1064 NONAME
 ??1CByteArray@@UAE@XZ @ 1065 NONAME
 ??1CClientDC@@UAE@XZ @ 1066 NONAME
 ??1CCmdTarget@@UAE@XZ @ 1067 NONAME
 ??1CComboBox@@UAE@XZ @ 1068 NONAME
 ??1CComboBoxEx@@UAE@XZ @ 1069 NONAME
 ??1CCommandLineInfo@@UAE@XZ @ 1070 NONAME
 ??1CCommandManager@@UAE@XZ @ 1071 NONAME
 ??1CConnectionPoint@@UAE@XZ @ 1072 NONAME
 ??1CContextMenuManager@@UAE@XZ @ 1073 NONAME
 ??1CControlBar@@UAE@XZ @ 1074 NONAME
 ??1CControlSiteFactoryMgr@@UAE@XZ @ 1075 NONAME
 ??1CCtrlView@@UAE@XZ @ 1076 NONAME
 ??1CD2DBitmap@@UAE@XZ @ 1077 NONAME
 ??1CD2DBitmapBrush@@UAE@XZ @ 1078 NONAME
 ??1CD2DBrush@@MAE@XZ @ 1079 NONAME
 ??1CD2DGeometry@@UAE@XZ @ 1080 NONAME
 ??1CD2DGeometrySink@@UAE@XZ @ 1081 NONAME
 ??1CD2DGradientBrush@@UAE@XZ @ 1082 NONAME
 ??1CD2DLayer@@UAE@XZ @ 1083 NONAME
 ??1CD2DLinearGradientBrush@@UAE@XZ @ 1084 NONAME
 ??1CD2DMesh@@UAE@XZ @ 1085 NONAME
 ??1CD2DRadialGradientBrush@@UAE@XZ @ 1086 NONAME
 ??1CD2DResource@@MAE@XZ @ 1087 NONAME
 ??1CD2DSolidColorBrush@@UAE@XZ @ 1088 NONAME
 ??1CD2DTextFormat@@UAE@XZ @ 1089 NONAME
 ??1CD2DTextLayout@@UAE@XZ @ 1090 NONAME
 ??1CDaoDatabase@@UAE@XZ @ 1091 NONAME
 ??1CDaoException@@UAE@XZ @ 1092 NONAME
 ??1CDaoIndexInfo@@UAE@XZ @ 1093 NONAME
 ??1CDaoQueryDef@@UAE@XZ @ 1094 NONAME
 ??1CDaoRecordset@@UAE@XZ @ 1095 NONAME
 ??1CDaoRecordView@@UAE@XZ @ 1096 NONAME
 ??1CDaoRelationInfo@@UAE@XZ @ 1097 NONAME
 ??1CDaoTableDef@@UAE@XZ @ 1098 NONAME
 ??1CDaoWorkspace@@UAE@XZ @ 1099 NONAME
 ??1CDatabase@@UAE@XZ @ 1100 NONAME
 ??1CDataRecoveryHandler@@UAE@XZ @ 1101 NONAME
 ??1CDateTimeCtrl@@UAE@XZ @ 1103 NONAME
 ??1CDBException@@UAE@XZ @ 1104 NONAME
 ??1CDBVariant@@UAE@XZ @ 1105 NONAME
 ??1CDC@@UAE@XZ @ 1106 NONAME
 ??1CDHtmlControlSink@@UAE@XZ @ 1107 NONAME
 ??1CDHtmlDialog@@UAE@XZ @ 1108 NONAME
 ??1CDialog@@UAE@XZ @ 1109 NONAME
 ??1CDialogBar@@UAE@XZ @ 1110 NONAME
 ??1CDialogImpl@@MAE@XZ @ 1111 NONAME
 ??1CDialogTemplate@@QAE@XZ @ 1112 NONAME
 ??1CDocItem@@UAE@XZ @ 1113 NONAME
 ??1CDockablePane@@UAE@XZ @ 1114 NONAME
 ??1CDockablePaneAdapter@@UAE@XZ @ 1115 NONAME
 ??1CDockBar@@UAE@XZ @ 1116 NONAME
 ??1CDockContext@@UAE@XZ @ 1117 NONAME
 ??1CDockingManager@@UAE@XZ @ 1118 NONAME
 ??1CDockingPanesRow@@UAE@XZ @ 1119 NONAME
 ??1CDockSite@@UAE@XZ @ 1120 NONAME
 ??1CDockState@@UAE@XZ @ 1121 NONAME
 ??1CDocManager@@UAE@XZ @ 1122 NONAME
 ??1CDocObjectServer@@UAE@XZ @ 1123 NONAME
 ??1CDocObjectServerItem@@UAE@XZ @ 1124 NONAME
 ??1CDocTemplate@@UAE@XZ @ 1125 NONAME
 ??1CDocument@@UAE@XZ @ 1126 NONAME
 ??1CDragListBox@@UAE@XZ @ 1127 NONAME
 ??1CDrawingManager@@UAE@XZ @ 1128 NONAME
 ??1CDWordArray@@UAE@XZ @ 1129 NONAME
 ??1CDynLinkLibrary@@UAE@XZ @ 1130 NONAME
 ??1CEdit@@UAE@XZ @ 1131 NONAME
 ??1CEditView@@UAE@XZ @ 1132 NONAME
 ??1CEnumArray@@UAE@XZ @ 1133 NONAME
 ??1CEnumConnections@@UAE@XZ @ 1134 NONAME
 ??1CEnumConnPoints@@UAE@XZ @ 1135 NONAME
 ??1CEnumFormatEtc@@UAE@XZ @ 1136 NONAME
 ??1CEnumOleVerb@@UAE@XZ @ 1137 NONAME
 ??1CEnumUnknown@@UAE@XZ @ 1138 NONAME
 ??1CEvent@@UAE@XZ @ 1139 NONAME
 ??1CFile@@UAE@XZ @ 1140 NONAME
 ??1CFileDialog@@UAE@XZ @ 1141 NONAME
 ??1CFileFind@@UAE@XZ @ 1142 NONAME
 ??1CFixedAlloc@@QAE@XZ @ 1143 NONAME
 ??1CFixedAllocNoSync@@QAE@XZ @ 1144 NONAME
 ??1CFolderPickerDialog@@UAE@XZ @ 1145 NONAME
 ??1CFontHolder@@QAE@XZ @ 1146 NONAME
 ??1CFormView@@UAE@XZ @ 1147 NONAME
 ??1CFrameImpl@@UAE@XZ @ 1148 NONAME
 ??1CFrameWnd@@UAE@XZ @ 1149 NONAME
 ??1CFrameWndEx@@MAE@XZ @ 1150 NONAME
 ??1CFtpConnection@@UAE@XZ @ 1151 NONAME
 ??1CFtpFileFind@@UAE@XZ @ 1152 NONAME
 ??1CFullScreenImpl@@UAE@XZ @ 1153 NONAME
 ??1CGestureConfig@@UAE@XZ @ 1154 NONAME
 ??1CGlobalUtils@@UAE@XZ @ 1155 NONAME
 ??1CGopherConnection@@UAE@XZ @ 1156 NONAME
 ??1CGopherFile@@UAE@XZ @ 1157 NONAME
 ??1CGopherFileFind@@UAE@XZ @ 1158 NONAME
 ??1CGopherLocator@@UAE@XZ @ 1159 NONAME
 ??1CHeaderCtrl@@UAE@XZ @ 1160 NONAME
 ??1CHotKeyCtrl@@UAE@XZ @ 1161 NONAME
 ??1CHtmlControlSite@@UAE@XZ @ 1162 NONAME
 ??1CHtmlEditCtrl@@UAE@XZ @ 1163 NONAME
 ??1CHtmlEditDoc@@UAE@XZ @ 1164 NONAME
 ??1CHtmlEditView@@UAE@XZ @ 1165 NONAME
 ??1CHtmlView@@UAE@XZ @ 1166 NONAME
 ??1CHttpConnection@@UAE@XZ @ 1167 NONAME
 ??1CHttpFile@@UAE@XZ @ 1168 NONAME
 ??1CImageList@@UAE@XZ @ 1169 NONAME
 ??1CInternetConnection@@UAE@XZ @ 1170 NONAME
 ??1CInternetException@@UAE@XZ @ 1171 NONAME
 ??1CInternetFile@@UAE@XZ @ 1172 NONAME
 ??1CInternetSession@@UAE@XZ @ 1173 NONAME
 ??1CIPAddressCtrl@@UAE@XZ @ 1174 NONAME
 ??1CJumpList@@QAE@XZ @ 1175 NONAME
 ??1CKeyboardManager@@UAE@XZ @ 1176 NONAME
 ??1CListBox@@UAE@XZ @ 1177 NONAME
 ??1CListCtrl@@UAE@XZ @ 1178 NONAME
 ??1CLongBinary@@UAE@XZ @ 1179 NONAME
 ??1CMapPtrToPtr@@UAE@XZ @ 1180 NONAME
 ??1CMapPtrToWord@@UAE@XZ @ 1181 NONAME
 ??1CMapStringToOb@@UAE@XZ @ 1182 NONAME
 ??1CMapStringToPtr@@UAE@XZ @ 1183 NONAME
 ??1CMapStringToString@@UAE@XZ @ 1184 NONAME
 ??1CMapWordToOb@@UAE@XZ @ 1185 NONAME
 ??1CMapWordToPtr@@UAE@XZ @ 1186 NONAME
 ??1CMDIChildWndEx@@MAE@XZ @ 1187 NONAME
 ??1CMDIClientAreaWnd@@UAE@XZ @ 1188 NONAME
 ??1CMDIFrameWndEx@@MAE@XZ @ 1189 NONAME
 ??1CMDITabProxyWnd@@UAE@XZ @ 1190 NONAME
 ??1CMemDC@@UAE@XZ @ 1191 NONAME
 ??1CMemFile@@UAE@XZ @ 1192 NONAME
 ??1CMenuHash@@UAE@XZ @ 1193 NONAME
 ??1CMenuTearOffManager@@UAE@XZ @ 1194 NONAME
 ??1CMetaFileDC@@UAE@XZ @ 1195 NONAME
 ??1CMFCAcceleratorKey@@UAE@XZ @ 1196 NONAME
 ??1CMFCAcceleratorKeyAssignCtrl@@UAE@XZ @ 1197 NONAME
 ??1CMFCAutoHideBar@@UAE@XZ @ 1198 NONAME
 ??1CMFCAutoHideButton@@UAE@XZ @ 1199 NONAME
 ??1CMFCBaseAccessibleObject@@UAE@XZ @ 1200 NONAME
 ??1CMFCBaseTabCtrl@@UAE@XZ @ 1201 NONAME
 ??1CMFCBaseToolBar@@UAE@XZ @ 1202 NONAME
 ??1CMFCBaseVisualManager@@UAE@XZ @ 1203 NONAME
 ??1CMFCButton@@UAE@XZ @ 1204 NONAME
 ??1CMFCCaptionBar@@UAE@XZ @ 1205 NONAME
 ??1CMFCCaptionButton@@UAE@XZ @ 1206 NONAME
 ??1CMFCCaptionButtonEx@@UAE@XZ @ 1207 NONAME
 ??1CMFCCaptionMenuButton@@UAE@XZ @ 1208 NONAME
 ??1CMFCCmdUsageCount@@UAE@XZ @ 1209 NONAME
 ??1CMFCColorBar@@UAE@XZ @ 1210 NONAME
 ??1CMFCColorButton@@UAE@XZ @ 1211 NONAME
 ??1CMFCColorDialog@@UAE@XZ @ 1212 NONAME
 ??1CMFCColorMenuButton@@UAE@XZ @ 1213 NONAME
 ??1CMFCColorPickerCtrl@@UAE@XZ @ 1214 NONAME
 ??1CMFCColorPopupMenu@@UAE@XZ @ 1215 NONAME
 ??1CMFCColorPropertySheet@@UAE@XZ @ 1216 NONAME
 ??1CMFCControlBarImpl@@UAE@XZ @ 1217 NONAME
 ??1CMFCControlContainer@@UAE@XZ @ 1218 NONAME
 ??1CMFCControlRenderer@@UAE@XZ @ 1219 NONAME
 ??1CMFCControlRendererInfo@@QAE@XZ @ 1220 NONAME
 ??1CMFCCustomizeButton@@UAE@XZ @ 1221 NONAME
 ??1CMFCCustomizeMenuButton@@UAE@XZ @ 1222 NONAME
 ??1CMFCDesktopAlertDialog@@UAE@XZ @ 1223 NONAME
 ??1CMFCDesktopAlertWnd@@UAE@XZ @ 1224 NONAME
 ??1CMFCDragFrameImpl@@UAE@XZ @ 1225 NONAME
 ??1CMFCDropDownFrame@@UAE@XZ @ 1226 NONAME
 ??1CMFCDropDownListBox@@UAE@XZ @ 1227 NONAME
 ??1CMFCDropDownToolbarButton@@UAE@XZ @ 1228 NONAME
 ??1CMFCEditBrowseCtrl@@UAE@XZ @ 1229 NONAME
 ??1CMFCFilterChunkValueImpl@@UAE@XZ @ 1230 NONAME
 ??1CMFCFontComboBox@@UAE@XZ @ 1231 NONAME
 ??1CMFCHeaderCtrl@@UAE@XZ @ 1232 NONAME
 ??1CMFCImagePaintArea@@UAE@XZ @ 1233 NONAME
 ??1CMFCKeyMapDialog@@UAE@XZ @ 1234 NONAME
 ??1CMFCLinkCtrl@@UAE@XZ @ 1235 NONAME
 ??1CMFCListCtrl@@UAE@XZ @ 1236 NONAME
 ??1CMFCMaskedEdit@@UAE@XZ @ 1237 NONAME
 ??1CMFCMenuBar@@UAE@XZ @ 1238 NONAME
 ??1CMFCMenuButton@@UAE@XZ @ 1239 NONAME
 ??1CMFCMousePropertyPage@@UAE@XZ @ 1240 NONAME
 ??1CMFCOutlookBar@@UAE@XZ @ 1241 NONAME
 ??1CMFCOutlookBarPane@@UAE@XZ @ 1242 NONAME
 ??1CMFCOutlookBarPaneAdapter@@UAE@XZ @ 1243 NONAME
 ??1CMFCOutlookBarPaneButton@@UAE@XZ @ 1244 NONAME
 ??1CMFCOutlookBarTabCtrl@@UAE@XZ @ 1245 NONAME
 ??1CMFCPopupMenu@@UAE@XZ @ 1246 NONAME
 ??1CMFCPopupMenuBar@@UAE@XZ @ 1247 NONAME
 ??1CMFCPreviewCtrlImpl@@UAE@XZ @ 1248 NONAME
 ??1CMFCPropertyGridColorProperty@@UAE@XZ @ 1249 NONAME
 ??1CMFCPropertyGridCtrl@@UAE@XZ @ 1250 NONAME
 ??1CMFCPropertyGridFileProperty@@UAE@XZ @ 1251 NONAME
 ??1CMFCPropertyGridFontProperty@@UAE@XZ @ 1252 NONAME
 ??1CMFCPropertyGridProperty@@UAE@XZ @ 1253 NONAME
 ??1CMFCPropertyGridToolTipCtrl@@UAE@XZ @ 1254 NONAME
 ??1CMFCPropertyPage@@UAE@XZ @ 1255 NONAME
 ??1CMFCPropertySheet@@UAE@XZ @ 1256 NONAME
 ??1CMFCPropertySheetCategoryInfo@@UAE@XZ @ 1257 NONAME
 ??1CMFCRibbonBar@@UAE@XZ @ 1258 NONAME
 ??1CMFCRibbonBaseElement@@UAE@XZ @ 1259 NONAME
 ??1CMFCRibbonButton@@UAE@XZ @ 1260 NONAME
 ??1CMFCRibbonButtonsGroup@@UAE@XZ @ 1261 NONAME
 ??1CMFCRibbonCategory@@UAE@XZ @ 1262 NONAME
 ??1CMFCRibbonCheckBox@@UAE@XZ @ 1263 NONAME
 ??1CMFCRibbonCollector@@UAE@XZ @ 1264 NONAME
 ??1CMFCRibbonColorButton@@UAE@XZ @ 1265 NONAME
 ??1CMFCRibbonComboBox@@UAE@XZ @ 1266 NONAME
 ??1CMFCRibbonCommandsListBox@@UAE@XZ @ 1267 NONAME
 ??1CMFCRibbonConstructor@@UAE@XZ @ 1268 NONAME
 ??1CMFCRibbonCustomizeDialog@@UAE@XZ @ 1269 NONAME
 ??1CMFCRibbonCustomizePropertyPage@@UAE@XZ @ 1270 NONAME
 ??1CMFCRibbonEdit@@UAE@XZ @ 1271 NONAME
 ??1CMFCRibbonFontComboBox@@UAE@XZ @ 1272 NONAME
 ??1CMFCRibbonGallery@@UAE@XZ @ 1273 NONAME
 ??1CMFCRibbonGalleryMenuButton@@UAE@XZ @ 1274 NONAME
 ??1CMFCRibbonInfo@@UAE@XZ @ 1275 NONAME
 ??1CMFCRibbonInfoLoader@@UAE@XZ @ 1276 NONAME
 ??1CMFCRibbonKeyboardCustomizeDialog@@UAE@XZ @ 1277 NONAME
 ??1CMFCRibbonKeyTip@@UAE@XZ @ 1278 NONAME
 ??1CMFCRibbonLabel@@UAE@XZ @ 1279 NONAME
 ??1CMFCRibbonLinkCtrl@@UAE@XZ @ 1280 NONAME
 ??1CMFCRibbonMainPanel@@UAE@XZ @ 1281 NONAME
 ??1CMFCRibbonMainPanelButton@@UAE@XZ @ 1282 NONAME
 ??1CMFCRibbonMiniToolBar@@UAE@XZ @ 1283 NONAME
 ??1CMFCRibbonPanel@@UAE@XZ @ 1284 NONAME
 ??1CMFCRibbonPanelMenu@@UAE@XZ @ 1285 NONAME
 ??1CMFCRibbonPanelMenuBar@@UAE@XZ @ 1286 NONAME
 ??1CMFCRibbonProgressBar@@UAE@XZ @ 1287 NONAME
 ??1CMFCRibbonQuickAccessToolBar@@UAE@XZ @ 1288 NONAME
 ??1CMFCRibbonRichEditCtrl@@UAE@XZ @ 1289 NONAME
 ??1CMFCRibbonSlider@@UAE@XZ @ 1290 NONAME
 ??1CMFCRibbonStatusBar@@UAE@XZ @ 1291 NONAME
 ??1CMFCRibbonStatusBarPane@@UAE@XZ @ 1292 NONAME
 ??1CMFCRibbonTabsGroup@@UAE@XZ @ 1293 NONAME
 ??1CMFCRibbonUndoButton@@UAE@XZ @ 1294 NONAME
 ??1CMFCShadowRenderer@@UAE@XZ @ 1295 NONAME
 ??1CMFCShellListCtrl@@UAE@XZ @ 1296 NONAME
 ??1CMFCShellTreeCtrl@@UAE@XZ @ 1297 NONAME
 ??1CMFCShowAllButton@@UAE@XZ @ 1298 NONAME
 ??1CMFCSpinButtonCtrl@@UAE@XZ @ 1299 NONAME
 ??1CMFCStatusBar@@UAE@XZ @ 1300 NONAME
 ??1CMFCTabCtrl@@UAE@XZ @ 1301 NONAME
 ??1CMFCTasksPane@@UAE@XZ @ 1302 NONAME
 ??1CMFCTasksPaneFrameWnd@@UAE@XZ @ 1303 NONAME
 ??1CMFCToolBar@@UAE@XZ @ 1304 NONAME
 ??1CMFCToolBarButton@@UAE@XZ @ 1305 NONAME
 ??1CMFCToolBarButtonCustomizeDialog@@UAE@XZ @ 1306 NONAME
 ??1CMFCToolBarButtonsListButton@@UAE@XZ @ 1307 NONAME
 ??1CMFCToolBarComboBoxButton@@UAE@XZ @ 1308 NONAME
 ??1CMFCToolBarComboBoxEdit@@UAE@XZ @ 1309 NONAME
 ??1CMFCToolBarDateTimeCtrl@@UAE@XZ @ 1310 NONAME
 ??1CMFCToolBarDropSource@@UAE@XZ @ 1311 NONAME
 ??1CMFCToolBarDropTarget@@UAE@XZ @ 1312 NONAME
 ??1CMFCToolBarEditBoxButton@@UAE@XZ @ 1313 NONAME
 ??1CMFCToolBarEditCtrl@@UAE@XZ @ 1314 NONAME
 ??1CMFCToolBarFontComboBox@@UAE@XZ @ 1315 NONAME
 ??1CMFCToolBarFontSizeComboBox@@UAE@XZ @ 1316 NONAME
 ??1CMFCToolBarImages@@UAE@XZ @ 1317 NONAME
 ??1CMFCToolBarMenuButton@@UAE@XZ @ 1318 NONAME
 ??1CMFCToolBarMenuButtonsButton@@UAE@XZ @ 1319 NONAME
 ??1CMFCToolBarsCommandsListBox@@UAE@XZ @ 1320 NONAME
 ??1CMFCToolBarsCommandsPropertyPage@@UAE@XZ @ 1321 NONAME
 ??1CMFCToolBarsCustomizeDialog@@UAE@XZ @ 1322 NONAME
 ??1CMFCToolBarsKeyboardPropertyPage@@UAE@XZ @ 1323 NONAME
 ??1CMFCToolBarsListCheckBox@@UAE@XZ @ 1324 NONAME
 ??1CMFCToolBarsListPropertyPage@@UAE@XZ @ 1325 NONAME
 ??1CMFCToolBarsMenuPropertyPage@@UAE@XZ @ 1326 NONAME
 ??1CMFCToolBarsOptionsPropertyPage@@UAE@XZ @ 1327 NONAME
 ??1CMFCToolBarSpinEditBoxButton@@UAE@XZ @ 1328 NONAME
 ??1CMFCToolBarsToolsPropertyPage@@UAE@XZ @ 1329 NONAME
 ??1CMFCToolBarSystemMenuButton@@UAE@XZ @ 1330 NONAME
 ??1CMFCToolTipCtrl@@UAE@XZ @ 1331 NONAME
 ??1CMFCVisualManager@@UAE@XZ @ 1332 NONAME
 ??1CMFCVisualManagerBitmapCache@@UAE@XZ @ 1333 NONAME
 ??1CMFCVisualManagerBitmapCacheItem@CMFCVisualManagerBitmapCache@@UAE@XZ @ 1334 NONAME
 ??1CMFCVisualManagerOffice2003@@UAE@XZ @ 1335 NONAME
 ??1CMFCVisualManagerOffice2007@@MAE@XZ @ 1336 NONAME
 ??1CMFCVisualManagerOfficeXP@@UAE@XZ @ 1337 NONAME
 ??1CMFCVisualManagerVS2005@@UAE@XZ @ 1338 NONAME
 ??1CMFCVisualManagerVS2008@@UAE@XZ @ 1339 NONAME
 ??1CMFCVisualManagerWindows@@UAE@XZ @ 1340 NONAME
 ??1CMFCVisualManagerWindows7@@UAE@XZ @ 1341 NONAME
 ??1CMFCZoomKernel@@UAE@XZ @ 1342 NONAME
 ??1CMiniFrameWnd@@UAE@XZ @ 1343 NONAME
 ??1CMonikerFile@@UAE@XZ @ 1344 NONAME
 ??1CMonthCalCtrl@@UAE@XZ @ 1345 NONAME
 ??1CMouseManager@@UAE@XZ @ 1346 NONAME
 ??1CMultiDocTemplate@@UAE@XZ @ 1347 NONAME
 ??1CMultiLock@@QAE@XZ @ 1348 NONAME
 ??1CMultiPageDHtmlDialog@@UAE@XZ @ 1349 NONAME
 ??1CMultiPaneFrameWnd@@UAE@XZ @ 1350 NONAME
 ??1CMutex@@UAE@XZ @ 1351 NONAME
 ??1CObArray@@UAE@XZ @ 1352 NONAME
 ??1CObList@@UAE@XZ @ 1353 NONAME
 ??1COleBusyDialog@@UAE@XZ @ 1354 NONAME
 ??1COleChangeIconDialog@@UAE@XZ @ 1355 NONAME
 ??1COleChangeSourceDialog@@UAE@XZ @ 1356 NONAME
 ??1COleClientItem@@UAE@XZ @ 1357 NONAME
 ??1COleCntrFrameWnd@@UAE@XZ @ 1358 NONAME
 ??1COleCntrFrameWndEx@@MAE@XZ @ 1359 NONAME
 ??1COleControl@@UAE@XZ @ 1360 NONAME
 ??1COleControlContainer@@UAE@XZ @ 1361 NONAME
 ??1COleControlLock@@UAE@XZ @ 1362 NONAME
 ??1COleControlSite@@UAE@XZ @ 1363 NONAME
 ??1COleControlSiteOrWnd@@QAE@XZ @ 1364 NONAME
 ??1COleConvertDialog@@UAE@XZ @ 1365 NONAME
 ??1COleDataSource@@UAE@XZ @ 1366 NONAME
 ??1COleDispatchException@@UAE@XZ @ 1367 NONAME
 ??1COleDocIPFrameWnd@@UAE@XZ @ 1368 NONAME
 ??1COleDocIPFrameWndEx@@MAE@XZ @ 1369 NONAME
 ??1COleDocObjectItem@@UAE@XZ @ 1370 NONAME
 ??1COleDocument@@UAE@XZ @ 1371 NONAME
 ??1COleDropTarget@@UAE@XZ @ 1372 NONAME
 ??1COleFrameHook@@UAE@XZ @ 1373 NONAME
 ??1COleInsertDialog@@UAE@XZ @ 1374 NONAME
 ??1COleIPFrameWnd@@UAE@XZ @ 1375 NONAME
 ??1COleIPFrameWndEx@@MAE@XZ @ 1376 NONAME
 ??1COleLinkingDoc@@UAE@XZ @ 1377 NONAME
 ??1COleLinksDialog@@UAE@XZ @ 1378 NONAME
 ??1COleMessageFilter@@UAE@XZ @ 1379 NONAME
 ??1COleObjectFactory@@UAE@XZ @ 1380 NONAME
 ??1COlePasteSpecialDialog@@UAE@XZ @ 1381 NONAME
 ??1COlePropertyPage@@UAE@XZ @ 1382 NONAME
 ??1COleResizeBar@@UAE@XZ @ 1383 NONAME
 ??1COleServerDoc@@UAE@XZ @ 1384 NONAME
 ??1COleServerDocEx@@UAE@XZ @ 1385 NONAME
 ??1COleServerItem@@UAE@XZ @ 1386 NONAME
 ??1COleStreamFile@@UAE@XZ @ 1387 NONAME
 ??1COleUpdateDialog@@UAE@XZ @ 1388 NONAME
 ??1CPaintDC@@UAE@XZ @ 1389 NONAME
 ??1CPane@@UAE@XZ @ 1390 NONAME
 ??1CPaneContainer@@UAE@XZ @ 1391 NONAME
 ??1CPaneContainerManager@@UAE@XZ @ 1392 NONAME
 ??1CPaneDialog@@UAE@XZ @ 1393 NONAME
 ??1CPaneDivider@@UAE@XZ @ 1394 NONAME
 ??1CPaneFrameWnd@@UAE@XZ @ 1395 NONAME
 ??1CPictureHolder@@QAE@XZ @ 1396 NONAME
 ??1CPngImage@@UAE@XZ @ 1397 NONAME
 ??1CPreviewDC@@UAE@XZ @ 1398 NONAME
 ??1CPreviewView@@UAE@XZ @ 1399 NONAME
 ??1CPreviewViewEx@@MAE@XZ @ 1400 NONAME
 ??1CPrintInfo@@QAE@XZ @ 1401 NONAME
 ??1CProcessLocalObject@@QAE@XZ @ 1402 NONAME
 ??1CProgressCtrl@@UAE@XZ @ 1403 NONAME
 ??1CPropbagPropExchange@@UAE@XZ @ 1404 NONAME
 ??1CProperty@@QAE@XZ @ 1405 NONAME
 ??1CPropertyPage@@UAE@XZ @ 1406 NONAME
 ??1CPropertySection@@QAE@XZ @ 1407 NONAME
 ??1CPropertySet@@QAE@XZ @ 1408 NONAME
 ??1CPropertySheet@@UAE@XZ @ 1409 NONAME
 ??1CPtrArray@@UAE@XZ @ 1410 NONAME
 ??1CPtrList@@UAE@XZ @ 1411 NONAME
 ??1CReBarCtrl@@UAE@XZ @ 1412 NONAME
 ??1CRecentDockSiteInfo@@UAE@XZ @ 1413 NONAME
 ??1CRecentFileList@@UAE@XZ @ 1414 NONAME
 ??1CRecentPaneContainerInfo@@UAE@XZ @ 1415 NONAME
 ??1CRecordset@@UAE@XZ @ 1416 NONAME
 ??1CRecordView@@UAE@XZ @ 1417 NONAME
 ??1CRectTracker@@UAE@XZ @ 1418 NONAME
 ??1CRenderTarget@@UAE@XZ @ 1419 NONAME
 ??1CReObject@@QAE@XZ @ 1420 NONAME
 ??1CRichEditCntrItem@@UAE@XZ @ 1421 NONAME
 ??1CRichEditCtrl@@UAE@XZ @ 1422 NONAME
 ??1CScreenWnd@@UAE@XZ @ 1423 NONAME
 ??1CScrollBar@@UAE@XZ @ 1424 NONAME
 ??1CScrollView@@UAE@XZ @ 1425 NONAME
 ??1CSemaphore@@UAE@XZ @ 1426 NONAME
 ??1CSettingsStore@@UAE@XZ @ 1427 NONAME
 ??1CSharedFile@@UAE@XZ @ 1428 NONAME
 ??1CShellManager@@UAE@XZ @ 1429 NONAME
 ??1CSingleDocTemplate@@UAE@XZ @ 1430 NONAME
 ??1CSliderCtrl@@UAE@XZ @ 1431 NONAME
 ??1CSmartDockingGroupGuide@@UAE@XZ @ 1432 NONAME
 ??1CSmartDockingGroupGuidesManager@@UAE@XZ @ 1433 NONAME
 ??1CSmartDockingHighlighterWnd@@UAE@XZ @ 1434 NONAME
 ??1CSmartDockingManager@@UAE@XZ @ 1435 NONAME
 ??1CSmartDockingStandaloneGuide@@UAE@XZ @ 1436 NONAME
 ??1CSmartDockingStandaloneGuideWnd@@UAE@XZ @ 1437 NONAME
 ??1CSocket@@UAE@XZ @ 1438 NONAME
 ??1CSocketFile@@UAE@XZ @ 1439 NONAME
 ??1CSpinButtonCtrl@@UAE@XZ @ 1440 NONAME
 ??1CSplitterWnd@@UAE@XZ @ 1441 NONAME
 ??1CSplitterWndEx@@UAE@XZ @ 1442 NONAME
 ??1CStatic@@UAE@XZ @ 1443 NONAME
 ??1CStatusBar@@UAE@XZ @ 1444 NONAME
 ??1CStatusBarCtrl@@UAE@XZ @ 1445 NONAME
 ??1CStdioFile@@UAE@XZ @ 1446 NONAME
 ??1CStringArray@@UAE@XZ @ 1447 NONAME
 ??1CStringList@@UAE@XZ @ 1448 NONAME
 ??1CSyncObject@@UAE@XZ @ 1449 NONAME
 ??1CTabbedPane@@UAE@XZ @ 1450 NONAME
 ??1CTabCtrl@@UAE@XZ @ 1451 NONAME
 ??1CTabView@@MAE@XZ @ 1452 NONAME
 ??1CTagManager@@UAE@XZ @ 1453 NONAME
 ??1CThreadLocalObject@@QAE@XZ @ 1454 NONAME
 ??1CThreadSlotData@@QAE@XZ @ 1455 NONAME
 ??1CToolBar@@UAE@XZ @ 1456 NONAME
 ??1CToolBarCtrl@@UAE@XZ @ 1457 NONAME
 ??1CToolTipCtrl@@UAE@XZ @ 1458 NONAME
 ??1CTooltipManager@@UAE@XZ @ 1459 NONAME
 ??1CTreeCtrl@@UAE@XZ @ 1460 NONAME
 ??1CUIntArray@@UAE@XZ @ 1461 NONAME
 ??1CUserTool@@UAE@XZ @ 1462 NONAME
 ??1CUserToolsManager@@UAE@XZ @ 1463 NONAME
 ??1CView@@UAE@XZ @ 1464 NONAME
 ??1CVSListBox@@UAE@XZ @ 1465 NONAME
 ??1CVSListBoxBase@@UAE@XZ @ 1466 NONAME
 ??1CVSListBoxEditCtrl@@UAE@XZ @ 1467 NONAME
 ??1CWinApp@@UAE@XZ @ 1468 NONAME
 ??1CWinAppEx@@UAE@XZ @ 1469 NONAME
 ??1CWindowDC@@UAE@XZ @ 1470 NONAME
 ??1CWinThread@@UAE@XZ @ 1471 NONAME
 ??1CWnd@@UAE@XZ @ 1472 NONAME
 ??1CWordArray@@UAE@XZ @ 1473 NONAME
 ??1XBase@CMFCRibbonInfo@@UAE@XZ @ 1474 NONAME
 ??1XCategory@CMFCRibbonInfo@@UAE@XZ @ 1475 NONAME
 ??1XCategoryMain@CMFCRibbonInfo@@UAE@XZ @ 1476 NONAME
 ??1XContext@CMFCRibbonInfo@@UAE@XZ @ 1477 NONAME
 ??1XElement@CMFCRibbonInfo@@UAE@XZ @ 1478 NONAME
 ??1XElementButton@CMFCRibbonInfo@@UAE@XZ @ 1479 NONAME
 ??1XElementButtonApplication@CMFCRibbonInfo@@UAE@XZ @ 1480 NONAME
 ??1XElementButtonCheck@CMFCRibbonInfo@@UAE@XZ @ 1481 NONAME
 ??1XElementButtonColor@CMFCRibbonInfo@@UAE@XZ @ 1482 NONAME
 ??1XElementButtonGallery@CMFCRibbonInfo@@UAE@XZ @ 1483 NONAME
 ??1XElementButtonLaunch@CMFCRibbonInfo@@UAE@XZ @ 1484 NONAME
 ??1XElementButtonLinkCtrl@CMFCRibbonInfo@@UAE@XZ @ 1485 NONAME
 ??1XElementButtonMainPanel@CMFCRibbonInfo@@UAE@XZ @ 1486 NONAME
 ??1XElementButtonUndo@CMFCRibbonInfo@@UAE@XZ @ 1487 NONAME
 ??1XElementComboBox@CMFCRibbonInfo@@UAE@XZ @ 1488 NONAME
 ??1XElementEdit@CMFCRibbonInfo@@UAE@XZ @ 1489 NONAME
 ??1XElementFontComboBox@CMFCRibbonInfo@@UAE@XZ @ 1490 NONAME
 ??1XElementGroup@CMFCRibbonInfo@@UAE@XZ @ 1491 NONAME
 ??1XElementLabel@CMFCRibbonInfo@@UAE@XZ @ 1492 NONAME
 ??1XElementProgressBar@CMFCRibbonInfo@@UAE@XZ @ 1493 NONAME
 ??1XElementSeparator@CMFCRibbonInfo@@UAE@XZ @ 1494 NONAME
 ??1XElementSlider@CMFCRibbonInfo@@UAE@XZ @ 1495 NONAME
 ??1XGalleryGroup@XElementButtonGallery@CMFCRibbonInfo@@QAE@XZ @ 1496 NONAME
 ??1XID@CMFCRibbonInfo@@QAE@XZ @ 1497 NONAME
 ??1XImage@CMFCRibbonInfo@@QAE@XZ @ 1498 NONAME
 ??1XInfoError@CMFCRibbonInfo@@QAE@XZ @ 1499 NONAME
 ??1XPanel@CMFCRibbonInfo@@UAE@XZ @ 1500 NONAME
 ??1XQAT@CMFCRibbonInfo@@UAE@XZ @ 1501 NONAME
 ??1XQATItem@XQAT@CMFCRibbonInfo@@QAE@XZ @ 1502 NONAME
 ??1XRibbonBar@CMFCRibbonInfo@@UAE@XZ @ 1503 NONAME
 ??1XRibbonInfoParser@CMFCRibbonInfo@@UAE@XZ @ 1504 NONAME
 ??1XRibbonInfoParserCollection@CMFCRibbonInfo@@UAE@XZ @ 1505 NONAME
 ??1XRibbonInfoParserRoot@CMFCRibbonInfo@@UAE@XZ @ 1506 NONAME
 ??2@YAPAXI@Z @ 1507 NONAME
 ??2CNoTrackObject@@SGPAXI@Z @ 1508 NONAME
 ??3@YAXPAX@Z @ 1509 NONAME
 ??3CNoTrackObject@@SGXPAX@Z @ 1510 NONAME
 ??4?$CSimpleStringT@_W$00@ATL@@QAEAAV01@ABV?$CSimpleStringT@_W$0A@@1@@Z @ 1511 NONAME
 ??4?$CSimpleStringT@_W$00@ATL@@QAEAAV01@ABV01@@Z @ 1512 NONAME
 ??4?$CSimpleStringT@_W$00@ATL@@QAEAAV01@PB_W@Z @ 1513 NONAME
 ??4?$CSimpleStringT@D$00@ATL@@QAEAAV01@ABV?$CSimpleStringT@D$0A@@1@@Z @ 1514 NONAME
 ??4?$CSimpleStringT@D$00@ATL@@QAEAAV01@ABV01@@Z @ 1515 NONAME
 ??4?$CSimpleStringT@D$00@ATL@@QAEAAV01@PBD@Z @ 1516 NONAME
 ??4?$CStringT@_WV?$StrTraitMFC_DLL@_WV?$ChTraitsCRT@_W@ATL@@@@@ATL@@QAEAAV01@_W@Z @ 1517 NONAME
 ??4?$CStringT@_WV?$StrTraitMFC_DLL@_WV?$ChTraitsCRT@_W@ATL@@@@@ATL@@QAEAAV01@ABUtagVARIANT@@@Z @ 1518 NONAME
 ??4?$CStringT@_WV?$StrTraitMFC_DLL@_WV?$ChTraitsCRT@_W@ATL@@@@@ATL@@QAEAAV01@ABV01@@Z @ 1519 NONAME
 ??4?$CStringT@_WV?$StrTraitMFC_DLL@_WV?$ChTraitsCRT@_W@ATL@@@@@ATL@@QAEAAV01@D@Z @ 1520 NONAME
 ??4?$CStringT@_WV?$StrTraitMFC_DLL@_WV?$ChTraitsCRT@_W@ATL@@@@@ATL@@QAEAAV01@PB_W@Z @ 1521 NONAME
 ??4?$CStringT@_WV?$StrTraitMFC_DLL@_WV?$ChTraitsCRT@_W@ATL@@@@@ATL@@QAEAAV01@PBD@Z @ 1522 NONAME
 ??4?$CStringT@_WV?$StrTraitMFC_DLL@_WV?$ChTraitsCRT@_W@ATL@@@@@ATL@@QAEAAV01@PBE@Z @ 1523 NONAME
 ??4?$CStringT@DV?$StrTraitMFC_DLL@DV?$ChTraitsCRT@D@ATL@@@@@ATL@@QAEAAV01@_W@Z @ 1524 NONAME
 ??4?$CStringT@DV?$StrTraitMFC_DLL@DV?$ChTraitsCRT@D@ATL@@@@@ATL@@QAEAAV01@ABUtagVARIANT@@@Z @ 1525 NONAME
 ??4?$CStringT@DV?$StrTraitMFC_DLL@DV?$ChTraitsCRT@D@ATL@@@@@ATL@@QAEAAV01@ABV01@@Z @ 1526 NONAME
 ??4?$CStringT@DV?$StrTraitMFC_DLL@DV?$ChTraitsCRT@D@ATL@@@@@ATL@@QAEAAV01@D@Z @ 1527 NONAME
 ??4?$CStringT@DV?$StrTraitMFC_DLL@DV?$ChTraitsCRT@D@ATL@@@@@ATL@@QAEAAV01@PB_W@Z @ 1528 NONAME
 ??4?$CStringT@DV?$StrTraitMFC_DLL@DV?$ChTraitsCRT@D@ATL@@@@@ATL@@QAEAAV01@PBD@Z @ 1529 NONAME
 ??4?$CStringT@DV?$StrTraitMFC_DLL@DV?$ChTraitsCRT@D@ATL@@@@@ATL@@QAEAAV01@PBE@Z @ 1530 NONAME
 ??4CMFCControlRendererInfo@@QAEAAV0@ABV0@@Z @ 1531 NONAME
 ??4COleCurrency@@QAEABV0@ABUtagVARIANT@@@Z @ 1532 NONAME
 ??4COleCurrency@@QAEABV0@ABV0@@Z @ 1533 NONAME
 ??4COleCurrency@@QAEABV0@TtagCY@@@Z @ 1534 NONAME
 ??4COleDispatchDriver@@QAEABV0@ABV0@@Z @ 1535 NONAME
 ??4COleSafeArray@@QAEAAV0@ABUtagVARIANT@@@Z @ 1536 NONAME
 ??4COleSafeArray@@QAEAAV0@ABV0@@Z @ 1537 NONAME
 ??4COleSafeArray@@QAEAAV0@ABVCOleVariant@@@Z @ 1538 NONAME
 ??4COleSafeArray@@QAEAAV0@PBUtagVARIANT@@@Z @ 1539 NONAME
 ??4COleVariant@@QAEABV0@_J@Z @ 1540 NONAME
 ??4COleVariant@@QAEABV0@_K@Z @ 1541 NONAME
 ??4COleVariant@@QAEABV0@ABUtagVARIANT@@@Z @ 1542 NONAME
 ??4COleVariant@@QAEABV0@ABV?$CStringT@DV?$StrTraitMFC_DLL@DV?$ChTraitsCRT@D@ATL@@@@@ATL@@@Z @ 1543 NONAME
 ??4COleVariant@@QAEABV0@ABV0@@Z @ 1544 NONAME
 ??4COleVariant@@QAEABV0@ABVCByteArray@@@Z @ 1545 NONAME
 ??4COleVariant@@QAEABV0@ABVCLongBinary@@@Z @ 1546 NONAME
 ??4COleVariant@@QAEABV0@ABVCOleCurrency@@@Z @ 1547 NONAME
 ??4COleVariant@@QAEABV0@ABVCOleDateTime@ATL@@@Z @ 1548 NONAME
 ??4COleVariant@@QAEABV0@E@Z @ 1549 NONAME
 ??4COleVariant@@QAEABV0@F@Z @ 1550 NONAME
 ??4COleVariant@@QAEABV0@J@Z @ 1551 NONAME
 ??4COleVariant@@QAEABV0@M@Z @ 1552 NONAME
 ??4COleVariant@@QAEABV0@N@Z @ 1553 NONAME
 ??4COleVariant@@QAEABV0@PBUtagVARIANT@@@Z @ 1554 NONAME
 ??4COleVariant@@QAEABV0@QBD@Z @ 1555 NONAME
 ??4CRecentDockSiteInfo@@QAEAAV0@AAV0@@Z @ 1556 NONAME
 ??4CRecentPaneContainerInfo@@QAEAAV0@AAV0@@Z @ 1557 NONAME
 ??5@YGAAVCArchive@@AAV0@AAPAVCByteArray@@@Z @ 1558 NONAME
 ??5@YGAAVCArchive@@AAV0@AAPAVCDocItem@@@Z @ 1559 NONAME
 ??5@YGAAVCArchive@@AAV0@AAPAVCDockablePane@@@Z @ 1560 NONAME
 ??5@YGAAVCArchive@@AAV0@AAPAVCDockablePaneAdapter@@@Z @ 1561 NONAME
 ??5@YGAAVCArchive@@AAV0@AAPAVCDockState@@@Z @ 1562 NONAME
 ??5@YGAAVCArchive@@AAV0@AAPAVCDWordArray@@@Z @ 1563 NONAME
 ??5@YGAAVCArchive@@AAV0@AAPAVCHelpComboBoxButton@@@Z @ 1564 NONAME
 ??5@YGAAVCArchive@@AAV0@AAPAVCMapStringToOb@@@Z @ 1565 NONAME
 ??5@YGAAVCArchive@@AAV0@AAPAVCMapStringToString@@@Z @ 1566 NONAME
 ??5@YGAAVCArchive@@AAV0@AAPAVCMapWordToOb@@@Z @ 1567 NONAME
 ??5@YGAAVCArchive@@AAV0@AAPAVCMFCColorBar@@@Z @ 1568 NONAME
 ??5@YGAAVCArchive@@AAV0@AAPAVCMFCColorMenuButton@@@Z @ 1569 NONAME
 ??5@YGAAVCArchive@@AAV0@AAPAVCMFCCustomizeButton@@@Z @ 1570 NONAME
 ??5@YGAAVCArchive@@AAV0@AAPAVCMFCDropDownFrame@@@Z @ 1571 NONAME
 ??5@YGAAVCArchive@@AAV0@AAPAVCMFCDropDownToolBar@@@Z @ 1572 NONAME
 ??5@YGAAVCArchive@@AAV0@AAPAVCMFCDropDownToolbarButton@@@Z @ 1573 NONAME
 ??5@YGAAVCArchive@@AAV0@AAPAVCMFCMenuBar@@@Z @ 1574 NONAME
 ??5@YGAAVCArchive@@AAV0@AAPAVCMFCOutlookBar@@@Z @ 1575 NONAME
 ??5@YGAAVCArchive@@AAV0@AAPAVCMFCOutlookBarPane@@@Z @ 1576 NONAME
 ??5@YGAAVCArchive@@AAV0@AAPAVCMFCOutlookBarPaneAdapter@@@Z @ 1577 NONAME
 ??5@YGAAVCArchive@@AAV0@AAPAVCMFCOutlookBarPaneButton@@@Z @ 1578 NONAME
 ??5@YGAAVCArchive@@AAV0@AAPAVCMFCPopupMenu@@@Z @ 1579 NONAME
 ??5@YGAAVCArchive@@AAV0@AAPAVCMFCPopupMenuBar@@@Z @ 1580 NONAME
 ??5@YGAAVCArchive@@AAV0@AAPAVCMFCTasksPane@@@Z @ 1581 NONAME
 ??5@YGAAVCArchive@@AAV0@AAPAVCMFCTasksPaneFrameWnd@@@Z @ 1582 NONAME
 ??5@YGAAVCArchive@@AAV0@AAPAVCMFCTasksPaneToolBar@@@Z @ 1583 NONAME
 ??5@YGAAVCArchive@@AAV0@AAPAVCMFCToolBar@@@Z @ 1584 NONAME
 ??5@YGAAVCArchive@@AAV0@AAPAVCMFCToolBarButton@@@Z @ 1585 NONAME
 ??5@YGAAVCArchive@@AAV0@AAPAVCMFCToolBarColorButton@@@Z @ 1586 NONAME
 ??5@YGAAVCArchive@@AAV0@AAPAVCMFCToolBarComboBoxButton@@@Z @ 1587 NONAME
 ??5@YGAAVCArchive@@AAV0@AAPAVCMFCToolBarDateTimeCtrl@@@Z @ 1588 NONAME
 ??5@YGAAVCArchive@@AAV0@AAPAVCMFCToolBarEditBoxButton@@@Z @ 1589 NONAME
 ??5@YGAAVCArchive@@AAV0@AAPAVCMFCToolBarFontComboBox@@@Z @ 1590 NONAME
 ??5@YGAAVCArchive@@AAV0@AAPAVCMFCToolBarFontSizeComboBox@@@Z @ 1591 NONAME
 ??5@YGAAVCArchive@@AAV0@AAPAVCMFCToolBarMenuButton@@@Z @ 1592 NONAME
 ??5@YGAAVCArchive@@AAV0@AAPAVCMFCToolBarSpinEditBoxButton@@@Z @ 1593 NONAME
 ??5@YGAAVCArchive@@AAV0@AAPAVCMFCToolBarSystemMenuButton@@@Z @ 1594 NONAME
 ??5@YGAAVCArchive@@AAV0@AAPAVCMouseManager@@@Z @ 1595 NONAME
 ??5@YGAAVCArchive@@AAV0@AAPAVCMultiPaneFrameWnd@@@Z @ 1596 NONAME
 ??5@YGAAVCArchive@@AAV0@AAPAVCObArray@@@Z @ 1597 NONAME
 ??5@YGAAVCArchive@@AAV0@AAPAVCObList@@@Z @ 1598 NONAME
 ??5@YGAAVCArchive@@AAV0@AAPAVCPaneDialog@@@Z @ 1599 NONAME
 ??5@YGAAVCArchive@@AAV0@AAPAVCPaneFrameWnd@@@Z @ 1600 NONAME
 ??5@YGAAVCArchive@@AAV0@AAPAVCRichEditCntrItem@@@Z @ 1601 NONAME
 ??5@YGAAVCArchive@@AAV0@AAPAVCStringArray@@@Z @ 1602 NONAME
 ??5@YGAAVCArchive@@AAV0@AAPAVCStringList@@@Z @ 1603 NONAME
 ??5@YGAAVCArchive@@AAV0@AAPAVCTabbedPane@@@Z @ 1604 NONAME
 ??5@YGAAVCArchive@@AAV0@AAPAVCTasksPaneHistoryButton@@@Z @ 1605 NONAME
 ??5@YGAAVCArchive@@AAV0@AAPAVCTasksPaneMenuButton@@@Z @ 1606 NONAME
 ??5@YGAAVCArchive@@AAV0@AAPAVCTasksPaneNavigateButton@@@Z @ 1607 NONAME
 ??5@YGAAVCArchive@@AAV0@AAPAVCUserTool@@@Z @ 1608 NONAME
 ??5@YGAAVCArchive@@AAV0@AAPAVCWordArray@@@Z @ 1609 NONAME
 ??5@YGAAVCArchive@@AAV0@AAVCComBSTR@ATL@@@Z @ 1610 NONAME
 ??5@YGAAVCArchive@@AAV0@AAVCOleCurrency@@@Z @ 1611 NONAME
 ??5@YGAAVCArchive@@AAV0@AAVCOleDateTime@ATL@@@Z @ 1612 NONAME
 ??5@YGAAVCArchive@@AAV0@AAVCOleDateTimeSpan@ATL@@@Z @ 1613 NONAME
 ??5@YGAAVCArchive@@AAV0@AAVCOleVariant@@@Z @ 1614 NONAME
 ??5@YGAAVCArchive@@AAV0@AAVCTime@ATL@@@Z @ 1615 NONAME
 ??5@YGAAVCArchive@@AAV0@AAVCTimeSpan@ATL@@@Z @ 1616 NONAME
 ??6@YGAAVCArchive@@AAV0@VCComBSTR@ATL@@@Z @ 1617 NONAME
 ??6@YGAAVCArchive@@AAV0@VCOleCurrency@@@Z @ 1618 NONAME
 ??6@YGAAVCArchive@@AAV0@VCOleDateTime@ATL@@@Z @ 1619 NONAME
 ??6@YGAAVCArchive@@AAV0@VCOleDateTimeSpan@ATL@@@Z @ 1620 NONAME
 ??6@YGAAVCArchive@@AAV0@VCOleVariant@@@Z @ 1621 NONAME
 ??6@YGAAVCArchive@@AAV0@VCTime@ATL@@@Z @ 1622 NONAME
 ??6@YGAAVCArchive@@AAV0@VCTimeSpan@ATL@@@Z @ 1623 NONAME
 ??6CDumpContext@@QAEAAV0@_J@Z @ 1624 NONAME
 ??6CDumpContext@@QAEAAV0@_K@Z @ 1625 NONAME
 ??6CDumpContext@@QAEAAV0@ABVCObject@@@Z @ 1626 NONAME
 ??6CDumpContext@@QAEAAV0@E@Z @ 1627 NONAME
 ??6CDumpContext@@QAEAAV0@G@Z @ 1628 NONAME
 ??6CDumpContext@@QAEAAV0@H@Z @ 1629 NONAME
 ??6CDumpContext@@QAEAAV0@I@Z @ 1630 NONAME
 ??6CDumpContext@@QAEAAV0@J@Z @ 1631 NONAME
 ??6CDumpContext@@QAEAAV0@K@Z @ 1632 NONAME
 ??6CDumpContext@@QAEAAV0@PAUHACCEL__@@@Z @ 1633 NONAME
 ??6CDumpContext@@QAEAAV0@PAUHDC__@@@Z @ 1634 NONAME
 ??6CDumpContext@@QAEAAV0@PAUHFONT__@@@Z @ 1635 NONAME
 ??6CDumpContext@@QAEAAV0@PAUHMENU__@@@Z @ 1636 NONAME
 ??6CDumpContext@@QAEAAV0@PAUHWND__@@@Z @ 1637 NONAME
 ??6CDumpContext@@QAEAAV0@PB_W@Z @ 1638 NONAME
 ??6CDumpContext@@QAEAAV0@PBD@Z @ 1639 NONAME
 ??6CDumpContext@@QAEAAV0@PBVCObject@@@Z @ 1640 NONAME
 ??6CDumpContext@@QAEAAV0@PBX@Z @ 1641 NONAME
 ??8COleSafeArray@@QBEHABUtagSAFEARRAY@@@Z @ 1642 NONAME
 ??8COleSafeArray@@QBEHABUtagVARIANT@@@Z @ 1643 NONAME
 ??8COleSafeArray@@QBEHABV0@@Z @ 1644 NONAME
 ??8COleSafeArray@@QBEHABVCOleVariant@@@Z @ 1645 NONAME
 ??8COleSafeArray@@QBEHPBUtagSAFEARRAY@@@Z @ 1646 NONAME
 ??8COleSafeArray@@QBEHPBUtagVARIANT@@@Z @ 1647 NONAME
 ??8COleVariant@@QBEHABUtagVARIANT@@@Z @ 1648 NONAME
 ??A?$CSimpleStringT@_W$00@ATL@@QBE_WH@Z @ 1649 NONAME
 ??A?$CSimpleStringT@D$00@ATL@@QBEDH@Z @ 1650 NONAME
 ??ACMapPtrToPtr@@QAEAAPAXPAX@Z @ 1651 NONAME
 ??ACMapPtrToWord@@QAEAAGPAX@Z @ 1652 NONAME
 ??ACMapStringToOb@@QAEAAPAVCObject@@PBD@Z @ 1653 NONAME
 ??ACMapStringToPtr@@QAEAAPAXPBD@Z @ 1654 NONAME
 ??ACMapStringToString@@QAEAAV?$CStringT@DV?$StrTraitMFC_DLL@DV?$ChTraitsCRT@D@ATL@@@@@ATL@@PBD@Z @ 1655 NONAME
 ??ACMapWordToOb@@QAEAAPAVCObject@@G@Z @ 1656 NONAME
 ??ACMapWordToPtr@@QAEAAPAXG@Z @ 1657 NONAME
 ??B?$CSimpleStringT@_W$00@ATL@@QAEAAV?$CSimpleStringT@_W$0A@@1@XZ @ 1658 NONAME
 ??B?$CSimpleStringT@_W$00@ATL@@QBEPB_WXZ @ 1659 NONAME
 ??B?$CSimpleStringT@D$00@ATL@@QAEAAV?$CSimpleStringT@D$0A@@1@XZ @ 1660 NONAME
 ??B?$CSimpleStringT@D$00@ATL@@QBEPBDXZ @ 1661 NONAME
 ??B?$CStringT@_WV?$StrTraitMFC_DLL@_WV?$ChTraitsCRT@_W@ATL@@@@@ATL@@QAEAAV?$CSimpleStringT@_W$0A@@1@XZ @ 1662 NONAME
 ??B?$CStringT@DV?$StrTraitMFC_DLL@DV?$ChTraitsCRT@D@ATL@@@@@ATL@@QAEAAV?$CSimpleStringT@D$0A@@1@XZ @ 1663 NONAME
 ??DCOleCurrency@@QBE?AV0@J@Z @ 1664 NONAME
 ??GCOleCurrency@@QBE?AV0@ABV0@@Z @ 1665 NONAME
 ??GCOleCurrency@@QBE?AV0@XZ @ 1666 NONAME
 ??HCOleCurrency@@QBE?AV0@ABV0@@Z @ 1667 NONAME
 ??KCOleCurrency@@QBE?AV0@J@Z @ 1668 NONAME
 ??MCOleCurrency@@QBEHABV0@@Z @ 1669 NONAME
 ??NCOleCurrency@@QBEHABV0@@Z @ 1670 NONAME
 ??OCOleCurrency@@QBEHABV0@@Z @ 1671 NONAME
 ??PCOleCurrency@@QBEHABV0@@Z @ 1672 NONAME
 ??Y?$CSimpleStringT@_W$00@ATL@@QAEAAV01@_W@Z @ 1673 NONAME
 ??Y?$CSimpleStringT@_W$00@ATL@@QAEAAV01@ABV01@@Z @ 1674 NONAME
 ??Y?$CSimpleStringT@_W$00@ATL@@QAEAAV01@D@Z @ 1675 NONAME
 ??Y?$CSimpleStringT@_W$00@ATL@@QAEAAV01@E@Z @ 1676 NONAME
 ??Y?$CSimpleStringT@_W$00@ATL@@QAEAAV01@PB_W@Z @ 1677 NONAME
 ??Y?$CSimpleStringT@D$00@ATL@@QAEAAV01@_W@Z @ 1678 NONAME
 ??Y?$CSimpleStringT@D$00@ATL@@QAEAAV01@ABV01@@Z @ 1679 NONAME
 ??Y?$CSimpleStringT@D$00@ATL@@QAEAAV01@D@Z @ 1680 NONAME
 ??Y?$CSimpleStringT@D$00@ATL@@QAEAAV01@E@Z @ 1681 NONAME
 ??Y?$CSimpleStringT@D$00@ATL@@QAEAAV01@PBD@Z @ 1682 NONAME
 ??Y?$CStringT@_WV?$StrTraitMFC_DLL@_WV?$ChTraitsCRT@_W@ATL@@@@@ATL@@QAEAAV01@_W@Z @ 1683 NONAME
 ??Y?$CStringT@_WV?$StrTraitMFC_DLL@_WV?$ChTraitsCRT@_W@ATL@@@@@ATL@@QAEAAV01@ABUtagVARIANT@@@Z @ 1684 NONAME
 ??Y?$CStringT@_WV?$StrTraitMFC_DLL@_WV?$ChTraitsCRT@_W@ATL@@@@@ATL@@QAEAAV01@ABV?$CSimpleStringT@_W$00@1@@Z @ 1685 NONAME
 ??Y?$CStringT@_WV?$StrTraitMFC_DLL@_WV?$ChTraitsCRT@_W@ATL@@@@@ATL@@QAEAAV01@D@Z @ 1686 NONAME
 ??Y?$CStringT@_WV?$StrTraitMFC_DLL@_WV?$ChTraitsCRT@_W@ATL@@@@@ATL@@QAEAAV01@E@Z @ 1687 NONAME
 ??Y?$CStringT@_WV?$StrTraitMFC_DLL@_WV?$ChTraitsCRT@_W@ATL@@@@@ATL@@QAEAAV01@PB_W@Z @ 1688 NONAME
 ??Y?$CStringT@_WV?$StrTraitMFC_DLL@_WV?$ChTraitsCRT@_W@ATL@@@@@ATL@@QAEAAV01@PBD@Z @ 1689 NONAME
 ??Y?$CStringT@DV?$StrTraitMFC_DLL@DV?$ChTraitsCRT@D@ATL@@@@@ATL@@QAEAAV01@_W@Z @ 1690 NONAME
 ??Y?$CStringT@DV?$StrTraitMFC_DLL@DV?$ChTraitsCRT@D@ATL@@@@@ATL@@QAEAAV01@ABUtagVARIANT@@@Z @ 1691 NONAME
 ??Y?$CStringT@DV?$StrTraitMFC_DLL@DV?$ChTraitsCRT@D@ATL@@@@@ATL@@QAEAAV01@ABV?$CSimpleStringT@D$00@1@@Z @ 1692 NONAME
 ??Y?$CStringT@DV?$StrTraitMFC_DLL@DV?$ChTraitsCRT@D@ATL@@@@@ATL@@QAEAAV01@D@Z @ 1693 NONAME
 ??Y?$CStringT@DV?$StrTraitMFC_DLL@DV?$ChTraitsCRT@D@ATL@@@@@ATL@@QAEAAV01@E@Z @ 1694 NONAME
 ??Y?$CStringT@DV?$StrTraitMFC_DLL@DV?$ChTraitsCRT@D@ATL@@@@@ATL@@QAEAAV01@PB_W@Z @ 1695 NONAME
 ??Y?$CStringT@DV?$StrTraitMFC_DLL@DV?$ChTraitsCRT@D@ATL@@@@@ATL@@QAEAAV01@PBD@Z @ 1696 NONAME
 ?_AfxFindSiteOrWnd@@YGPAUCOleControlSiteOrWnd@@PAVCWnd@@0@Z @ 1697 NONAME
 ?_AfxSocketInit@@YGHPAUWSAData@@@Z @ 1698 NONAME
 ?Abort@CArchive@@QAEXXZ @ 1699 NONAME
 ?Abort@CFile@@UAEXXZ @ 1700 NONAME
 ?Abort@CInternetFile@@UAEXXZ @ 1701 NONAME
 ?Abort@CMemFile@@UAEXXZ @ 1702 NONAME
 ?Abort@CMirrorFile@@UAEXXZ @ 1703 NONAME
 ?Abort@COleStreamFile@@UAEXXZ @ 1704 NONAME
 ?Abort@CSocketFile@@UAEXXZ @ 1705 NONAME
 ?Abort@CStdioFile@@UAEXXZ @ 1706 NONAME
 ?AboutToDo@XNotifyDBEvents@COleControlSite@@UAGJKKQAUtagDBNOTIFYREASON@@@Z @ 1707 NONAME
 ?accDoDefaultAction@CCheckListBox@@MAEJUtagVARIANT@@@Z @ 1708 NONAME
 ?accDoDefaultAction@CMFCBaseAccessibleObject@@UAEJUtagVARIANT@@@Z @ 1709 NONAME
 ?accDoDefaultAction@CMFCRibbonBar@@UAEJUtagVARIANT@@@Z @ 1710 NONAME
 ?accDoDefaultAction@CMFCRibbonBaseElement@@UAEJUtagVARIANT@@@Z @ 1711 NONAME
 ?accDoDefaultAction@CMFCRibbonContextCaption@@MAEJUtagVARIANT@@@Z @ 1712 NONAME
 ?accDoDefaultAction@CMFCRibbonPanel@@MAEJUtagVARIANT@@@Z @ 1713 NONAME
 ?accDoDefaultAction@CMFCRibbonQuickAccessToolBar@@MAEJUtagVARIANT@@@Z @ 1714 NONAME
 ?accDoDefaultAction@CMFCRibbonTabsGroup@@MAEJUtagVARIANT@@@Z @ 1715 NONAME
 ?accDoDefaultAction@CMFCToolBar@@MAEJUtagVARIANT@@@Z @ 1716 NONAME
 ?accDoDefaultAction@CWnd@@UAEJUtagVARIANT@@@Z @ 1717 NONAME
 ?accDoDefaultAction@XAccessible@CMFCBaseAccessibleObject@@UAGJUtagVARIANT@@@Z @ 1718 NONAME
 ?accDoDefaultAction@XAccessible@CWnd@@UAGJUtagVARIANT@@@Z @ 1719 NONAME
 ?Accept@CAsyncSocket@@UAEHAAV1@PAUsockaddr@@PAH@Z @ 1720 NONAME
 ?Accept@CSocket@@UAEHAAVCAsyncSocket@@PAUsockaddr@@PAH@Z @ 1721 NONAME
 ?AccessData@COleSafeArray@@QAEXPAPAX@Z @ 1722 NONAME
 ?AccessibleObjectByIndex@CMFCRibbonBar@@QAEPAVCMFCBaseAccessibleObject@@J@Z @ 1723 NONAME
 ?AccessibleObjectFromPoint@CMFCRibbonBar@@QAEPAVCMFCBaseAccessibleObject@@VCPoint@@@Z @ 1724 NONAME
 ?AccGetButtonByChildId@CMFCToolBar@@IAEPAVCMFCToolBarButton@@J@Z @ 1725 NONAME
 ?AccGetButtonsCount@CMFCToolBar@@MAEHXZ @ 1726 NONAME
 ?AccGetChildIdByButtonIndex@CMFCToolBar@@IAEHH@Z @ 1727 NONAME
 ?accHitTest@CBasePane@@UAEJJJPAUtagVARIANT@@@Z @ 1728 NONAME
 ?accHitTest@CMFCBaseAccessibleObject@@UAEJJJPAUtagVARIANT@@@Z @ 1729 NONAME
 ?accHitTest@CMFCPropertyGridCtrl@@UAEJJJPAUtagVARIANT@@@Z @ 1730 NONAME
 ?accHitTest@CMFCRibbonBar@@UAEJJJPAUtagVARIANT@@@Z @ 1731 NONAME
 ?accHitTest@CMFCRibbonBaseElement@@UAEJJJPAUtagVARIANT@@@Z @ 1732 NONAME
 ?accHitTest@CMFCRibbonCategory@@UAEJJJPAUtagVARIANT@@@Z @ 1733 NONAME
 ?accHitTest@CMFCRibbonPanel@@MAEJJJPAUtagVARIANT@@@Z @ 1734 NONAME
 ?accHitTest@CMFCRibbonQuickAccessToolBar@@MAEJJJPAUtagVARIANT@@@Z @ 1735 NONAME
 ?accHitTest@CMFCRibbonTab@@UAEJJJPAUtagVARIANT@@@Z @ 1736 NONAME
 ?accHitTest@CMFCRibbonTabsGroup@@MAEJJJPAUtagVARIANT@@@Z @ 1737 NONAME
 ?accHitTest@CMFCToolBar@@MAEJJJPAUtagVARIANT@@@Z @ 1738 NONAME
 ?accHitTest@CWnd@@UAEJJJPAUtagVARIANT@@@Z @ 1739 NONAME
 ?accHitTest@XAccessible@CMFCBaseAccessibleObject@@UAGJJJPAUtagVARIANT@@@Z @ 1740 NONAME
 ?accHitTest@XAccessible@CWnd@@UAGJJJPAUtagVARIANT@@@Z @ 1741 NONAME
 ?accLocation@CBasePane@@UAEJPAJ000UtagVARIANT@@@Z @ 1742 NONAME
 ?accLocation@CMFCBaseAccessibleObject@@UAEJPAJ000UtagVARIANT@@@Z @ 1743 NONAME
 ?accLocation@CMFCPropertyGridCtrl@@UAEJPAJ000UtagVARIANT@@@Z @ 1744 NONAME
 ?accLocation@CMFCRibbonBar@@UAEJPAJ000UtagVARIANT@@@Z @ 1745 NONAME
 ?accLocation@CMFCRibbonBaseElement@@UAEJPAJ000UtagVARIANT@@@Z @ 1746 NONAME
 ?accLocation@CMFCRibbonCategory@@UAEJPAJ000UtagVARIANT@@@Z @ 1747 NONAME
 ?accLocation@CMFCRibbonPanel@@MAEJPAJ000UtagVARIANT@@@Z @ 1748 NONAME
 ?accLocation@CMFCRibbonQuickAccessToolBar@@MAEJPAJ000UtagVARIANT@@@Z @ 1749 NONAME
 ?accLocation@CMFCRibbonTab@@UAEJPAJ000UtagVARIANT@@@Z @ 1750 NONAME
 ?accLocation@CWnd@@UAEJPAJ000UtagVARIANT@@@Z @ 1751 NONAME
 ?accLocation@XAccessible@CMFCBaseAccessibleObject@@UAGJPAJ000UtagVARIANT@@@Z @ 1752 NONAME
 ?accLocation@XAccessible@CWnd@@UAGJPAJ000UtagVARIANT@@@Z @ 1753 NONAME
 ?accNavigate@CMFCBaseAccessibleObject@@UAEJJUtagVARIANT@@PAU2@@Z @ 1754 NONAME
 ?accNavigate@CMFCRibbonApplicationButton@@MAEJJUtagVARIANT@@PAU2@@Z @ 1755 NONAME
 ?accNavigate@CMFCRibbonBar@@UAEJJUtagVARIANT@@PAU2@@Z @ 1756 NONAME
 ?accNavigate@CMFCRibbonBaseElement@@UAEJJUtagVARIANT@@PAU2@@Z @ 1757 NONAME
 ?accNavigate@CMFCRibbonCategory@@UAEJJUtagVARIANT@@PAU2@@Z @ 1758 NONAME
 ?accNavigate@CMFCRibbonContextCaption@@MAEJJUtagVARIANT@@PAU2@@Z @ 1759 NONAME
 ?accNavigate@CMFCRibbonPanel@@MAEJJUtagVARIANT@@PAU2@@Z @ 1760 NONAME
 ?accNavigate@CMFCRibbonQuickAccessToolBar@@MAEJJUtagVARIANT@@PAU2@@Z @ 1761 NONAME
 ?accNavigate@CMFCRibbonTab@@UAEJJUtagVARIANT@@PAU2@@Z @ 1762 NONAME
 ?accNavigate@CMFCRibbonTabsGroup@@MAEJJUtagVARIANT@@PAU2@@Z @ 1763 NONAME
 ?accNavigate@CMFCToolBar@@MAEJJUtagVARIANT@@PAU2@@Z @ 1764 NONAME
 ?accNavigate@CWnd@@UAEJJUtagVARIANT@@PAU2@@Z @ 1765 NONAME
 ?accNavigate@XAccessible@CMFCBaseAccessibleObject@@UAGJJUtagVARIANT@@PAU3@@Z @ 1766 NONAME
 ?accNavigate@XAccessible@CWnd@@UAGJJUtagVARIANT@@PAU3@@Z @ 1767 NONAME
 ?AccNotifyObjectFocusEvent@CMFCToolBar@@MAEXH@Z @ 1768 NONAME
 ?accSelect@CBasePane@@UAEJJUtagVARIANT@@@Z @ 1769 NONAME
 ?accSelect@CMFCBaseAccessibleObject@@UAEJJUtagVARIANT@@@Z @ 1770 NONAME
 ?accSelect@CMFCPropertyGridCtrl@@UAEJJUtagVARIANT@@@Z @ 1771 NONAME
 ?accSelect@CWnd@@UAEJJUtagVARIANT@@@Z @ 1772 NONAME
 ?accSelect@XAccessible@CMFCBaseAccessibleObject@@UAGJJUtagVARIANT@@@Z @ 1773 NONAME
 ?accSelect@XAccessible@CWnd@@UAGJJUtagVARIANT@@@Z @ 1774 NONAME
 ?Activate@COleClientItem@@QAEXJPAVCView@@PAUtagMSG@@@Z @ 1775 NONAME
 ?Activate@XPropertyPage@COlePropertyPage@@UAGJPAUHWND__@@PBUtagRECT@@H@Z @ 1776 NONAME
 ?ActivateAndShow@COleDocObjectItem@@IAEXXZ @ 1777 NONAME
 ?ActivateAs@COleClientItem@@UAEHPBDABU_GUID@@1@Z @ 1778 NONAME
 ?ActivateAs@CRichEditCntrItem@@UAEHPBDABU_GUID@@1@Z @ 1779 NONAME
 ?ActivateContextCategory@CMFCRibbonBar@@QAEHI@Z @ 1780 NONAME
 ?ActivateDocObject@CDocObjectServer@@QAEXXZ @ 1781 NONAME
 ?ActivateDocObject@COleServerDoc@@QAEXXZ @ 1782 NONAME
 ?ActivateFrame@CFrameWnd@@UAEXH@Z @ 1783 NONAME
 ?ActivateFrame@CMDIChildWnd@@UAEXH@Z @ 1784 NONAME
 ?ActivateFrame@CMDIChildWndEx@@UAEXH@Z @ 1785 NONAME
 ?ActivateInPlace@COleServerDoc@@QAEHXZ @ 1786 NONAME
 ?ActivateMDITab@CMFCTabCtrl@@QAEXH@Z @ 1787 NONAME
 ?ActivateMe@XOleDocumentSite@COleDocObjectItem@@UAGJPAUIOleDocumentView@@@Z @ 1788 NONAME
 ?ActivateNext@CSplitterWnd@@UAEXH@Z @ 1789 NONAME
 ?ActivatePopupMenu@CMFCPopupMenu@@SGHPAVCFrameWnd@@PAV1@@Z @ 1790 NONAME
 ?ActivateTopLevelFrame@CMDIChildWndEx@@MAEXXZ @ 1791 NONAME
 ?ActivateTopParent@CWnd@@QAEXXZ @ 1792 NONAME
 ?ActiveItemRecalcLayout@CFrameWndEx@@QAEXXZ @ 1793 NONAME
 ?ActiveItemRecalcLayout@CMDIFrameWndEx@@QAEXXZ @ 1794 NONAME
 ?AdaptColors@CMFCToolBarImages@@QAEXKK@Z @ 1795 NONAME
 ?Add@CMFCRibbonMainPanel@@UAEXPAVCMFCRibbonBaseElement@@@Z @ 1796 NONAME
 ?Add@CMFCRibbonPanel@@UAEXPAVCMFCRibbonBaseElement@@@Z @ 1797 NONAME
 ?Add@CMFCRibbonQuickAccessToolBar@@IAEXPAVCMFCRibbonBaseElement@@@Z @ 1798 NONAME
 ?Add@CRecentFileList@@QAEXPAU_ITEMIDLIST@@PBD@Z @ 1799 NONAME
 ?Add@CRecentFileList@@QAEXPAUIShellItem@@PBD@Z @ 1800 NONAME
 ?Add@CRecentFileList@@QAEXPAUIShellLinkA@@PBD@Z @ 1801 NONAME
 ?Add@CRecentFileList@@UAEXPBD@Z @ 1802 NONAME
 ?Add@CRecentFileList@@UAEXPBD0@Z @ 1803 NONAME
 ?AddAnimationObject@CAnimationController@@QAEPAVCAnimationGroup@@PAVCAnimationBaseObject@@@Z @ 1804 NONAME
 ?AddArc@CD2DGeometrySink@@QAEXABUD2D1_ARC_SEGMENT@@@Z @ 1805 NONAME
 ?AddAutoHideWindow@CMFCAutoHideBar@@QAEPAVCMFCAutoHideButton@@PAVCDockablePane@@K@Z @ 1806 NONAME
 ?AddBar@CMFCReBar@@QAEHPAVCWnd@@KKPBDK@Z @ 1807 NONAME
 ?AddBar@CMFCReBar@@QAEHPAVCWnd@@PBDPAVCBitmap@@K@Z @ 1808 NONAME
 ?AddBar@CReBar@@QAEHPAVCWnd@@KKPBDK@Z @ 1809 NONAME
 ?AddBar@CReBar@@QAEHPAVCWnd@@PBDPAVCBitmap@@K@Z @ 1810 NONAME
 ?AddBasicCommand@CMFCToolBar@@SGXI@Z @ 1811 NONAME
 ?AddBezier@CD2DGeometrySink@@QAEXABUD2D1_BEZIER_SEGMENT@@@Z @ 1812 NONAME
 ?AddBeziers@CD2DGeometrySink@@QAEXABV?$CArray@UD2D1_BEZIER_SEGMENT@@U1@@@@Z @ 1813 NONAME
 ?AddBitmap@CToolBarCtrl@@QAEHHI@Z @ 1814 NONAME
 ?AddBitmap@CToolBarCtrl@@QAEHHPAVCBitmap@@@Z @ 1815 NONAME
 ?AddBitmapImage@CMFCOutlookBarPane@@IAEHPAUHBITMAP__@@@Z @ 1816 NONAME
 ?AddButton@CMFCOutlookBarPane@@QAEHIIIH@Z @ 1817 NONAME
 ?AddButton@CMFCOutlookBarPane@@QAEHIPBDIH@Z @ 1818 NONAME
 ?AddButton@CMFCOutlookBarPane@@QAEHPAUHBITMAP__@@PBDIH@Z @ 1819 NONAME
 ?AddButton@CMFCOutlookBarPane@@QAEHPAUHICON__@@PBDIHH@Z @ 1820 NONAME
 ?AddButton@CMFCOutlookBarPane@@QAEHPBD0IH@Z @ 1821 NONAME
 ?AddButton@CMFCRibbonButtonsGroup@@QAEXPAVCMFCRibbonBaseElement@@@Z @ 1822 NONAME
 ?AddButton@CMFCTasksPaneFrameWnd@@MAEXI@Z @ 1823 NONAME
 ?AddButton@CMFCToolBarButtonsListButton@@QAEXPAVCMFCToolBarButton@@@Z @ 1824 NONAME
 ?AddButton@CMFCToolBarsCustomizeDialog@@QAEXIABVCMFCToolBarButton@@H@Z @ 1825 NONAME
 ?AddButton@CMFCToolBarsCustomizeDialog@@QAEXPBDABVCMFCToolBarButton@@H@Z @ 1826 NONAME
 ?AddButton@CPaneFrameWnd@@MAEXI@Z @ 1827 NONAME
 ?AddButton@CVSListBoxBase@@QAEHIPBDGEI@Z @ 1828 NONAME
 ?AddButtons@CMFCRibbonButtonsGroup@@QAEXABV?$CList@PAVCMFCRibbonBaseElement@@PAV1@@@@Z @ 1829 NONAME
 ?AddButtons@CMFCRibbonPanelMenuBar@@IAEXPAVCMFCRibbonBar@@ABV?$CArray@PAVCMFCRibbonBaseElement@@PAV1@@@H@Z @ 1830 NONAME
 ?AddCachedData@COleClientItem@@IAEXPAVCOleDataSource@@@Z @ 1831 NONAME
 ?AddCategory@CMFCRibbonBar@@QAEPAVCMFCRibbonCategory@@PBDIIVCSize@@1HPAUCRuntimeClass@@@Z @ 1832 NONAME
 ?AddCategoryToTree@CMFCPropertySheet@@IAEXPAVCMFCPropertySheetCategoryInfo@@@Z @ 1833 NONAME
 ?AddCheckButton@CFileDialog@@QAEJKABV?$CStringT@DV?$StrTraitMFC_DLL@DV?$ChTraitsCRT@D@ATL@@@@@ATL@@H@Z @ 1834 NONAME
 ?AddClassIDToList@COleInsertDialog@@IAEXAAPAU_GUID@@AAH1PAU2@@Z @ 1835 NONAME
 ?AddCmd@CMFCCmdUsageCount@@QAEXI@Z @ 1836 NONAME
 ?AddColorsGroup@CMFCRibbonColorButton@@QAEXPBDABV?$CList@KK@@H@Z @ 1837 NONAME
 ?AddComboBox@CFileDialog@@QAEJK@Z @ 1838 NONAME
 ?AddCommand@CMFCRibbonCommandsListBox@@QAEHPAVCMFCRibbonBaseElement@@HH@Z @ 1839 NONAME
 ?AddCommand@CMFCRibbonQuickAccessToolBarDefaultState@@QAEXIH@Z @ 1840 NONAME
 ?AddCommandUsage@CMFCToolBar@@SGXI@Z @ 1841 NONAME
 ?AddConnection@CEnumConnections@@QAEXPAUtagCONNECTDATA@@@Z @ 1842 NONAME
 ?AddConnPoint@CEnumConnPoints@@QAEXPAUIConnectionPoint@@@Z @ 1843 NONAME
 ?AddContextCategory@CMFCRibbonBar@@QAEPAVCMFCRibbonCategory@@PBD0IW4AFX_RibbonCategoryColor@@IIVCSize@@2PAUCRuntimeClass@@@Z @ 1844 NONAME
 ?AddControl@CMFCOutlookBarTabCtrl@@QAEXPAVCWnd@@PBDHHK@Z @ 1845 NONAME
 ?AddControlItem@CFileDialog@@QAEJKKABV?$CStringT@DV?$StrTraitMFC_DLL@DV?$ChTraitsCRT@D@ATL@@@@@ATL@@@Z @ 1846 NONAME
 ?AddCustomCategory@CMFCRibbonCustomizePropertyPage@@QAEXPBDABV?$CList@II@@@Z @ 1847 NONAME
 ?AddDefaultButtonsToCustomizePane@CFrameImpl@@IAEXPAVCMFCPopupMenu@@I@Z @ 1848 NONAME
 ?AddDestination@CJumpList@@QAEHPBD0@Z @ 1849 NONAME
 ?AddDestination@CJumpList@@QAEHPBDPAUIShellItem@@@Z @ 1850 NONAME
 ?AddDestination@CJumpList@@QAEHPBDPAUIShellLinkA@@@Z @ 1851 NONAME
 ?AddDockSite@CDockingManager@@QAEHABUAFX_DOCKSITE_INFO@@PAPAVCDockSite@@@Z @ 1852 NONAME
 ?AddDockSite@CFrameWndEx@@QAEXXZ @ 1853 NONAME
 ?AddDockSite@CMDIChildWndEx@@QAEXXZ @ 1854 NONAME
 ?AddDockSite@CMDIFrameWndEx@@QAEXXZ @ 1855 NONAME
 ?AddDockSite@COleCntrFrameWndEx@@QAEXXZ @ 1856 NONAME
 ?AddDockSite@COleDocIPFrameWndEx@@QAEXXZ @ 1857 NONAME
 ?AddDockSite@COleIPFrameWndEx@@QAEXXZ @ 1858 NONAME
 ?AddDocTemplate@CDocManager@@UAEXPAVCDocTemplate@@@Z @ 1859 NONAME
 ?AddDocTemplate@CWinApp@@QAEXPAVCDocTemplate@@@Z @ 1860 NONAME
 ?AddDocument@CDocTemplate@@UAEXPAVCDocument@@@Z @ 1861 NONAME
 ?AddDocument@CMultiDocTemplate@@UAEXPAVCDocument@@@Z @ 1862 NONAME
 ?AddDocument@CSingleDocTemplate@@UAEXPAVCDocument@@@Z @ 1863 NONAME
 ?AddDynamicElement@CMFCRibbonStatusBar@@QAEXPAVCMFCRibbonBaseElement@@@Z @ 1864 NONAME
 ?AddEditBox@CFileDialog@@QAEJKABV?$CStringT@DV?$StrTraitMFC_DLL@DV?$ChTraitsCRT@D@ATL@@@@@ATL@@@Z @ 1865 NONAME
 ?AddElement@CMFCRibbonStatusBar@@QAEXPAVCMFCRibbonBaseElement@@PBDH@Z @ 1866 NONAME
 ?AddElementImages@CMFCRibbonInfo@@IAEXAAVXElement@1@AAV?$CArray@PAVXImage@CMFCRibbonInfo@@PAV12@@@@Z @ 1867 NONAME
 ?AddExtendedElement@CMFCRibbonStatusBar@@QAEXPAVCMFCRibbonBaseElement@@PBDH@Z @ 1868 NONAME
 ?AddFont@CMFCToolBarFontComboBox@@MAEHPAUtagENUMLOGFONTA@@HPBD@Z @ 1869 NONAME
 ?AddFormat@CEnumFormatEtc@@QAEXPBUtagFORMATETC@@@Z @ 1870 NONAME
 ?AddFormat@COlePasteSpecialDialog@@QAEXABUtagFORMATETC@@PAD1K@Z @ 1871 NONAME
 ?AddFormat@COlePasteSpecialDialog@@QAEXIKIHH@Z @ 1872 NONAME
 ?AddFrame@CFrameImpl@@SGXPAVCFrameWnd@@@Z @ 1873 NONAME
 ?AddFrameLevelUI@COleControl@@MAEXXZ @ 1874 NONAME
 ?AddFrameWnd@CFrameWnd@@IAEXXZ @ 1875 NONAME
 ?AddGroup@CMFCRibbonGallery@@QAEXPBDAAVCMFCToolBarImages@@@Z @ 1876 NONAME
 ?AddGroup@CMFCRibbonGallery@@QAEXPBDH@Z @ 1877 NONAME
 ?AddGroup@CMFCRibbonGallery@@QAEXPBDIH@Z @ 1878 NONAME
 ?AddGroup@CMFCTasksPane@@QAEHHPBDHHPAUHICON__@@@Z @ 1879 NONAME
 ?AddHead@CObList@@QAEPAU__POSITION@@PAVCObject@@@Z @ 1880 NONAME
 ?AddHead@CObList@@QAEXPAV1@@Z @ 1881 NONAME
 ?AddHead@CPtrList@@QAEPAU__POSITION@@PAX@Z @ 1882 NONAME
 ?AddHead@CPtrList@@QAEXPAV1@@Z @ 1883 NONAME
 ?AddHead@CSimpleList@@QAEXPAX@Z @ 1884 NONAME
 ?AddHead@CStringList@@QAEPAU__POSITION@@ABV?$CStringT@DV?$StrTraitMFC_DLL@DV?$ChTraitsCRT@D@ATL@@@@@ATL@@@Z @ 1885 NONAME
 ?AddHead@CStringList@@QAEPAU__POSITION@@PBD@Z @ 1886 NONAME
 ?AddHead@CStringList@@QAEXPAV1@@Z @ 1887 NONAME
 ?AddHidden@CMFCRibbonCategory@@QAEXPAVCMFCRibbonBaseElement@@@Z @ 1888 NONAME
 ?AddHiddenMDITabbedBar@CDockingManager@@QAEXPAVCDockablePane@@@Z @ 1889 NONAME
 ?AddIcon@CMFCToolBarImages@@QAEHPAUHICON__@@H@Z @ 1890 NONAME
 ?AddImage@CMFCToolBarImages@@QAEHABV1@H@Z @ 1891 NONAME
 ?AddImage@CMFCToolBarImages@@QAEHPAUHBITMAP__@@H@Z @ 1892 NONAME
 ?AddImage@CMFCVisualManagerBitmapCacheItem@CMFCVisualManagerBitmapCache@@QAEXPAUHBITMAP__@@@Z @ 1893 NONAME
 ?AddItem@CMFCRibbonComboBox@@UAEHPBDK@Z @ 1894 NONAME
 ?AddItem@CMFCToolBarComboBoxButton@@UAEHPBDK@Z @ 1895 NONAME
 ?AddItem@COleDocument@@UAEXPAVCDocItem@@@Z @ 1896 NONAME
 ?AddItem@CVSListBox@@UAEHABV?$CStringT@DV?$StrTraitMFC_DLL@DV?$ChTraitsCRT@D@ATL@@@@@ATL@@KH@Z @ 1897 NONAME
 ?AddItem@XQAT@CMFCRibbonInfo@@QAEHABVXQATItem@12@@Z @ 1898 NONAME
 ?AddKeyEntry@CMFCRibbonKeyboardCustomizeDialog@@IAEXPAUtagACCEL@@@Z @ 1899 NONAME
 ?AddKeyEntry@CMFCToolBarsKeyboardPropertyPage@@IAEXPAUtagACCEL@@@Z @ 1900 NONAME
 ?AddKeyframes@CAnimationGroup@@IAEXPAUIUIAnimationStoryboard@@H@Z @ 1901 NONAME
 ?AddKeyframeToGroup@CAnimationController@@QAEHIPAVCBaseKeyFrame@@@Z @ 1902 NONAME
 ?AddKnownCategory@CJumpList@@QAEHW4KNOWNDESTCATEGORY@@@Z @ 1903 NONAME
 ?AddLine@CD2DGeometrySink@@QAEXVCD2DPointF@@@Z @ 1904 NONAME
 ?AddLines@CD2DGeometrySink@@QAEXABV?$CArray@VCD2DPointF@@V1@@@@Z @ 1905 NONAME
 ?AddLinkEntry@COlePasteSpecialDialog@@QAE?AW4tagOLEUIPASTEFLAG@@I@Z @ 1906 NONAME
 ?AddMainCategory@CMFCRibbonBar@@QAEPAVCMFCRibbonMainPanel@@PBDIIVCSize@@1PAUCRuntimeClass@@@Z @ 1907 NONAME
 ?AddMenu@CContextMenuManager@@QAEHII@Z @ 1908 NONAME
 ?AddMenu@CContextMenuManager@@QAEHPBDI@Z @ 1909 NONAME
 ?AddMenu@CFileDialog@@QAEJKABV?$CStringT@DV?$StrTraitMFC_DLL@DV?$ChTraitsCRT@D@ATL@@@@@ATL@@@Z @ 1910 NONAME
 ?AddMenu@CMFCToolBarsCustomizeDialog@@QAEHI@Z @ 1911 NONAME
 ?AddMenuCommands@CMFCToolBarsCustomizeDialog@@QAEXPBVCMenu@@HPBD1@Z @ 1912 NONAME
 ?AddMiniFrame@CDockingManager@@UAEHPAVCPaneFrameWnd@@@Z @ 1913 NONAME
 ?AddMRUFilesList@CMFCTasksPane@@QAEHHH@Z @ 1914 NONAME
 ?AddNew@CDaoRecordset@@UAEXXZ @ 1915 NONAME
 ?AddNew@CRecordset@@UAEXXZ @ 1916 NONAME
 ?AddNode@CPaneContainer@@IAEXPAV1@@Z @ 1917 NONAME
 ?AddOption@CMFCPropertyGridProperty@@QAEHPBDH@Z @ 1918 NONAME
 ?AddOtherClipboardData@COleServerItem@@QAEXPAVCOleDataSource@@@Z @ 1919 NONAME
 ?AddPage@CMFCPropertySheet@@QAEXPAVCPropertyPage@@@Z @ 1920 NONAME
 ?AddPage@CMFCTasksPane@@QAEHPBD@Z @ 1921 NONAME
 ?AddPage@CPropertySheet@@QAEXPAVCPropertyPage@@@Z @ 1922 NONAME
 ?AddPageToTree@CMFCPropertySheet@@QAEXPAVCMFCPropertySheetCategoryInfo@@PAVCMFCPropertyPage@@HH@Z @ 1923 NONAME
 ?AddPane@CBasePane@@QAEXPAV1@@Z @ 1924 NONAME
 ?AddPane@CDockingManager@@QAEHPAVCBasePane@@HHH@Z @ 1925 NONAME
 ?AddPane@CDockingPanesRow@@UAEXPAVCPane@@W4AFX_DOCK_METHOD@@PBUtagRECT@@H@Z @ 1926 NONAME
 ?AddPane@CFrameWndEx@@QAEHPAVCBasePane@@H@Z @ 1927 NONAME
 ?AddPane@CMDIChildWndEx@@QAEHPAVCBasePane@@H@Z @ 1928 NONAME
 ?AddPane@CMDIFrameWndEx@@QAEHPAVCBasePane@@H@Z @ 1929 NONAME
 ?AddPane@CMultiPaneFrameWnd@@UAEXPAVCBasePane@@@Z @ 1930 NONAME
 ?AddPane@COleCntrFrameWndEx@@QAEHPAVCBasePane@@H@Z @ 1931 NONAME
 ?AddPane@COleDocIPFrameWndEx@@QAEHPAVCBasePane@@H@Z @ 1932 NONAME
 ?AddPane@COleIPFrameWndEx@@QAEHPAVCBasePane@@H@Z @ 1933 NONAME
 ?AddPane@CPaneContainer@@QAEPAVCDockablePane@@PAV2@@Z @ 1934 NONAME
 ?AddPane@CPaneContainerManager@@UAEXPAVCDockablePane@@@Z @ 1935 NONAME
 ?AddPane@CPaneDivider@@UAEXPAVCDockablePane@@@Z @ 1936 NONAME
 ?AddPane@CPaneFrameWnd@@UAEXPAVCBasePane@@@Z @ 1937 NONAME
 ?AddPaneAndPaneContainer@CPaneContainerManager@@IAEHPAVCDockablePane@@PAVCPaneContainer@@K@Z @ 1938 NONAME
 ?AddPaneAndPaneDivider@CPaneContainerManager@@IAEHPAVCDockablePane@@0PAU__POSITION@@K@Z @ 1939 NONAME
 ?AddPaneContainer@CPaneDivider@@UAEHAAVCPaneContainerManager@@H@Z @ 1940 NONAME
 ?AddPaneContainer@CPaneDivider@@UAEHPAVCDockablePane@@AAVCPaneContainerManager@@K@Z @ 1941 NONAME
 ?AddPaneContainerManager@CPaneContainerManager@@UAEHAAV1@H@Z @ 1942 NONAME
 ?AddPaneContainerManager@CPaneContainerManager@@UAEHPAVCDockablePane@@KAAV1@H@Z @ 1943 NONAME
 ?AddPaneContainerManagerToDockablePane@CPaneContainerManager@@UAEHPAVCDockablePane@@AAV1@@Z @ 1944 NONAME
 ?AddPaneFromRow@CDockingPanesRow@@UAEXPAVCPane@@W4AFX_DOCK_METHOD@@@Z @ 1945 NONAME
 ?AddPanel@CMFCRibbonCategory@@QAEPAVCMFCRibbonPanel@@PBDPAUHICON__@@PAUCRuntimeClass@@@Z @ 1946 NONAME
 ?AddPanesToList@CPaneContainerManager@@QAEXPAVCObList@@0@Z @ 1947 NONAME
 ?AddPaneToList@CPaneContainerManager@@QAEXPAVCDockablePane@@@Z @ 1948 NONAME
 ?AddPaneToRecentPaneContainer@CPaneContainerManager@@UAEPAVCDockablePane@@PAV2@PAVCPaneContainer@@@Z @ 1949 NONAME
 ?AddPlace@CFileDialog@@QAEXPAUIShellItem@@W4FDAP@@@Z @ 1950 NONAME
 ?AddPlace@CFileDialog@@QAEXPB_WW4FDAP@@@Z @ 1951 NONAME
 ?AddPrintPreviewCategory@CMFCRibbonBar@@QAEPAVCMFCRibbonCategory@@XZ @ 1952 NONAME
 ?AddProperty@CMFCPropertyGridCtrl@@QAEHPAVCMFCPropertyGridProperty@@HH@Z @ 1953 NONAME
 ?AddProperty@CPropertySection@@QAEXPAVCProperty@@@Z @ 1954 NONAME
 ?AddProperty@CPropertySet@@QAEXU_GUID@@PAVCProperty@@@Z @ 1955 NONAME
 ?AddPushButton@CFileDialog@@QAEJKABV?$CStringT@DV?$StrTraitMFC_DLL@DV?$ChTraitsCRT@D@ATL@@@@@ATL@@@Z @ 1956 NONAME
 ?AddQATOnlyCategory@CMFCRibbonBar@@QAEPAVCMFCRibbonCategory@@PBDIVCSize@@@Z @ 1957 NONAME
 ?AddQuadraticBezier@CD2DGeometrySink@@QAEXABUD2D1_QUADRATIC_BEZIER_SEGMENT@@@Z @ 1958 NONAME
 ?AddQuadraticBeziers@CD2DGeometrySink@@QAEXABV?$CArray@UD2D1_QUADRATIC_BEZIER_SEGMENT@@U1@@@@Z @ 1959 NONAME
 ?AddRadioButtonList@CFileDialog@@QAEJK@Z @ 1960 NONAME
 ?AddRecentFilesList@CMFCRibbonMainPanel@@QAEXPBDH@Z @ 1961 NONAME
 ?AddRecentPane@CMultiPaneFrameWnd@@UAEHPAVCDockablePane@@@Z @ 1962 NONAME
 ?AddRecentPane@CPaneDivider@@UAEPAVCDockablePane@@PAV2@@Z @ 1963 NONAME
 ?AddRef@CArchiveStream@@UAGKXZ @ 1964 NONAME
 ?AddRef@CBlobProperty@@UAGKXZ @ 1965 NONAME
 ?AddRef@CBrowserControlSite@@MAGKXZ @ 1966 NONAME
 ?AddRef@CDHtmlControlSink@@UAGKXZ @ 1967 NONAME
 ?AddRef@CDHtmlElementEventSink@@UAGKXZ @ 1968 NONAME
 ?AddRef@CDHtmlEventSink@@UAGKXZ @ 1969 NONAME
 ?AddRef@CInnerUnknown@@UAGKXZ @ 1970 NONAME
 ?AddRef@COleConnPtContainer@@UAGKXZ @ 1971 NONAME
 ?AddRef@COleDispatchImpl@@UAGKXZ @ 1972 NONAME
 ?AddRef@COleUILinkInfo@@UAGKXZ @ 1973 NONAME
 ?AddRef@CPaneContainer@@QAEXXZ @ 1974 NONAME
 ?AddRef@CPrintDialogEx@@UAGKXZ @ 1975 NONAME
 ?AddRemovePaneFromGlobalList@CPaneFrameWnd@@SGHPAVCBasePane@@H@Z @ 1976 NONAME
 ?AddRemoveSeparator@CMFCToolBar@@MAEXPBVCMFCToolBarButton@@ABVCPoint@@1@Z @ 1977 NONAME
 ?AddReplaceBitmap@CToolBar@@QAEHPAUHBITMAP__@@@Z @ 1978 NONAME
 ?AddRequestHeaders@CHttpFile@@QAEHAAV?$CStringT@DV?$StrTraitMFC_DLL@DV?$ChTraitsCRT@D@ATL@@@@@ATL@@K@Z @ 1979 NONAME
 ?AddRequestHeaders@CHttpFile@@QAEHPBDKH@Z @ 1980 NONAME
 ?AddRow@CDockSite@@QAEPAVCDockingPanesRow@@PAU__POSITION@@H@Z @ 1981 NONAME
 ?AddSection@CPropertySet@@QAEPAVCPropertySection@@U_GUID@@@Z @ 1982 NONAME
 ?AddSection@CPropertySet@@QAEXPAVCPropertySection@@@Z @ 1983 NONAME
 ?AddSeparator@CFileDialog@@QAEJK@Z @ 1984 NONAME
 ?AddSeparator@CMFCRibbonPanel@@UAEXXZ @ 1985 NONAME
 ?AddSeparator@CMFCRibbonStatusBar@@QAEXXZ @ 1986 NONAME
 ?AddSortedItem@CMFCToolBarComboBoxButton@@UAEHPBDK@Z @ 1987 NONAME
 ?AddStandardFormats@COlePasteSpecialDialog@@QAEXH@Z @ 1988 NONAME
 ?AddString@CMFCDropDownListBox@@QAEXPBD@Z @ 1989 NONAME
 ?AddString@CToolBarCtrl@@QAEHI@Z @ 1990 NONAME
 ?AddSubItem@CMFCPropertyGridProperty@@QAEHPAV1@@Z @ 1991 NONAME
 ?AddSubItem@CMFCRibbonButton@@QAEXPAVCMFCRibbonBaseElement@@H@Z @ 1992 NONAME
 ?AddSubItem@CMFCRibbonGallery@@QAEXPAVCMFCRibbonBaseElement@@HH@Z @ 1993 NONAME
 ?AddSubPaneContainer@CPaneContainer@@QAEHPAV1@H@Z @ 1994 NONAME
 ?AddTab@CBaseTabbedPane@@UAEHPAVCWnd@@HHH@Z @ 1995 NONAME
 ?AddTab@CMFCBaseTabCtrl@@UAEXPAVCWnd@@IIH@Z @ 1996 NONAME
 ?AddTab@CMFCBaseTabCtrl@@UAEXPAVCWnd@@PBDIH@Z @ 1997 NONAME
 ?AddTabbedPane@CMDIChildWndEx@@QAEXPAVCDockablePane@@@Z @ 1998 NONAME
 ?AddTail@CObList@@QAEPAU__POSITION@@PAVCObject@@@Z @ 1999 NONAME
 ?AddTail@CObList@@QAEXPAV1@@Z @ 2000 NONAME
 ?AddTail@CPtrList@@QAEPAU__POSITION@@PAX@Z @ 2001 NONAME
 ?AddTail@CPtrList@@QAEXPAV1@@Z @ 2002 NONAME
 ?AddTail@CStringList@@QAEPAU__POSITION@@ABV?$CStringT@DV?$StrTraitMFC_DLL@DV?$ChTraitsCRT@D@ATL@@@@@ATL@@@Z @ 2003 NONAME
 ?AddTail@CStringList@@QAEPAU__POSITION@@PBD@Z @ 2004 NONAME
 ?AddTail@CStringList@@QAEXPAV1@@Z @ 2005 NONAME
 ?AddTask@CJumpList@@QAEHPAUIShellLinkA@@@Z @ 2006 NONAME
 ?AddTask@CJumpList@@QAEHPBD000H@Z @ 2007 NONAME
 ?AddTask@CMFCTasksPane@@QAEHHPBDHIK@Z @ 2008 NONAME
 ?AddTasks@CJumpList@@QAEHPAUIObjectArray@@@Z @ 2009 NONAME
 ?AddTaskSeparator@CJumpList@@QAEHXZ @ 2010 NONAME
 ?AddTearOffToolbar@CFrameImpl@@IAEXPAVCBasePane@@@Z @ 2011 NONAME
 ?AddTerminalProp@CMFCPropertyGridProperty@@IAEXAAV?$CList@PAVCMFCPropertyGridProperty@@PAV1@@@@Z @ 2012 NONAME
 ?AddText@CFileDialog@@QAEJKABV?$CStringT@DV?$StrTraitMFC_DLL@DV?$ChTraitsCRT@D@ATL@@@@@ATL@@@Z @ 2013 NONAME
 ?AddToBottom@CMFCRibbonMainPanel@@QAEXPAVCMFCRibbonMainPanelButton@@@Z @ 2014 NONAME
 ?AddToKeyList@CMFCRibbonBaseElement@@UAEXAAV?$CArray@PAVCMFCRibbonKeyTip@@PAV1@@@@Z @ 2015 NONAME
 ?AddToKeyList@CMFCRibbonButtonsGroup@@MAEXAAV?$CArray@PAVCMFCRibbonKeyTip@@PAV1@@@@Z @ 2016 NONAME
 ?AddToListBox@CMFCRibbonBaseElement@@UAEHPAVCMFCRibbonCommandsListBox@@H@Z @ 2017 NONAME
 ?AddToListBox@CMFCRibbonButton@@MAEHPAVCMFCRibbonCommandsListBox@@H@Z @ 2018 NONAME
 ?AddToListBox@CMFCRibbonButtonsGroup@@MAEHPAVCMFCRibbonCommandsListBox@@H@Z @ 2019 NONAME
 ?AddToListBox@CMFCRibbonSeparator@@UAEHPAVCMFCRibbonCommandsListBox@@H@Z @ 2020 NONAME
 ?AddTool@CToolTipCtrl@@QAEHPAVCWnd@@IPBUtagRECT@@I@Z @ 2021 NONAME
 ?AddTool@CToolTipCtrl@@QAEHPAVCWnd@@PBDPBUtagRECT@@I@Z @ 2022 NONAME
 ?AddToolBar@CMFCRibbonPanel@@QAEPAVCMFCRibbonButtonsGroup@@IIII@Z @ 2023 NONAME
 ?AddToolBar@CMFCToolBarsCustomizeDialog@@QAEHII@Z @ 2024 NONAME
 ?AddToolBar@CMFCToolBarsCustomizeDialog@@QAEHPBDI@Z @ 2025 NONAME
 ?AddToolBarForImageCollection@CMFCToolBar@@SGHIIIIII@Z @ 2026 NONAME
 ?AddToRecentFileList@CWinApp@@UAEXPBD@Z @ 2027 NONAME
 ?AddToRight@CMFCRibbonMainPanel@@QAEXPAVCMFCRibbonBaseElement@@H@Z @ 2028 NONAME
 ?AddToStoryboard@CBaseKeyFrame@@UAEHPAUIUIAnimationStoryboard@@H@Z @ 2029 NONAME
 ?AddToStoryboard@CBaseTransition@@QAEHPAUIUIAnimationStoryboard@@@Z @ 2030 NONAME
 ?AddToStoryboard@CKeyFrame@@UAEHPAUIUIAnimationStoryboard@@H@Z @ 2031 NONAME
 ?AddToStoryboardAfterTransition@CKeyFrame@@QAEHPAUIUIAnimationStoryboard@@H@Z @ 2032 NONAME
 ?AddToStoryboardAtKeyframes@CBaseTransition@@QAEHPAUIUIAnimationStoryboard@@@Z @ 2033 NONAME
 ?AddToStoryboardAtOffset@CKeyFrame@@UAEHPAUIUIAnimationStoryboard@@H@Z @ 2034 NONAME
 ?AddToTabs@CMFCRibbonBar@@QAEXPAVCMFCRibbonBaseElement@@@Z @ 2035 NONAME
 ?AddTransition@CAnimationColor@@QAEXPAVCBaseTransition@@00@Z @ 2036 NONAME
 ?AddTransition@CAnimationPoint@@QAEXPAVCBaseTransition@@0@Z @ 2037 NONAME
 ?AddTransition@CAnimationRect@@QAEXPAVCBaseTransition@@000@Z @ 2038 NONAME
 ?AddTransition@CAnimationSize@@QAEXPAVCBaseTransition@@0@Z @ 2039 NONAME
 ?AddTransition@CAnimationValue@@QAEXPAVCBaseTransition@@@Z @ 2040 NONAME
 ?AddTransition@CAnimationVariable@@QAEXPAVCBaseTransition@@@Z @ 2041 NONAME
 ?AddTransitions@CAnimationGroup@@IAEXPAUIUIAnimationStoryboard@@H@Z @ 2042 NONAME
 ?AddTreeCategory@CMFCPropertySheet@@QAEPAVCMFCPropertySheetCategoryInfo@@PBDHHPBV2@@Z @ 2043 NONAME
 ?AddUndoAction@CMFCRibbonUndoButton@@QAEXPBD@Z @ 2044 NONAME
 ?AddUserTools@CMFCToolBarsCustomizeDialog@@IAEXPBD@Z @ 2045 NONAME
 ?AddView@CDocument@@QAEXPAVCView@@@Z @ 2046 NONAME
 ?AddView@CMouseManager@@QAEHHII@Z @ 2047 NONAME
 ?AddView@CMouseManager@@QAEHHPBDI@Z @ 2048 NONAME
 ?AddView@CTabView@@QAEHPAUCRuntimeClass@@ABV?$CStringT@DV?$StrTraitMFC_DLL@DV?$ChTraitsCRT@D@ATL@@@@@ATL@@HPAUCCreateContext@@@Z @ 2049 NONAME
 ?AddVirtKeyStr@CMFCAcceleratorKey@@IBEXAAV?$CStringT@DV?$StrTraitMFC_DLL@DV?$ChTraitsCRT@D@ATL@@@@@ATL@@IH@Z @ 2050 NONAME
 ?AddWindow@CMFCTasksPane@@QAEHHPAUHWND__@@HHK@Z @ 2051 NONAME
 ?AdjustButtonRect@CMFCPropertyGridProperty@@UAEXXZ @ 2052 NONAME
 ?AdjustClientArea@CFrameWndEx@@MAEXXZ @ 2053 NONAME
 ?AdjustClientArea@CMDIChildWndEx@@IAEXXZ @ 2054 NONAME
 ?AdjustClientArea@CMDIFrameWndEx@@UAEXXZ @ 2055 NONAME
 ?AdjustClientArea@COleCntrFrameWndEx@@QAEXXZ @ 2056 NONAME
 ?AdjustControlWidth@CMFCStandardColorsPropertyPage@@AAEXPAVCMFCColorPickerCtrl@@H@Z @ 2057 NONAME
 ?AdjustCP@CMetaFileDC@@IAEXH@Z @ 2058 NONAME
 ?AdjustDialogPosition@CRichEditView@@QAEXPAVCDialog@@@Z @ 2059 NONAME
 ?AdjustDockingLayout@CBasePane@@UAEXPAX@Z @ 2060 NONAME
 ?AdjustDockingLayout@CDockingManager@@UAEXPAX@Z @ 2061 NONAME
 ?AdjustDockingLayout@CDockSite@@UAEXXZ @ 2062 NONAME
 ?AdjustDockingLayout@CFrameWndEx@@UAEXPAX@Z @ 2063 NONAME
 ?AdjustDockingLayout@CMDIChildWndEx@@UAEXPAX@Z @ 2064 NONAME
 ?AdjustDockingLayout@CMDIFrameWndEx@@UAEXPAX@Z @ 2065 NONAME
 ?AdjustDockingLayout@COleCntrFrameWndEx@@UAEXPAX@Z @ 2066 NONAME
 ?AdjustDockingLayout@COleDocIPFrameWndEx@@UAEXPAX@Z @ 2067 NONAME
 ?AdjustDockingLayout@COleIPFrameWndEx@@UAEXPAX@Z @ 2068 NONAME
 ?AdjustFrames@CMFCVisualManager@@SGXXZ @ 2069 NONAME
 ?AdjustInPlaceEditRect@CMFCPropertyGridColorProperty@@MAEXAAVCRect@@0@Z @ 2070 NONAME
 ?AdjustInPlaceEditRect@CMFCPropertyGridProperty@@UAEXAAVCRect@@0@Z @ 2071 NONAME
 ?AdjustLayout@CDockSite@@UAEXXZ @ 2072 NONAME
 ?AdjustLayout@CMFCCaptionBar@@MAEXXZ @ 2073 NONAME
 ?AdjustLayout@CMFCPopupMenuBar@@MAEXXZ @ 2074 NONAME
 ?AdjustLayout@CMFCPropertyGridCtrl@@UAEXXZ @ 2075 NONAME
 ?AdjustLayout@CMFCTasksPaneToolBar@@MAEXXZ @ 2076 NONAME
 ?AdjustLayout@CMFCToolBar@@UAEXXZ @ 2077 NONAME
 ?AdjustLayout@CPaneFrameWnd@@UAEXXZ @ 2078 NONAME
 ?AdjustLayout@CVSListBoxBase@@IAEXXZ @ 2079 NONAME
 ?AdjustLocations@CMFCColorBar@@MAEXXZ @ 2080 NONAME
 ?AdjustLocations@CMFCMenuBar@@UAEXXZ @ 2081 NONAME
 ?AdjustLocations@CMFCOutlookBarPane@@MAEXXZ @ 2082 NONAME
 ?AdjustLocations@CMFCOutlookBarToolBar@@UAEXXZ @ 2083 NONAME
 ?AdjustLocations@CMFCPopupMenuBar@@MAEXXZ @ 2084 NONAME
 ?AdjustLocations@CMFCRibbonPanelMenuBar@@UAEXXZ @ 2085 NONAME
 ?AdjustLocations@CMFCTasksPaneToolBar@@MAEXXZ @ 2086 NONAME
 ?AdjustLocations@CMFCToolBar@@MAEXXZ @ 2087 NONAME
 ?AdjustMDIChildren@CMDIClientAreaWnd@@AAEXPAVCMFCTabCtrl@@@Z @ 2088 NONAME
 ?AdjustPaneFrames@CDockingManager@@UAEXXZ @ 2089 NONAME
 ?AdjustPaneFrames@CMultiPaneFrameWnd@@UAEXXZ @ 2090 NONAME
 ?AdjustPaneToPaneContainer@CDockablePane@@MAEXPAVCPaneDivider@@@Z @ 2091 NONAME
 ?AdjustPaneToRowArea@CDockingPanesRow@@IAEXPAVCPane@@ABVCRect@@AAPAX@Z @ 2092 NONAME
 ?AdjustPos@CSmartDockingGroupGuide@@UAEXVCRect@@@Z @ 2093 NONAME
 ?AdjustPos@CSmartDockingGroupGuidesManager@@UAEHVCRect@@H@Z @ 2094 NONAME
 ?AdjustPos@CSmartDockingStandaloneGuide@@UAEXVCRect@@@Z @ 2095 NONAME
 ?AdjustRect@CMFCToolBarComboBoxButton@@IAEXXZ @ 2096 NONAME
 ?AdjustRect@CMFCToolBarDateTimeCtrl@@IAEXXZ @ 2097 NONAME
 ?AdjustRect@CRectTracker@@UAEXHPAUtagRECT@@@Z @ 2098 NONAME
 ?AdjustRect@XOleIPSite@COleControlSite@@UAGJPAUtagRECT@@@Z @ 2099 NONAME
 ?AdjustRectToClientArea@CDockingManager@@UAEHAAVCRect@@K@Z @ 2100 NONAME
 ?AdjustRectToMargin@CMFCCaptionBar@@IAEXAAVCRect@@ABV2@HH@Z @ 2101 NONAME
 ?AdjustRectToWorkArea@CGlobalUtils@@QAEXAAVCRect@@PAV2@@Z @ 2102 NONAME
 ?AdjustScroll@CMFCPopupMenu@@IAEHH@Z @ 2103 NONAME
 ?AdjustScroll@CMFCTasksPane@@IAEXXZ @ 2104 NONAME
 ?AdjustSize@CMFCToolBar@@QAEXXZ @ 2105 NONAME
 ?AdjustSizeImmediate@CPane@@UAEXH@Z @ 2106 NONAME
 ?AdjustTabs@CMFCTabCtrl@@MAEXXZ @ 2107 NONAME
 ?AdjustTabsScroll@CMFCTabCtrl@@MAEXXZ @ 2108 NONAME
 ?AdjustToolbars@CMFCVisualManager@@SGXXZ @ 2109 NONAME
 ?AdjustWndScroll@CMFCTabCtrl@@MAEXXZ @ 2110 NONAME
 ?Advise@CDHtmlElementEventSink@@QAEJPAUIUnknown@@ABU_GUID@@@Z @ 2111 NONAME
 ?Advise@XConnPt@CConnectionPoint@@UAGJPAUIUnknown@@PAK@Z @ 2112 NONAME
 ?Advise@XOleObject@CDocObjectServer@@UAGJPAUIAdviseSink@@PAK@Z @ 2113 NONAME
 ?Advise@XOleObject@COleControl@@UAGJPAUIAdviseSink@@PAK@Z @ 2114 NONAME
 ?Advise@XOleObject@COleServerDoc@@UAGJPAUIAdviseSink@@PAK@Z @ 2115 NONAME
 ?Advise@XOleObject@COleServerItem@@UAGJPAUIAdviseSink@@PAK@Z @ 2116 NONAME
 ?AFX_TAB_IMAGE_MARGIN@CMFCBaseTabCtrl@@2HA @ 2117 NONAME DATA
 ?AFX_TAB_TEXT_MARGIN@CMFCBaseTabCtrl@@2HA @ 2118 NONAME DATA
 ?AFX_WM_AFTER_TASKBAR_ACTIVATE@@3IA @ 2119 NONAME DATA
 ?AFX_WM_CHANGE_ACTIVE_TAB@@3IA @ 2120 NONAME DATA
 ?AFX_WM_CHANGE_CURRENT_FOLDER@@3IA @ 2121 NONAME DATA
 ?AFX_WM_CHANGEVISUALMANAGER@@3IA @ 2122 NONAME DATA
 ?AFX_WM_CHANGING_ACTIVE_TAB@@3IA @ 2123 NONAME DATA
 ?AFX_WM_CHECKEMPTYMINIFRAME@@3IA @ 2124 NONAME DATA
 ?AFX_WM_CREATETOOLBAR@@3IA @ 2125 NONAME DATA
 ?AFX_WM_CUSTOMIZEHELP@@3IA @ 2126 NONAME DATA
 ?AFX_WM_CUSTOMIZETOOLBAR@@3IA @ 2127 NONAME DATA
 ?AFX_WM_DELETETOOLBAR@@3IA @ 2128 NONAME DATA
 ?AFX_WM_DRAW2D@@3IA @ 2129 NONAME DATA
 ?AFX_WM_GETDOCUMENTCOLORS@@3IA @ 2130 NONAME DATA
 ?AFX_WM_GETDRAGBOUNDS@@3IA @ 2131 NONAME DATA
 ?AFX_WM_ON_AFTER_SHELL_COMMAND@@3IA @ 2132 NONAME DATA
 ?AFX_WM_ON_BEFORE_SHOW_RIBBON_ITEM_MENU@@3IA @ 2133 NONAME DATA
 ?AFX_WM_ON_CANCELTABMOVE@@3IA @ 2134 NONAME DATA
 ?AFX_WM_ON_CHANGE_RIBBON_CATEGORY@@3IA @ 2135 NONAME DATA
 ?AFX_WM_ON_CLOSEPOPUPWINDOW@@3IA @ 2136 NONAME DATA
 ?AFX_WM_ON_DRAGCOMPLETE@@3IA @ 2137 NONAME DATA
 ?AFX_WM_ON_GET_TAB_TOOLTIP@@3IA @ 2138 NONAME DATA
 ?AFX_WM_ON_HIGHLIGHT_RIBBON_LIST_ITEM@@3IA @ 2139 NONAME DATA
 ?AFX_WM_ON_HSCROLL@@3IA @ 2140 NONAME DATA
 ?AFX_WM_ON_MOVE_TAB@@3IA @ 2141 NONAME DATA
 ?AFX_WM_ON_MOVETABCOMPLETE@@3IA @ 2142 NONAME DATA
 ?AFX_WM_ON_MOVETOTABGROUP@@3IA @ 2143 NONAME DATA
 ?AFX_WM_ON_PRESS_CLOSE_BUTTON@@3IA @ 2144 NONAME DATA
 ?AFX_WM_ON_RENAME_TAB@@3IA @ 2145 NONAME DATA
 ?AFX_WM_ON_RIBBON_CUSTOMIZE@@3IA @ 2146 NONAME DATA
 ?AFX_WM_ON_TABGROUPMOUSEMOVE@@3IA @ 2147 NONAME DATA
 ?AFX_WM_POSTRECALCLAYOUT@@3IA @ 2148 NONAME DATA
 ?AFX_WM_POSTSETPREVIEWFRAME@@3IA @ 2149 NONAME DATA
 ?AFX_WM_PROPERTY_CHANGED@@3IA @ 2150 NONAME DATA
 ?AFX_WM_RECREATED2DRESOURCES@@3IA @ 2151 NONAME DATA
 ?AFX_WM_RESETCONTEXTMENU@@3IA @ 2152 NONAME DATA
 ?AFX_WM_RESETKEYBOARD@@3IA @ 2153 NONAME DATA
 ?AFX_WM_RESETMENU@@3IA @ 2154 NONAME DATA
 ?AFX_WM_RESETRPROMPT@@3IA @ 2155 NONAME DATA
 ?AFX_WM_RESETTOOLBAR@@3IA @ 2156 NONAME DATA
 ?AFX_WM_SHOWREGULARMENU@@3IA @ 2157 NONAME DATA
 ?AFX_WM_TOOLBARMENU@@3IA @ 2158 NONAME DATA
 ?AFX_WM_UPDATETOOLTIPS@@3IA @ 2159 NONAME DATA
 ?AFX_WM_WINDOW_HELP@@3IA @ 2160 NONAME DATA
 ?AfxA2WHelper@@YGPA_WPA_WPBDH@Z @ 2161 NONAME
 ?AfxAbort@@YGXXZ @ 2162 NONAME
 ?AfxApplicationRecoveryWrapper@@YGKPAX@Z @ 2163 NONAME
 ?AfxAutosaveTimerProc@@YGXPAUHWND__@@IIK@Z @ 2164 NONAME
 ?AfxBeginThread@@YGPAVCWinThread@@P6AIPAX@Z0HIKPAU_SECURITY_ATTRIBUTES@@@Z @ 2165 NONAME
 ?AfxBeginThread@@YGPAVCWinThread@@PAUCRuntimeClass@@HIKPAU_SECURITY_ATTRIBUTES@@@Z @ 2166 NONAME
 ?AfxBSTR2ABSTR@@YGPA_WPA_W@Z @ 2167 NONAME
 ?AfxBSTR2CString@@YGXPAV?$CStringT@DV?$StrTraitMFC_DLL@DV?$ChTraitsCRT@D@ATL@@@@@ATL@@PA_W@Z @ 2168 NONAME
 ?AfxCallWndProc@@YGJPAVCWnd@@PAUHWND__@@IIJ@Z @ 2169 NONAME
 ?AfxCancelModes@@YGXPAUHWND__@@@Z @ 2170 NONAME
 ?AfxCheckError@@YGXJ@Z @ 2171 NONAME
 ?AfxClassInit@@YGXPAUCRuntimeClass@@@Z @ 2172 NONAME
 ?AfxComparePath@@YGHPBD0@Z @ 2173 NONAME
 ?AfxCompareValueByRef@@YGHPAX0H@Z @ 2174 NONAME
 ?AfxConnectionAdvise@@YGHPAUIUnknown@@ABU_GUID@@0HPAK@Z @ 2175 NONAME
 ?AfxConnectionUnadvise@@YGHPAUIUnknown@@ABU_GUID@@0HK@Z @ 2176 NONAME
 ?AfxCopyValueByRef@@YGXPAX0PAJH@Z @ 2177 NONAME
 ?AfxCoreInitModule@@YGXXZ @ 2178 NONAME
 ?AfxCreateDC@@YGPAUHDC__@@PAX0@Z @ 2179 NONAME
 ?AfxCriticalInit@@YGHXZ @ 2180 NONAME
 ?AfxCriticalNewHandler@@YAHI@Z @ 2181 NONAME
 ?AfxCriticalTerm@@YGXXZ @ 2182 NONAME
 ?AfxCustomLogFont@@YGHIPAUtagLOGFONTA@@@Z @ 2183 NONAME
 ?AfxDaoCheck@@YGXJPBD0HHH@Z @ 2184 NONAME
 ?AfxDaoGetEngine@@YGPAU_DAODBEngine@@XZ @ 2185 NONAME
 ?AfxDaoInit@@YGXXZ @ 2186 NONAME
 ?AfxDaoTerm@@YGXXZ @ 2187 NONAME
 ?afxData@@3UAUX_DATA@@A @ 2188 NONAME DATA
 ?AfxDeleteObject@@YGXPAPAX@Z @ 2189 NONAME
 ?AfxDelRegTreeHelper@@YGJPAUHKEY__@@ABV?$CStringT@DV?$StrTraitMFC_DLL@DV?$ChTraitsCRT@D@ATL@@@@@ATL@@PAVCAtlTransactionManager@3@@Z @ 2190 NONAME
 ?AfxDevModeA2W@@YGPAU_devicemodeW@@PAU1@PAU_devicemodeA@@@Z @ 2191 NONAME
 ?AfxDevModeW2A@@YGPAU_devicemodeA@@PAU1@PAU_devicemodeW@@@Z @ 2192 NONAME
 ?AfxDlgProc@@YGHPAUHWND__@@IIJ@Z @ 2193 NONAME
 ?AfxDllCanUnloadNow@@YGJXZ @ 2194 NONAME
 ?AfxDllGetClassObject@@YGJABU_GUID@@0PAPAX@Z @ 2195 NONAME
 ?AfxDoRegisterMFCControlClass@@YAXPBD0@Z @ 2196 NONAME
 ?AfxDrawDitheredBitmap@@YGXPAVCDC@@HHABVCBitmap@@KK@Z @ 2197 NONAME
 ?AfxDrawGrayBitmap@@YGXPAVCDC@@HHABVCBitmap@@K@Z @ 2198 NONAME
 ?AfxDynamicDownCast@@YAPAVCObject@@PAUCRuntimeClass@@PAV1@@Z @ 2199 NONAME
 ?AfxEnableControlContainer@@YAXPAVCOccManager@@@Z @ 2200 NONAME
 ?AfxEndDeferRegisterClass@@YGHJ@Z @ 2201 NONAME
 ?AfxEndThread@@YGXIH@Z @ 2202 NONAME
 ?AfxEnumMetaFileProc@@YGHPAUHDC__@@PAUtagHANDLETABLE@@PAUtagMETARECORD@@HJ@Z @ 2203 NONAME
 ?AfxExtractSubString@@YGHAAV?$CStringT@DV?$StrTraitMFC_DLL@DV?$ChTraitsCRT@D@ATL@@@@@ATL@@PBDHD@Z @ 2204 NONAME
 ?AfxFailMaxChars@@YGXPAVCDataExchange@@H@Z @ 2205 NONAME
 ?AfxFailRadio@@YGXPAVCDataExchange@@@Z @ 2206 NONAME
 ?AfxFieldText@@YGHPAVCDataExchange@@HPAXPAVCDaoRecordset@@@Z @ 2207 NONAME
 ?AfxFieldText@@YGHPAVCDataExchange@@HPAXPAVCRecordset@@@Z @ 2208 NONAME
 ?AfxFindMessageEntry@@YGPBUAFX_MSGMAP_ENTRY@@PBU1@III@Z @ 2209 NONAME
 ?AfxFindResourceHandle@@YGPAUHINSTANCE__@@PBD0@Z @ 2210 NONAME
 ?AfxFindStringResourceHandle@@YGPAUHINSTANCE__@@I@Z @ 2211 NONAME
 ?AfxFormatString1@@YGXAAV?$CStringT@DV?$StrTraitMFC_DLL@DV?$ChTraitsCRT@D@ATL@@@@@ATL@@IPBD@Z @ 2212 NONAME
 ?AfxFormatString2@@YGXAAV?$CStringT@DV?$StrTraitMFC_DLL@DV?$ChTraitsCRT@D@ATL@@@@@ATL@@IPBD1@Z @ 2213 NONAME
 ?AfxFormatStrings@@YGXAAV?$CStringT@DV?$StrTraitMFC_DLL@DV?$ChTraitsCRT@D@ATL@@@@@ATL@@IPBQBDH@Z @ 2214 NONAME
 ?AfxFormatStrings@@YGXAAV?$CStringT@DV?$StrTraitMFC_DLL@DV?$ChTraitsCRT@D@ATL@@@@@ATL@@PBDPBQBDH@Z @ 2215 NONAME
 ?AfxFreeLibrary@@YGHPAUHINSTANCE__@@@Z @ 2216 NONAME
 ?AfxFullPath@@YGHPADPBD@Z @ 2217 NONAME
 ?AfxGetAfxWndProc@@YGP6GJPAUHWND__@@IIJ@ZXZ @ 2218 NONAME
 ?AfxGetAppModuleState@@YGPAVAFX_MODULE_STATE@@XZ @ 2219 NONAME
 ?AfxGetClassIDFromString@@YGJPBDPAU_GUID@@@Z @ 2220 NONAME
 ?AfxGetCurrentMessage@@YGPAUtagMSG@@XZ @ 2221 NONAME
 ?AfxGetD2DState@@YAPAV_AFX_D2D_STATE@@XZ @ 2222 NONAME
 ?AfxGetDaoState@@YAPAV_AFX_DAO_STATE@@XZ @ 2223 NONAME
 ?AfxGetDefaultValue@@YAXPAU_DAOField@@AAV?$CStringT@DV?$StrTraitMFC_DLL@DV?$ChTraitsCRT@D@ATL@@@@@ATL@@@Z @ 2224 NONAME
 ?AfxGetDitheredBitmap@@YGXABVCBitmap@@PAV1@KK@Z @ 2225 NONAME
 ?AfxGetDlgItemStartFromHWND@@YAPAUHWND__@@HPAU1@@Z @ 2226 NONAME
 ?AfxGetDllVersion@@YGKXZ @ 2227 NONAME
 ?AfxGetFieldInfo@@YAXPAU_DAOField@@AAUCDaoFieldInfo@@K@Z @ 2228 NONAME
 ?AfxGetFileName@@YGIPBDPADI@Z @ 2229 NONAME
 ?AfxGetFileTitle@@YGIPBDPADI@Z @ 2230 NONAME
 ?AfxGetGrayBitmap@@YGXABVCBitmap@@PAV1@K@Z @ 2231 NONAME
 ?AfxGetHENV@@YGPAXXZ @ 2232 NONAME
 ?AfxGetIndexFieldInfo@@YAXPAU_DAOIndex@@AAUCDaoIndexInfo@@@Z @ 2233 NONAME
 ?AfxGetIndexFields@@YAXPAU_DAOIndex@@PAPAUDAOIndexFields@@@Z @ 2234 NONAME
 ?AfxGetIndexInfo@@YAXPAU_DAOIndex@@AAUCDaoIndexInfo@@K@Z @ 2235 NONAME
 ?AfxGetInProcServer@@YGHPBDAAV?$CStringT@DV?$StrTraitMFC_DLL@DV?$ChTraitsCRT@D@ATL@@@@@ATL@@@Z @ 2236 NONAME
 ?AfxGetInstanceHandleHelper@@YGPAUHINSTANCE__@@XZ @ 2237 NONAME
 ?AfxGetInternetHandleType@@YGKPAX@Z @ 2238 NONAME
 ?AfxGetModuleFileName@@YGXPAUHINSTANCE__@@AAV?$CStringT@DV?$StrTraitMFC_DLL@DV?$ChTraitsCRT@D@ATL@@@@@ATL@@@Z @ 2239 NONAME
 ?AfxGetModuleShortFileName@@YGXPAUHINSTANCE__@@AAV?$CStringT@DV?$StrTraitMFC_DLL@DV?$ChTraitsCRT@D@ATL@@@@@ATL@@@Z @ 2240 NONAME
 ?AfxGetModuleState@@YGPAVAFX_MODULE_STATE@@XZ @ 2241 NONAME
 ?AfxGetModuleThreadState@@YGPAVAFX_MODULE_THREAD_STATE@@XZ @ 2242 NONAME
 ?AfxGetNewHandler@@YGP6AHI@ZXZ @ 2243 NONAME
 ?AFXGetParentFrame@@YAPAVCFrameWnd@@PBVCWnd@@@Z @ 2244 NONAME
 ?AfxGetParentOwner@@YGPAUHWND__@@PAU1@@Z @ 2245 NONAME
 ?AfxGetPerUserRegistration@@YGHXZ @ 2246 NONAME
 ?AfxGetPropSheetFont@@YGHAAV?$CStringT@DV?$StrTraitMFC_DLL@DV?$ChTraitsCRT@D@ATL@@@@@ATL@@AAGH@Z @ 2247 NONAME
 ?AFXGetRegPath@@YA?AV?$CStringT@DV?$StrTraitMFC_DLL@DV?$ChTraitsCRT@D@ATL@@@@@ATL@@PBD0@Z @ 2248 NONAME
 ?AfxGetRoot@@YGXPBDAAV?$CStringT@DV?$StrTraitMFC_DLL@DV?$ChTraitsCRT@D@ATL@@@@@ATL@@@Z @ 2249 NONAME
 ?AfxGetStringManager@@YGPAUIAtlStringMgr@ATL@@XZ @ 2250 NONAME
 ?AfxGetThread@@YGPAVCWinThread@@XZ @ 2251 NONAME
 ?AfxGetThreadState@@YGPAV_AFX_THREAD_STATE@@XZ @ 2252 NONAME
 ?AfxGetTypeLibCache@@YGPAVCTypeLibCache@@PBU_GUID@@@Z @ 2253 NONAME
 ?afxGlobalData@@3UAFX_GLOBAL_DATA@@A @ 2254 NONAME DATA
 ?AfxGlobalFree@@YGXPAX@Z @ 2255 NONAME
 ?AfxGlobalsAddRef@@YAXXZ @ 2256 NONAME
 ?AfxGlobalsRelease@@YAXXZ @ 2257 NONAME
 ?afxGlobalUtils@@3VCGlobalUtils@@A @ 2258 NONAME DATA
 ?AfxHelpEnabled@@YGHXZ @ 2259 NONAME
 ?AfxHookWindowCreate@@YGXPAVCWnd@@@Z @ 2260 NONAME
 ?AfxHtmlHelp@@YGPAUHWND__@@PAU1@PBDIK@Z @ 2261 NONAME
 ?AfxInitCurrentStateApp@@YGHXZ @ 2262 NONAME
 ?AfxInitExtensionModule@@YGHAAUAFX_EXTENSION_MODULE@@PAUHINSTANCE__@@@Z @ 2263 NONAME
 ?AfxInitLocalData@@YGXPAUHINSTANCE__@@@Z @ 2264 NONAME
 ?AfxInitNetworkAddressControl@@YGHXZ @ 2265 NONAME
 ?AfxInitRichEdit@@YGHXZ @ 2266 NONAME
 ?AfxInitRichEdit2@@YGHXZ @ 2267 NONAME
 ?AfxInitThread@@YGXXZ @ 2268 NONAME
 ?AfxInternalIsIdleMessage@@YAHPAUtagMSG@@@Z @ 2269 NONAME
 ?AfxInternalPreTranslateMessage@@YAHPAUtagMSG@@@Z @ 2270 NONAME
 ?AfxInternalProcessWndProcException@@YGJPAVCException@@PBUtagMSG@@@Z @ 2271 NONAME
 ?AfxInternalPumpMessage@@YGHXZ @ 2272 NONAME
 ?AfxInternetStatusCallback@@YGXPAXKK0K@Z @ 2273 NONAME
 ?AfxIsDescendant@@YGHPAUHWND__@@0@Z @ 2274 NONAME
 ?AfxIsExtendedFrameClass@@YGHPAVCWnd@@@Z @ 2275 NONAME
 ?AfxIsIdleMessage@@YAHPAUtagMSG@@@Z @ 2276 NONAME
 ?AfxIsMFCToolBar@@YGHPAVCWnd@@@Z @ 2277 NONAME
 ?AfxIsModuleDll@@YGHXZ @ 2278 NONAME
 ?AfxIsValidAddress@@YGHPBXIH@Z @ 2279 NONAME
 ?AfxIsValidAtom@@YAHG@Z @ 2280 NONAME
 ?AfxIsValidAtom@@YAHPBD@Z @ 2281 NONAME
 ?AfxIsValidString@@YGHPB_WH@Z @ 2282 NONAME
 ?AfxIsValidString@@YGHPBDH@Z @ 2283 NONAME
 ?afxKeyboardManager@@3PAVCKeyboardManager@@A @ 2284 NONAME DATA
 ?AfxLoadField@@YGXAAVCRecordset@@IPAXPAJ@Z @ 2285 NONAME
 ?AfxLoadLangResourceDLL@@YGPAUHINSTANCE__@@PBD@Z @ 2286 NONAME
 ?AfxLoadLangResourceDLL@@YGPAUHINSTANCE__@@PBD0@Z @ 2287 NONAME
 ?AfxLoadLibrary@@YGPAUHINSTANCE__@@PBD@Z @ 2288 NONAME
 ?AfxLoadLibraryEx@@YGPAUHINSTANCE__@@PBDPAXK@Z @ 2289 NONAME
 ?AfxLoadString@@YGHIPA_WI@Z @ 2290 NONAME
 ?AfxLoadString@@YGHIPADI@Z @ 2291 NONAME
 ?AfxLoadSysColorBitmap@@YGPAUHBITMAP__@@PAUHINSTANCE__@@PAUHRSRC__@@H@Z @ 2292 NONAME
 ?AfxLockGlobals@@YGXH@Z @ 2293 NONAME
 ?AfxLockTempMaps@@YGXXZ @ 2294 NONAME
 ?afxMenuHash@@3VCMenuHash@@A @ 2295 NONAME DATA
 ?AfxMergeMenus@@YGPAUHMENU__@@PAU1@0PAJHH@Z @ 2296 NONAME
 ?AfxMessageBox@@YGHIII@Z @ 2297 NONAME
 ?AfxMessageBox@@YGHPBDII@Z @ 2298 NONAME
 ?AfxOleCanExitApp@@YGHXZ @ 2299 NONAME
 ?AfxOleGetUserCtrl@@YGHXZ @ 2300 NONAME
 ?AfxOleInit@@YGHXZ @ 2301 NONAME
 ?AfxOleInprocRegisterHelper@@YGHPAUHKEY__@@0H@Z @ 2302 NONAME
 ?AfxOleLockApp@@YGXXZ @ 2303 NONAME
 ?AfxOleLockControl@@YGHABU_GUID@@@Z @ 2304 NONAME
 ?AfxOleLockControl@@YGHPBD@Z @ 2305 NONAME
 ?AfxOleOnReleaseAllObjects@@YGXXZ @ 2306 NONAME
 ?AfxOleRegisterControlClass@@YGHPAUHINSTANCE__@@ABU_GUID@@PBDIIHK1GG@Z @ 2307 NONAME
 ?AfxOleRegisterHelper@@YGHPBQBD0HHPAUHKEY__@@@Z @ 2308 NONAME
 ?AfxOleRegisterPropertyPageClass@@YGHPAUHINSTANCE__@@ABU_GUID@@I@Z @ 2309 NONAME
 ?AfxOleRegisterPropertyPageClass@@YGHPAUHINSTANCE__@@ABU_GUID@@IH@Z @ 2310 NONAME
 ?AfxOleRegisterServerClass@@YGHABU_GUID@@PBD11W4OLE_APPTYPE@@PAPBD3H1@Z @ 2311 NONAME
 ?AfxOleRegisterServerClass@@YGHABU_GUID@@PBD11W4OLE_APPTYPE@@PAPBD3H11@Z @ 2312 NONAME
 ?AfxOleRegisterTypeLib@@YGHPAUHINSTANCE__@@ABU_GUID@@PBD2@Z @ 2313 NONAME
 ?AfxOleSetEditMenu@@YGXPAVCOleClientItem@@PAVCMenu@@IIII@Z @ 2314 NONAME
 ?AfxOleSetUserCtrl@@YGXH@Z @ 2315 NONAME
 ?AfxOleTerm@@YGXH@Z @ 2316 NONAME
 ?AfxOleTermOrFreeLib@@YGXHH@Z @ 2317 NONAME
 ?AfxOleUnlockAllControls@@YGXXZ @ 2318 NONAME
 ?AfxOleUnlockApp@@YGXXZ @ 2319 NONAME
 ?AfxOleUnlockControl@@YGHABU_GUID@@@Z @ 2320 NONAME
 ?AfxOleUnlockControl@@YGHPBD@Z @ 2321 NONAME
 ?AfxOleUnregisterClass@@YGHABU_GUID@@PBD@Z @ 2322 NONAME
 ?AfxOleUnregisterHelper@@YGHPBQBD0HPAUHKEY__@@@Z @ 2323 NONAME
 ?AfxOleUnregisterServerClass@@YGHABU_GUID@@PBD11W4OLE_APPTYPE@@PAPBD3@Z @ 2324 NONAME
 ?AfxOleUnregisterTypeLib@@YGHABU_GUID@@GGK@Z @ 2325 NONAME
 ?AfxParseURL@@YGHPBDAAKAAV?$CStringT@DV?$StrTraitMFC_DLL@DV?$ChTraitsCRT@D@ATL@@@@@ATL@@2AAG@Z @ 2326 NONAME
 ?AfxParseURLEx@@YGHPBDAAKAAV?$CStringT@DV?$StrTraitMFC_DLL@DV?$ChTraitsCRT@D@ATL@@@@@ATL@@2AAG22K@Z @ 2327 NONAME
 ?AFXPlaySystemSound@@YAXH@Z @ 2328 NONAME
 ?AfxPostQuitMessage@@YGXH@Z @ 2329 NONAME
 ?AfxPreTranslateMessage@@YAHPAUtagMSG@@@Z @ 2330 NONAME
 ?AFXPrintPreview@@YAXPAVCView@@@Z @ 2331 NONAME
 ?AfxProcessWndProcException@@YGJPAVCException@@PBUtagMSG@@@Z @ 2332 NONAME
 ?AfxPropPageCallback@@YGIPAUHWND__@@IPAU_PROPSHEETPAGEA@@@Z @ 2333 NONAME
 ?AfxPropSheetCallback@@YGHPAUHWND__@@IJ@Z @ 2334 NONAME
 ?AfxPumpMessage@@YGHXZ @ 2335 NONAME
 ?AfxReadStringLength@@YGIAAVCArchive@@AAH@Z @ 2336 NONAME
 ?AfxRegCreateKey@@YGJPAUHKEY__@@PBDPAPAU1@PAVCAtlTransactionManager@ATL@@@Z @ 2337 NONAME
 ?AfxRegDeleteKey@@YGJPAUHKEY__@@PBDPAVCAtlTransactionManager@ATL@@@Z @ 2338 NONAME
 ?AfxRegisterClass@@YGHPAUtagWNDCLASSA@@@Z @ 2339 NONAME
 ?AfxRegisterMFCCtrlClasses@@YAXXZ @ 2340 NONAME
 ?AfxRegisterPreviewHandler@@YGHPBD00@Z @ 2341 NONAME
 ?AfxRegisterSiteFactory@@YGHPAVIControlSiteFactory@@@Z @ 2342 NONAME
 ?AfxRegisterThumbnailHandler@@YGHPBD0K@Z @ 2343 NONAME
 ?AfxRegisterWndClass@@YGPBDIPAUHICON__@@PAUHBRUSH__@@0@Z @ 2344 NONAME
 ?AfxRegOpenKey@@YGJPAUHKEY__@@PBDPAPAU1@PAVCAtlTransactionManager@ATL@@@Z @ 2345 NONAME
 ?AfxRegOpenKeyEx@@YGJPAUHKEY__@@PBDKKPAPAU1@PAVCAtlTransactionManager@ATL@@@Z @ 2346 NONAME
 ?AfxRegQueryValue@@YGJPAUHKEY__@@PBDPADPAJ@Z @ 2347 NONAME
 ?AfxRegSetValue@@YGJPAUHKEY__@@PBDK1K@Z @ 2348 NONAME
 ?AfxReleaseD2DRefs@@YAXXZ @ 2349 NONAME
 ?AfxRepositionWindow@@YGXPAUAFX_SIZEPARENTPARAMS@@PAUHWND__@@PBUtagRECT@@@Z @ 2350 NONAME
 ?AfxResetMsgCache@@YGXXZ @ 2351 NONAME
 ?AfxResolveShortcut@@YGHPAVCWnd@@PBDPADH@Z @ 2352 NONAME
 ?AfxRFXBulkDefault@@YGXPAVCFieldExchange@@PBDPAXPAJHK@Z @ 2353 NONAME
 ?AfxSafeArrayInit@@YGXPAVCOleSafeArray@@@Z @ 2354 NONAME
 ?AfxSetDefaultValue@@YAXPAU_DAOField@@AAV?$CStringT@DV?$StrTraitMFC_DLL@DV?$ChTraitsCRT@D@ATL@@@@@ATL@@@Z @ 2355 NONAME
 ?AfxSetFieldInfo@@YAXPAU_DAOField@@AAUCDaoFieldInfo@@@Z @ 2356 NONAME
 ?AfxSetIndexFieldInfo@@YAXPAU_DAOIndex@@AAUCDaoIndexInfo@@@Z @ 2357 NONAME
 ?AfxSetIndexInfo@@YAXPAU_DAOIndex@@AAUCDaoIndexInfo@@@Z @ 2358 NONAME
 ?AfxSetModuleState@@YGPAVAFX_MODULE_STATE@@PAV1@@Z @ 2359 NONAME
 ?AfxSetNewHandler@@YGP6AHI@ZP6AHI@Z@Z @ 2360 NONAME
 ?AfxSetPerUserRegistration@@YGXH@Z @ 2361 NONAME
 ?AfxSetWindowText@@YGXPAUHWND__@@PBD@Z @ 2362 NONAME
 ?afxShellManager@@3PAVCShellManager@@A @ 2363 NONAME DATA
 ?AfxSocketTerm@@YGXXZ @ 2364 NONAME
 ?AFXSoundThreadProc@@YAXPAX@Z @ 2365 NONAME
 ?AfxStoreField@@YGXAAVCRecordset@@IPAX@Z @ 2366 NONAME
 ?AfxStringFromCLSID@@YG?AV?$CStringT@DV?$StrTraitMFC_DLL@DV?$ChTraitsCRT@D@ATL@@@@@ATL@@ABU_GUID@@@Z @ 2367 NONAME
 ?AfxTaskStringA2W@@YGPA_WPBD@Z @ 2368 NONAME
 ?AfxTaskStringW2A@@YGPADPB_W@Z @ 2369 NONAME
 ?AfxTermExtensionModule@@YGXAAUAFX_EXTENSION_MODULE@@H@Z @ 2370 NONAME
 ?AfxTermLocalData@@YGXPAUHINSTANCE__@@H@Z @ 2371 NONAME
 ?AfxTermThread@@YGXPAUHINSTANCE__@@@Z @ 2372 NONAME
 ?AfxTextFloatFormat@@YGXPAVCDataExchange@@HPAXNH@Z @ 2373 NONAME
 ?AfxTextMetricA2W@@YGPAUtagTEXTMETRICW@@PAU1@PAUtagTEXTMETRICA@@@Z @ 2374 NONAME
 ?AfxTextMetricW2A@@YGPAUtagTEXTMETRICA@@PAU1@PAUtagTEXTMETRICW@@@Z @ 2375 NONAME
 ?AfxThrowArchiveException@@YGXHPBD@Z @ 2376 NONAME
 ?AfxThrowDaoException@@YGXHJ@Z @ 2377 NONAME
 ?AfxThrowDBException@@YGXFPAVCDatabase@@PAX@Z @ 2378 NONAME
 ?AfxThrowFileException@@YGXHJPBD@Z @ 2379 NONAME
 ?AfxThrowInternetException@@YGXKK@Z @ 2380 NONAME
 ?AfxThrowInvalidArgException@@YGXXZ @ 2381 NONAME
 ?AfxThrowLastCleanup@@YGXXZ @ 2382 NONAME
 ?AfxThrowMemoryException@@YGXXZ @ 2383 NONAME
 ?AfxThrowNotSupportedException@@YGXXZ @ 2384 NONAME
 ?AfxThrowOleDispatchException@@YGXGII@Z @ 2385 NONAME
 ?AfxThrowOleDispatchException@@YGXGPBDI@Z @ 2386 NONAME
 ?AfxThrowOleException@@YGXJ@Z @ 2387 NONAME
 ?AfxThrowResourceException@@YGXXZ @ 2388 NONAME
 ?AfxThrowUserException@@YGXXZ @ 2389 NONAME
 ?AfxTimeToFileTime@@YAXABVCTime@ATL@@PAU_FILETIME@@@Z @ 2390 NONAME
 ?AfxTlsAddRef@@YGXXZ @ 2391 NONAME
 ?AfxTlsRelease@@YGXXZ @ 2392 NONAME
 ?AfxTrackerTerm@@YAXXZ @ 2393 NONAME
 ?AfxTryCleanup@@YGXXZ @ 2394 NONAME
 ?AfxUnhookWindowCreate@@YGHXZ @ 2395 NONAME
 ?AfxUnlockGlobals@@YGXH@Z @ 2396 NONAME
 ?AfxUnlockTempMaps@@YGHH@Z @ 2397 NONAME
 ?AfxUnmergeMenus@@YGXPAUHMENU__@@00@Z @ 2398 NONAME
 ?AfxUnRegisterPreviewHandler@@YGHPBD@Z @ 2399 NONAME
 ?AfxUnregisterSiteFactory@@YGHPAVIControlSiteFactory@@@Z @ 2400 NONAME
 ?AfxUnregisterWndClasses@@YGXXZ @ 2401 NONAME
 ?afxUserToolsManager@@3PAVCUserToolsManager@@A @ 2402 NONAME DATA
 ?AfxVariantInit@@YGXPAUtagVARIANT@@@Z @ 2403 NONAME
 ?AfxVerifyLicFile@@YGHPAUHINSTANCE__@@PBDPB_WI@Z @ 2404 NONAME
 ?AfxW2AHelper@@YGPADPADPB_WH@Z @ 2405 NONAME
 ?AfxWinInit@@YGHPAUHINSTANCE__@@0PADH@Z @ 2406 NONAME
 ?AfxWinMain@@YGHPAUHINSTANCE__@@0PADH@Z @ 2407 NONAME
 ?AfxWinTerm@@YGXXZ @ 2408 NONAME
 ?AfxWndProc@@YGJPAUHWND__@@IIJ@Z @ 2409 NONAME
 ?AfxWndProcDllOle@@YGJPAUHWND__@@IIJ@Z @ 2410 NONAME
 ?AfxWriteStringLength@@YGXAAVCArchive@@IH@Z @ 2411 NONAME
 ?AlignAutoHidePane@CDockingManager@@QAEXPAVCPaneDivider@@H@Z @ 2412 NONAME
 ?AlignByRect@CDockingManager@@IAEXABVCRect@@AAV2@KHH@Z @ 2413 NONAME
 ?AlignDockSite@CDockSite@@QAEXABVCRect@@AAV2@H@Z @ 2414 NONAME
 ?Alloc@CFixedAlloc@@QAEPAXXZ @ 2415 NONAME
 ?Alloc@CFixedAllocNoSync@@QAEPAXXZ @ 2416 NONAME
 ?Alloc@CMemFile@@MAEPAEK@Z @ 2417 NONAME
 ?Alloc@CSharedFile@@MAEPAEK@Z @ 2418 NONAME
 ?AllocAndCacheFieldInfo@CRecordset@@IAEXXZ @ 2419 NONAME
 ?Allocate@CAfxStringMgr@@UAEPAUCStringData@ATL@@HH@Z @ 2420 NONAME
 ?AllocCache@CDaoRecordset@@IAEXXZ @ 2421 NONAME
 ?AllocCacheValue@CDaoFieldExchange@@SGXAAPAUCDaoFieldCache@@K@Z @ 2422 NONAME
 ?AllocConnect@CDatabase@@IAEXK@Z @ 2423 NONAME
 ?AllocData@COleSafeArray@@QAEXXZ @ 2424 NONAME
 ?AllocDatabase@CDaoRecordset@@IAEXXZ @ 2425 NONAME
 ?AllocDataCache@CRecordset@@QAEXXZ @ 2426 NONAME
 ?AllocDescriptor@COleSafeArray@@QAEXK@Z @ 2427 NONAME
 ?AllocElements@CControlBar@@QAEHHH@Z @ 2428 NONAME
 ?AllocElements@CPane@@QAEHHH@Z @ 2429 NONAME
 ?AllocElements@CStatusBar@@QAEHHH@Z @ 2430 NONAME
 ?AllocHstmt@CRecordset@@IAEHXZ @ 2431 NONAME
 ?AllocLongBinary@@YAXAAVCLongBinary@@K@Z @ 2432 NONAME
 ?AllocPSP@CPropertyPage@@IAEXK@Z @ 2433 NONAME
 ?AllocRowset@CRecordset@@IAEXXZ @ 2434 NONAME
 ?AllocSlot@CThreadSlotData@@QAEHXZ @ 2435 NONAME
 ?AllocStatusArrays@CRecordset@@QAEXXZ @ 2436 NONAME
 ?AllocSysString@?$CStringT@_WV?$StrTraitMFC_DLL@_WV?$ChTraitsCRT@_W@ATL@@@@@ATL@@QBEPA_WXZ @ 2437 NONAME
 ?AllocSysString@?$CStringT@DV?$StrTraitMFC_DLL@DV?$ChTraitsCRT@D@ATL@@@@@ATL@@QBEPA_WXZ @ 2438 NONAME
 ?AllocValue@CProperty@@AAEPAXK@Z @ 2439 NONAME
 ?AmbientAppearance@COleControl@@QAEFXZ @ 2440 NONAME
 ?AmbientBackColor@COleControl@@QAEKXZ @ 2441 NONAME
 ?AmbientDisplayName@COleControl@@QAE?AV?$CStringT@DV?$StrTraitMFC_DLL@DV?$ChTraitsCRT@D@ATL@@@@@ATL@@XZ @ 2442 NONAME
 ?AmbientFont@COleControl@@QAEPAUIFontDisp@@XZ @ 2443 NONAME
 ?AmbientForeColor@COleControl@@QAEKXZ @ 2444 NONAME
 ?AmbientLocaleID@COleControl@@QAEKXZ @ 2445 NONAME
 ?AmbientScaleUnits@COleControl@@QAE?AV?$CStringT@DV?$StrTraitMFC_DLL@DV?$ChTraitsCRT@D@ATL@@@@@ATL@@XZ @ 2446 NONAME
 ?AmbientShowGrabHandles@COleControl@@QAEHXZ @ 2447 NONAME
 ?AmbientShowHatching@COleControl@@QAEHXZ @ 2448 NONAME
 ?AmbientTextAlign@COleControl@@QAEFXZ @ 2449 NONAME
 ?AmbientUIDead@COleControl@@QAEHXZ @ 2450 NONAME
 ?AmbientUserMode@COleControl@@QAEHXZ @ 2451 NONAME
 ?Animate@CAnimationGroup@@QAEHPAUIUIAnimationManager@@PAUIUIAnimationTimer@@H@Z @ 2452 NONAME
 ?AnimateGroup@CAnimationController@@QAEHIH@Z @ 2453 NONAME
 ?AnimTimerProc@CMFCRibbonStatusBarPane@@KGXPAUHWND__@@IIK@Z @ 2454 NONAME
 ?Append@?$CSimpleStringT@_W$00@ATL@@QAEXABV12@@Z @ 2455 NONAME
 ?Append@?$CSimpleStringT@_W$00@ATL@@QAEXPB_W@Z @ 2456 NONAME
 ?Append@?$CSimpleStringT@_W$00@ATL@@QAEXPB_WH@Z @ 2457 NONAME
 ?Append@?$CSimpleStringT@D$00@ATL@@QAEXABV12@@Z @ 2458 NONAME
 ?Append@?$CSimpleStringT@D$00@ATL@@QAEXPBD@Z @ 2459 NONAME
 ?Append@?$CSimpleStringT@D$00@ATL@@QAEXPBDH@Z @ 2460 NONAME
 ?Append@CByteArray@@QAEHABV1@@Z @ 2461 NONAME
 ?Append@CDaoQueryDef@@UAEXXZ @ 2462 NONAME
 ?Append@CDaoTableDef@@UAEXXZ @ 2463 NONAME
 ?Append@CDaoWorkspace@@UAEXXZ @ 2464 NONAME
 ?Append@CDWordArray@@QAEHABV1@@Z @ 2465 NONAME
 ?Append@CObArray@@QAEHABV1@@Z @ 2466 NONAME
 ?Append@CPtrArray@@QAEHABV1@@Z @ 2467 NONAME
 ?Append@CStringArray@@QAEHABV1@@Z @ 2468 NONAME
 ?Append@CUIntArray@@QAEHABV1@@Z @ 2469 NONAME
 ?Append@CWordArray@@QAEHABV1@@Z @ 2470 NONAME
 ?AppendChar@?$CSimpleStringT@_W$00@ATL@@QAEX_W@Z @ 2471 NONAME
 ?AppendChar@?$CSimpleStringT@D$00@ATL@@QAEXD@Z @ 2472 NONAME
 ?AppendFilterAndSortSQL@CRecordset@@IAEXXZ @ 2473 NONAME
 ?AppendFormat@?$CStringT@_WV?$StrTraitMFC_DLL@_WV?$ChTraitsCRT@_W@ATL@@@@@ATL@@QAAXIZZ @ 2474 NONAME
 ?AppendFormat@?$CStringT@_WV?$StrTraitMFC_DLL@_WV?$ChTraitsCRT@_W@ATL@@@@@ATL@@QAAXPB_WZZ @ 2475 NONAME
 ?AppendFormat@?$CStringT@DV?$StrTraitMFC_DLL@DV?$ChTraitsCRT@D@ATL@@@@@ATL@@QAAXIZZ @ 2476 NONAME
 ?AppendFormat@?$CStringT@DV?$StrTraitMFC_DLL@DV?$ChTraitsCRT@D@ATL@@@@@ATL@@QAAXPBDZZ @ 2477 NONAME
 ?AppendFormatV@?$CStringT@_WV?$StrTraitMFC_DLL@_WV?$ChTraitsCRT@_W@ATL@@@@@ATL@@QAEXPB_WPAD@Z @ 2478 NONAME
 ?AppendFormatV@?$CStringT@DV?$StrTraitMFC_DLL@DV?$ChTraitsCRT@D@ATL@@@@@ATL@@QAEXPBDPAD@Z @ 2479 NONAME
 ?AppendNames@CRecordset@@QAEIPAV?$CStringT@DV?$StrTraitMFC_DLL@DV?$ChTraitsCRT@D@ATL@@@@@ATL@@PBD@Z @ 2480 NONAME
 ?AppendNamesValues@CRecordset@@QAEIPAXPAV?$CStringT@DV?$StrTraitMFC_DLL@DV?$ChTraitsCRT@D@ATL@@@@@ATL@@PBD@Z @ 2481 NONAME
 ?AppendParamType@CDaoFieldExchange@@SGXAAV?$CStringT@DV?$StrTraitMFC_DLL@DV?$ChTraitsCRT@D@ATL@@@@@ATL@@K@Z @ 2482 NONAME
 ?AppendValues@CRecordset@@QAEIPAXPAV?$CStringT@DV?$StrTraitMFC_DLL@DV?$ChTraitsCRT@D@ATL@@@@@ATL@@PBD@Z @ 2483 NONAME
 ?ApplicationRecoveryCallback@CWinApp@@UAEKPAX@Z @ 2484 NONAME
 ?Apply@XPropertyPage@COlePropertyPage@@UAGJXZ @ 2485 NONAME
 ?ApplyOFNToShellDialog@CFileDialog@@QAEXXZ @ 2486 NONAME
 ?ApplyParams@CMDIClientAreaWnd@@AAEXPAVCMFCTabCtrl@@@Z @ 2487 NONAME
 ?ApplyPrintDevice@COleDocument@@QAEHPBUtagDVTARGETDEVICE@@@Z @ 2488 NONAME
 ?ApplyPrintDevice@COleDocument@@QAEHPBUtagPDA@@@Z @ 2489 NONAME
 ?ApplyRestoredTabInfo@CBaseTabbedPane@@UAEXH@Z @ 2490 NONAME
 ?ApplyRestoredTabInfo@CMFCBaseTabCtrl@@UAEXH@Z @ 2491 NONAME
 ?ApplyTransitions@CAnimationBaseObject@@UAEHPAUIUIAnimationStoryboard@@H@Z @ 2492 NONAME
 ?ApplyTransitions@CAnimationGroup@@QAEXXZ @ 2493 NONAME
 ?ApplyTransitions@CAnimationVariable@@QAEXPAVCAnimationController@@PAUIUIAnimationStoryboard@@H@Z @ 2494 NONAME
 ?ApplyViewState@XOleDocumentView@CDocObjectServer@@UAGJPAUIStream@@@Z @ 2495 NONAME
 ?ArcTo@CDC@@QAEHHHHHHHHH@Z @ 2496 NONAME
 ?ArrangeCaptionButtons@CPaneFrameWnd@@IAEXXZ @ 2497 NONAME
 ?ArrangePanes@CDockingPanesRow@@UAEXHH@Z @ 2498 NONAME
 ?ArrangePanes@CDockingPanesRow@@UAEXPAVCPane@@@Z @ 2499 NONAME
 ?ArrangePanesRect@CDockingPanesRow@@IAEXPAVCPane@@@Z @ 2500 NONAME
 ?Assign@CSmartDockingStandaloneGuideWnd@@QAEHPAUHBITMAP__@@H@Z @ 2501 NONAME
 ?AssignInstance@CThreadSlotData@@QAEXPAUHINSTANCE__@@@Z @ 2502 NONAME
 ?AsyncSelect@CAsyncSocket@@QAEHJ@Z @ 2503 NONAME
 ?Attach@?$CSimpleStringT@_W$00@ATL@@AAEXPAUCStringData@2@@Z @ 2504 NONAME
 ?Attach@?$CSimpleStringT@D$00@ATL@@AAEXPAUCStringData@2@@Z @ 2505 NONAME
 ?Attach@CAsyncSocket@@QAEHIJ@Z @ 2506 NONAME
 ?Attach@CBitmapRenderTarget@@QAEXPAUID2D1BitmapRenderTarget@@@Z @ 2507 NONAME
 ?Attach@CD2DBitmap@@QAEXPAUID2D1Bitmap@@@Z @ 2508 NONAME
 ?Attach@CD2DBitmapBrush@@QAEXPAUID2D1BitmapBrush@@@Z @ 2509 NONAME
 ?Attach@CD2DBrush@@QAEXPAUID2D1Brush@@@Z @ 2510 NONAME
 ?Attach@CD2DGeometry@@QAEXPAUID2D1Geometry@@@Z @ 2511 NONAME
 ?Attach@CD2DLayer@@QAEXPAUID2D1Layer@@@Z @ 2512 NONAME
 ?Attach@CD2DLinearGradientBrush@@QAEXPAUID2D1LinearGradientBrush@@@Z @ 2513 NONAME
 ?Attach@CD2DMesh@@QAEXPAUID2D1Mesh@@@Z @ 2514 NONAME
 ?Attach@CD2DPathGeometry@@QAEXPAUID2D1PathGeometry@@@Z @ 2515 NONAME
 ?Attach@CD2DRadialGradientBrush@@QAEXPAUID2D1RadialGradientBrush@@@Z @ 2516 NONAME
 ?Attach@CD2DSolidColorBrush@@QAEXPAUID2D1SolidColorBrush@@@Z @ 2517 NONAME
 ?Attach@CDC@@QAEHPAUHDC__@@@Z @ 2518 NONAME
 ?Attach@CDCRenderTarget@@QAEXPAUID2D1DCRenderTarget@@@Z @ 2519 NONAME
 ?Attach@CGdiObject@@QAEHPAX@Z @ 2520 NONAME
 ?Attach@CHwndRenderTarget@@QAEXPAUID2D1HwndRenderTarget@@@Z @ 2521 NONAME
 ?Attach@CImageList@@QAEHPAU_IMAGELIST@@@Z @ 2522 NONAME
 ?Attach@CMemFile@@QAEXPAEII@Z @ 2523 NONAME
 ?Attach@CMenu@@QAEHPAUHMENU__@@@Z @ 2524 NONAME
 ?Attach@CMonikerFile@@IAEHPAUIMoniker@@PAUIBindHost@@PAUIBindStatusCallback@@PAUIBindCtx@@PAVCFileException@@@Z @ 2525 NONAME
 ?Attach@CMonikerFile@@IAEHPBDPAUIBindHost@@PAUIBindStatusCallback@@PAUIBindCtx@@PAVCFileException@@@Z @ 2526 NONAME
 ?Attach@COleDataObject@@QAEXPAUIDataObject@@H@Z @ 2527 NONAME
 ?Attach@COleSafeArray@@QAEXAAUtagVARIANT@@@Z @ 2528 NONAME
 ?Attach@COleStreamFile@@QAEXPAUIStream@@@Z @ 2529 NONAME
 ?Attach@COleVariant@@QAEXAAUtagVARIANT@@@Z @ 2530 NONAME
 ?Attach@CRenderTarget@@QAEXPAUID2D1RenderTarget@@@Z @ 2531 NONAME
 ?Attach@CWnd@@QAEHPAUHWND__@@@Z @ 2532 NONAME
 ?AttachClipboard@COleDataObject@@QAEHXZ @ 2533 NONAME
 ?AttachControlSite@COleControlContainer@@QAEXPAVCWnd@@I@Z @ 2534 NONAME
 ?AttachControlSite@CWnd@@IAEXPAVCHandleMap@@@Z @ 2535 NONAME
 ?AttachControlSite@CWnd@@QAEXPAV1@I@Z @ 2536 NONAME
 ?AttachDataObject@COleClientItem@@QBEXAAVCOleDataObject@@@Z @ 2537 NONAME
 ?AttachDispatch@COleDispatchDriver@@QAEXPAUIDispatch@@H@Z @ 2538 NONAME
 ?AttachHandle@CAsyncSocket@@SGXIPAV1@H@Z @ 2539 NONAME
 ?AttachOnSetup@CPrintDialog@@MAEPAV1@XZ @ 2540 NONAME
 ?AttachToTabWnd@CDockablePane@@UAEPAV1@PAV1@W4AFX_DOCK_METHOD@@HPAPAV1@@Z @ 2541 NONAME
 ?AttachWindow@COleControlSite@@QAEXXZ @ 2542 NONAME
 ?AutoGrayInactiveImages@CMFCToolBar@@SGXHHH@Z @ 2543 NONAME
 ?AutoHidePane@CDockingManager@@QAEPAVCMFCAutoHideBar@@PAVCDockablePane@@PAV2@@Z @ 2544 NONAME
 ?AutoLoad@CBitmapButton@@QAEHIPAVCWnd@@@Z @ 2545 NONAME
 ?AutosaveAllDocumentInfo@CDataRecoveryHandler@@UAEHXZ @ 2546 NONAME
 ?AutosaveDocumentInfo@CDataRecoveryHandler@@UAEHPAVCDocument@@H@Z @ 2547 NONAME
 ?AuxQueueAdd@CSocket@@KGXIIJ@Z @ 2548 NONAME
 ?BeforeNavigate2@CHtmlView@@MAEXPAUIDispatch@@PAUtagVARIANT@@1111PAF@Z @ 2549 NONAME
 ?BeginBusyState@COleMessageFilter@@UAEXXZ @ 2550 NONAME
 ?BeginDrag@CDragListBox@@UAEHVCPoint@@@Z @ 2551 NONAME
 ?BeginDraw@CRenderTarget@@QAEXXZ @ 2552 NONAME
 ?BeginEnumFormats@COleDataObject@@QAEXXZ @ 2553 NONAME
 ?BeginFigure@CD2DGeometrySink@@QAEXVCD2DPointF@@W4D2D1_FIGURE_BEGIN@@@Z @ 2554 NONAME
 ?BeginModalState@CFrameWnd@@UAEXXZ @ 2555 NONAME
 ?BeginReadChunks@CDocument@@UAEXXZ @ 2556 NONAME
 ?BeginTrans@CDaoWorkspace@@QAEXXZ @ 2557 NONAME
 ?BeginTrans@CDatabase@@QAEHXZ @ 2558 NONAME
 ?BeginTrans@CDockingPanesRow@@IAEXXZ @ 2559 NONAME
 ?BeginWaitCursor@CCmdTarget@@QAEXXZ @ 2560 NONAME
 ?Bind@CAsyncSocket@@QAEHIPBD@Z @ 2561 NONAME
 ?BindColumns@CDataSourceControl@@UAEXXZ @ 2562 NONAME
 ?BindControls@COccManager@@IAEXPAVCWnd@@@Z @ 2563 NONAME
 ?BindDC@CDCRenderTarget@@QAEHABVCDC@@ABVCRect@@@Z @ 2564 NONAME
 ?BindDefaultProperty@COleControlSite@@UAEXJGPBDPAVCWnd@@@Z @ 2565 NONAME
 ?BindDefaultProperty@CWnd@@QAEXJGPBDPAV1@@Z @ 2566 NONAME
 ?BindFields@CDaoRecordset@@IAEXXZ @ 2567 NONAME
 ?BindFieldsForUpdate@CRecordset@@QAEXXZ @ 2568 NONAME
 ?BindFieldsToColumns@CRecordset@@QAEIXZ @ 2569 NONAME
 ?BindParameters@CDaoRecordset@@IAEXXZ @ 2570 NONAME
 ?BindParameters@CDatabase@@UAEXPAX@Z @ 2571 NONAME
 ?BindParams@CRecordset@@QAEIPAX@Z @ 2572 NONAME
 ?BindProp@CDataSourceControl@@UAEXPAVCDataBoundProperty@@H@Z @ 2573 NONAME
 ?BindProp@CDataSourceControl@@UAEXPAVCOleControlSite@@H@Z @ 2574 NONAME
 ?BindProperty@COleControlSite@@UAEXJPAVCWnd@@@Z @ 2575 NONAME
 ?BindProperty@CWnd@@QAEXJPAV1@@Z @ 2576 NONAME
 ?BitmapToClient@CMFCImagePaintArea@@IAEXAAVCRect@@@Z @ 2577 NONAME
 ?BoundPropertyChanged@COleControl@@QAEXJ@Z @ 2578 NONAME
 ?BoundPropertyRequestEdit@COleControl@@QAEHJ@Z @ 2579 NONAME
 ?BringBarsToTop@CDockingManager@@QAEXKH@Z @ 2580 NONAME
 ?BringToTop@CFrameWnd@@IAEXH@Z @ 2581 NONAME
 ?BroadcastAmbientPropertyChange@COleControlContainer@@UAEXJ@Z @ 2582 NONAME
 ?BrowseCallbackProc@CShellManager@@KGHPAUHWND__@@IJJ@Z @ 2583 NONAME
 ?BrowseForFolder@CShellManager@@QAEHAAV?$CStringT@DV?$StrTraitMFC_DLL@DV?$ChTraitsCRT@D@ATL@@@@@ATL@@PAVCWnd@@PBD2IPAH@Z @ 2584 NONAME
 ?Build@CMenuTearOffManager@@QAEXIAAV?$CStringT@DV?$StrTraitMFC_DLL@DV?$ChTraitsCRT@D@ATL@@@@@ATL@@@Z @ 2585 NONAME
 ?BuildErrorString@CDBException@@UAEXPAVCDatabase@@PAXH@Z @ 2586 NONAME
 ?BuildFonts@CMFCRibbonFontComboBox@@QAEXHEE@Z @ 2587 NONAME
 ?BuildOrigItems@CMFCMenuBar@@MAEHI@Z @ 2588 NONAME
 ?BuildOrigItems@CMFCPopupMenuBar@@QAEHI@Z @ 2589 NONAME
 ?BuildPanesMenu@CDockingManager@@QAEXAAVCMenu@@H@Z @ 2590 NONAME
 ?BuildParameterList@CDaoRecordset@@IAEXXZ @ 2591 NONAME
 ?BuildPropPageArray@CPropertySheet@@UAEXXZ @ 2592 NONAME
 ?BuildSelectList@CDaoRecordset@@IAEXXZ @ 2593 NONAME
 ?BuildSelectSQL@CRecordset@@IAEXXZ @ 2594 NONAME
 ?BuildSharedMenu@COleControl@@MAEHXZ @ 2595 NONAME
 ?BuildSharedMenu@COleDocIPFrameWnd@@MAEHXZ @ 2596 NONAME
 ?BuildSharedMenu@COleIPFrameWnd@@MAEHXZ @ 2597 NONAME
 ?BuildSQL@CDaoRecordset@@IAEXXZ @ 2598 NONAME
 ?BuildSQL@CRecordset@@IAEXPBD@Z @ 2599 NONAME
 ?BuildUpdateSQL@CRecordset@@IAEXXZ @ 2600 NONAME
 ?ButtonDblClk@COleControl@@IAEXGIVCPoint@@@Z @ 2601 NONAME
 ?ButtonDown@COleControl@@IAEXGIVCPoint@@@Z @ 2602 NONAME
 ?ButtonFromAutoHideWindow@CMFCAutoHideBar@@IAEPAVCMFCAutoHideButton@@PAVCDockablePane@@@Z @ 2603 NONAME
 ?ButtonFromPoint@CMFCAutoHideBar@@IAEPAVCMFCAutoHideButton@@VCPoint@@@Z @ 2604 NONAME
 ?ButtonToIndex@CMFCToolBar@@QBEHPBVCMFCToolBarButton@@@Z @ 2605 NONAME
 ?ButtonUp@COleControl@@IAEXGIVCPoint@@@Z @ 2606 NONAME
 ?Cache@CMFCVisualManagerBitmapCache@@QAEHABVCSize@@AAVCMFCControlRenderer@@@Z @ 2607 NONAME
 ?Cache@CMFCVisualManagerBitmapCacheItem@CMFCVisualManagerBitmapCache@@QAEXABVCSize@@AAVCMFCControlRenderer@@@Z @ 2608 NONAME
 ?Cache@CTypeLibCache@@QAEXKPAUITypeLib@@@Z @ 2609 NONAME
 ?Cache@XOleCache@COleControl@@UAGJPAUtagFORMATETC@@KPAK@Z @ 2610 NONAME
 ?CacheData@COleDataSource@@QAEXGPAUtagSTGMEDIUM@@PAUtagFORMATETC@@@Z @ 2611 NONAME
 ?CacheGlobalData@COleDataSource@@QAEXGPAXPAUtagFORMATETC@@@Z @ 2612 NONAME
 ?CacheTypeInfo@CTypeLibCache@@QAEXKABU_GUID@@PAUITypeInfo@@@Z @ 2613 NONAME
 ?CacheY@CMFCVisualManagerBitmapCache@@QAEHHAAVCMFCControlRenderer@@@Z @ 2614 NONAME
 ?CalcAvailablePaneSpace@CPaneContainer@@UAEHHPAVCPane@@PAV1@H@Z @ 2615 NONAME
 ?CalcAvailableSize@CPane@@UAE?AVCSize@@VCRect@@@Z @ 2616 NONAME
 ?CalcAvailableSpace@CPaneContainer@@UAE?AVCSize@@V2@H@Z @ 2617 NONAME
 ?CalcBorders@CMiniFrameWnd@@SGXPAUtagRECT@@KK@Z @ 2618 NONAME
 ?CalcBorderSize@CMFCTasksPaneFrameWnd@@UBEXAAVCRect@@@Z @ 2619 NONAME
 ?CalcBorderSize@CPaneFrameWnd@@UBEXAAVCRect@@@Z @ 2620 NONAME
 ?CalcCorrectOffset@CDockablePane@@IAE?AVCPoint@@VCRect@@H@Z @ 2621 NONAME
 ?CalcDynamicLayout@CControlBar@@UAE?AVCSize@@HK@Z @ 2622 NONAME
 ?CalcDynamicLayout@CReBar@@UAE?AVCSize@@HK@Z @ 2623 NONAME
 ?CalcDynamicLayout@CToolBar@@UAE?AVCSize@@HK@Z @ 2624 NONAME
 ?CalcEditMargin@CMFCPropertyGridCtrl@@IAEXXZ @ 2625 NONAME
 ?CalcExpectedDockedRect@CDockingManager@@QAEXPAVCWnd@@VCPoint@@AAVCRect@@AAHPAPAVCDockablePane@@@Z @ 2626 NONAME
 ?CalcExpectedDockedRect@CGlobalUtils@@QAEXAAVCPaneContainerManager@@PAVCWnd@@VCPoint@@AAVCRect@@AAHPAPAVCDockablePane@@@Z @ 2627 NONAME
 ?CalcExpectedDockedRect@CMultiPaneFrameWnd@@UAEXPAVCWnd@@VCPoint@@AAVCRect@@AAHPAPAVCDockablePane@@@Z @ 2628 NONAME
 ?CalcExpectedDockedRect@CPaneDivider@@UAEXPAVCWnd@@VCPoint@@AAVCRect@@AAHPAPAVCDockablePane@@@Z @ 2629 NONAME
 ?CalcFixedLayout@CControlBar@@UAE?AVCSize@@HH@Z @ 2630 NONAME
 ?CalcFixedLayout@CDialogBar@@UAE?AVCSize@@HH@Z @ 2631 NONAME
 ?CalcFixedLayout@CDockablePane@@UAE?AVCSize@@HH@Z @ 2632 NONAME
 ?CalcFixedLayout@CDockBar@@UAE?AVCSize@@HH@Z @ 2633 NONAME
 ?CalcFixedLayout@CDockingPanesRow@@UAE?AVCSize@@HH@Z @ 2634 NONAME
 ?CalcFixedLayout@CDockSite@@UAE?AVCSize@@HH@Z @ 2635 NONAME
 ?CalcFixedLayout@CMFCAutoHideBar@@UAE?AVCSize@@HH@Z @ 2636 NONAME
 ?CalcFixedLayout@CMFCCaptionBar@@MAE?AVCSize@@HH@Z @ 2637 NONAME
 ?CalcFixedLayout@CMFCMenuBar@@UAE?AVCSize@@HH@Z @ 2638 NONAME
 ?CalcFixedLayout@CMFCOutlookBarPane@@MAE?AVCSize@@HH@Z @ 2639 NONAME
 ?CalcFixedLayout@CMFCReBar@@UAE?AVCSize@@HH@Z @ 2640 NONAME
 ?CalcFixedLayout@CMFCRibbonBar@@MAE?AVCSize@@HH@Z @ 2641 NONAME
 ?CalcFixedLayout@CMFCRibbonStatusBar@@MAE?AVCSize@@HH@Z @ 2642 NONAME
 ?CalcFixedLayout@CMFCStatusBar@@UAE?AVCSize@@HH@Z @ 2643 NONAME
 ?CalcFixedLayout@CMFCToolBar@@UAE?AVCSize@@HH@Z @ 2644 NONAME
 ?CalcFixedLayout@CPaneDivider@@UAE?AVCSize@@HH@Z @ 2645 NONAME
 ?CalcFixedLayout@CReBar@@UAE?AVCSize@@HH@Z @ 2646 NONAME
 ?CalcFixedLayout@CStatusBar@@UAE?AVCSize@@HH@Z @ 2647 NONAME
 ?CalcFixedLayout@CToolBar@@UAE?AVCSize@@HH@Z @ 2648 NONAME
 ?CalcInsideRect@CControlBar@@UBEXAAVCRect@@H@Z @ 2649 NONAME
 ?CalcInsideRect@CPane@@QBEXAAVCRect@@H@Z @ 2650 NONAME
 ?CalcInsideRect@CStatusBar@@UBEXAAVCRect@@H@Z @ 2651 NONAME
 ?CalcLastPaneOffset@CDockingPanesRow@@IAEHXZ @ 2652 NONAME
 ?CalcLayout@CMFCMenuBar@@UAE?AVCSize@@KH@Z @ 2653 NONAME
 ?CalcLayout@CMFCToolBar@@MAE?AVCSize@@KH@Z @ 2654 NONAME
 ?CalcLayout@CToolBar@@IAE?AVCSize@@KH@Z @ 2655 NONAME
 ?CalcMaxButtonHeight@CMFCMenuBar@@UAEHXZ @ 2656 NONAME
 ?CalcMaxButtonHeight@CMFCToolBar@@MAEHXZ @ 2657 NONAME
 ?CalcMinimumItemHeight@CCheckListBox@@IAEHXZ @ 2658 NONAME
 ?CalcMinSize@CPaneFrameWnd@@MAEXAAVCSize@@PAUtagMINMAXINFO@@@Z @ 2659 NONAME
 ?CalcNcSize@CMFCControlBarImpl@@IAEXPAUtagNCCALCSIZE_PARAMS@@@Z @ 2660 NONAME
 ?CalcPageDisplaySize@CPreviewView@@IAE?AVCSize@@XZ @ 2661 NONAME
 ?CalcPaneOffset@CDockingManager@@IAEXPAVCAutoHideDockSite@@@Z @ 2662 NONAME
 ?CalcRecentDockedRect@CPane@@QAEXXZ @ 2663 NONAME
 ?CalcRectForSliding@CDockablePane@@IAEXAAVCRect@@0H@Z @ 2664 NONAME
 ?CalcRects@CPaneContainerManager@@QAEXAAVCRect@@00AAKKVCSize@@2@Z @ 2665 NONAME
 ?CalcScaleRatio@CPreviewView@@MAE?AVCSize@@V2@0@Z @ 2666 NONAME
 ?CalcSize@CMFCColorBar@@MAE?AVCSize@@H@Z @ 2667 NONAME
 ?CalcSize@CMFCPopupMenuBar@@MAE?AVCSize@@H@Z @ 2668 NONAME
 ?CalcSize@CMFCRibbonPanelMenuBar@@UAE?AVCSize@@H@Z @ 2669 NONAME
 ?CalcSize@CMFCToolBar@@UAE?AVCSize@@H@Z @ 2670 NONAME
 ?CalcSize@CToolBar@@IAE?AVCSize@@PAU_TBBUTTON@@H@Z @ 2671 NONAME
 ?CalcSysButtonSize@CMFCMenuBar@@IAEXXZ @ 2672 NONAME
 ?CalcTotalWidth@CMFCRibbonPanel@@IAEHXZ @ 2673 NONAME
 ?CalculateRecentSize@CPaneContainer@@QAEXXZ @ 2674 NONAME
 ?CalcWindowRect@CDockSite@@MAEXPAUtagRECT@@I@Z @ 2675 NONAME
 ?CalcWindowRect@CEditView@@MAEXPAUtagRECT@@I@Z @ 2676 NONAME
 ?CalcWindowRect@CMDIClientAreaWnd@@MAEXPAUtagRECT@@I@Z @ 2677 NONAME
 ?CalcWindowRect@CScrollView@@UAEXPAUtagRECT@@I@Z @ 2678 NONAME
 ?CalcWindowRect@CView@@UAEXPAUtagRECT@@I@Z @ 2679 NONAME
 ?CalcWindowRect@CWnd@@UAEXPAUtagRECT@@I@Z @ 2680 NONAME
 ?CalcWindowRectForMDITabbedGroups@CMDIClientAreaWnd@@QAEXPAUtagRECT@@I@Z @ 2681 NONAME
 ?CallMemberFunc@CCmdTarget@@IAEJPBUAFX_DISPMAP_ENTRY@@GPAUtagVARIANT@@PAUtagDISPPARAMS@@PAI@Z @ 2682 NONAME
 ?CanAcceptMiniFrame@CDockablePane@@UBEHPAVCPaneFrameWnd@@@Z @ 2683 NONAME
 ?CanAcceptPane@CAutoHideDockSite@@UBEHPBVCBasePane@@@Z @ 2684 NONAME
 ?CanAcceptPane@CDockSite@@UBEHPBVCBasePane@@@Z @ 2685 NONAME
 ?CanAcceptPane@CMFCOutlookBar@@UBEHPBVCBasePane@@@Z @ 2686 NONAME
 ?CanAccessExternal@CDHtmlDialog@@UAEHXZ @ 2687 NONAME
 ?CanActivate@COleClientItem@@MAEHXZ @ 2688 NONAME
 ?CanActivate@CRichEditCntrItem@@UAEHXZ @ 2689 NONAME
 ?CanActivateNext@CSplitterWnd@@UAEHH@Z @ 2690 NONAME
 ?CanAppend@CDaoRecordset@@QBEHXZ @ 2691 NONAME
 ?CanAutoHide@CDockablePane@@UBEHXZ @ 2692 NONAME
 ?CanBeAddedToQuickAccessToolBar@CMFCRibbonBaseElement@@UBEHXZ @ 2693 NONAME
 ?CanBeAttached@CGlobalUtils@@QBEHPAVCWnd@@@Z @ 2694 NONAME
 ?CanBeAttached@CPaneContainerManager@@UBEHXZ @ 2695 NONAME
 ?CanBeDockedToPane@CMultiPaneFrameWnd@@UBEHPBVCDockablePane@@@Z @ 2696 NONAME
 ?CanBeDockedToPane@CPaneFrameWnd@@UBEHPBVCDockablePane@@@Z @ 2697 NONAME
 ?CanBeDropped@CMFCOutlookBarPaneButton@@UAEHPAVCMFCToolBar@@@Z @ 2698 NONAME
 ?CanBeRestored@CMFCToolBar@@UBEHXZ @ 2699 NONAME
 ?CanBeStretched@CMFCRibbonButton@@UAEHXZ @ 2700 NONAME
 ?CanBeTabbedDocument@CPane@@UBEHXZ @ 2701 NONAME
 ?CanBookmark@CDaoRecordset@@QAEHXZ @ 2702 NONAME
 ?CanBookmark@CRecordset@@QBEHXZ @ 2703 NONAME
 ?Cancel@CDatabase@@QAEXXZ @ 2704 NONAME
 ?Cancel@CRecordset@@QAEXXZ @ 2705 NONAME
 ?CancelBlockingCall@CSocket@@QAEXXZ @ 2706 NONAME
 ?CancelDrag@CDragListBox@@UAEXVCPoint@@@Z @ 2707 NONAME
 ?Cancelled@XNotifyDBEvents@COleControlSite@@UAGJKKQAUtagDBNOTIFYREASON@@@Z @ 2708 NONAME
 ?CancelLink@COleUILinkInfo@@UAGJK@Z @ 2709 NONAME
 ?CancelLoop@CDockContext@@QAEXXZ @ 2710 NONAME
 ?CancelMode@CMFCRibbonPanel@@IAEXXZ @ 2711 NONAME
 ?CancelToClose@CPropertyPage@@QAEXXZ @ 2712 NONAME
 ?CancelToolTips@CWnd@@SGXH@Z @ 2713 NONAME
 ?CancelUpdate@CDaoRecordset@@UAEXXZ @ 2714 NONAME
 ?CancelUpdate@CRecordset@@QAEXXZ @ 2715 NONAME
 ?CanCloseFrame@CDocument@@UAEHPAVCFrameWnd@@@Z @ 2716 NONAME
 ?CanCloseFrame@COleServerDoc@@UAEHPAVCFrameWnd@@@Z @ 2717 NONAME
 ?CanCreateFromData@COleClientItem@@SGHPBVCOleDataObject@@@Z @ 2718 NONAME
 ?CanCreateLinkFromData@COleClientItem@@SGHPBVCOleDataObject@@@Z @ 2719 NONAME
 ?CanDock@CDockContext@@QAEKXZ @ 2720 NONAME
 ?CanDock@CFrameWnd@@QAEKVCRect@@KPAPAVCDockBar@@@Z @ 2721 NONAME
 ?CanEnterHelpMode@CFrameWnd@@QAEHXZ @ 2722 NONAME
 ?CanFloat@CBasePane@@UBEHXZ @ 2723 NONAME
 ?CanFloat@CBaseTabbedPane@@UBEHXZ @ 2724 NONAME
 ?CanHandleSiblings@CMFCToolBar@@QAEHXZ @ 2725 NONAME
 ?CanInPlaceActivate@XOleIPSite@COleClientItem@@UAGJXZ @ 2726 NONAME
 ?CanInPlaceActivate@XOleIPSite@COleControlSite@@UAGJXZ @ 2727 NONAME
 ?CanPaneBeInFloatingMultiPaneFrameWnd@CGlobalUtils@@QBEHPAVCWnd@@@Z @ 2728 NONAME
 ?CanPaste@COleClientItem@@SGHXZ @ 2729 NONAME
 ?CanPaste@CRichEditCtrl@@QBEHI@Z @ 2730 NONAME
 ?CanPaste@CRichEditView@@QBEHXZ @ 2731 NONAME
 ?CanPasteLink@COleClientItem@@SGHXZ @ 2732 NONAME
 ?CanRestart@CDaoRecordset@@QAEHXZ @ 2733 NONAME
 ?CanScroll@CDaoRecordset@@QBEHXZ @ 2734 NONAME
 ?CanShowFewerPageButtons@CMFCOutlookBarTabCtrl@@UBEHXZ @ 2735 NONAME
 ?CanShowMorePageButtons@CMFCOutlookBarTabCtrl@@UBEHXZ @ 2736 NONAME
 ?CanTransact@CDaoDatabase@@QAEHXZ @ 2737 NONAME
 ?CanTransact@CDaoRecordset@@QAEHXZ @ 2738 NONAME
 ?CanUpdate@CDaoDatabase@@QAEHXZ @ 2739 NONAME
 ?CanUpdate@CDaoQueryDef@@QAEHXZ @ 2740 NONAME
 ?CanUpdate@CDaoRecordset@@QBEHXZ @ 2741 NONAME
 ?CanUpdate@CDaoTableDef@@QAEHXZ @ 2742 NONAME
 ?CanWindowlessActivate@XOleIPSite@COleControlSite@@UAGJXZ @ 2743 NONAME
 ?CauseCancelMode@CSmartDockingManager@@QAEXXZ @ 2744 NONAME
 ?CDHtmlSinkHandlerQueryInterface@CDHtmlEventSink@@UAGJABU_GUID@@PAPAX@Z @ 2745 NONAME
 ?CenterElementsInColumn@CMFCRibbonPanel@@IAEXHHH@Z @ 2746 NONAME
 ?CenterOnPoint@CScrollView@@IAEXVCPoint@@@Z @ 2747 NONAME
 ?CenterWindow@CWnd@@QAEXPAV1@@Z @ 2748 NONAME
 ?ChangeActivePage@CMFCTasksPane@@IAEXHH@Z @ 2749 NONAME
 ?ChangeType@COleVariant@@QAEXGPAUtagVARIANT@@@Z @ 2750 NONAME
 ?CharToItem@CListBox@@UAEHII@Z @ 2751 NONAME
 ?CharToOemA@?$CStringT@DV?$StrTraitMFC_DLL@DV?$ChTraitsCRT@D@ATL@@@@@ATL@@QAEXXZ @ 2752 NONAME
 ?Check@CDatabase@@UBEHF@Z @ 2753 NONAME
 ?Check@CRecordset@@UBEHF@Z @ 2754 NONAME
 ?CheckAlignment@CGlobalUtils@@QBEHVCPoint@@PAVCBasePane@@HPBVCDockingManager@@HAAKKPBUtagRECT@@@Z @ 2755 NONAME
 ?CheckAndRemoveNonValidPane@CPaneContainerManager@@QAEHPAVCWnd@@@Z @ 2756 NONAME
 ?CheckArea@CMFCPopupMenu@@QBE?AW4MENUAREA_TYPE@1@ABVCPoint@@@Z @ 2757 NONAME
 ?CheckAutoCenter@CDialog@@UAEHXZ @ 2758 NONAME
 ?CheckAutoCenter@CWnd@@UAEHXZ @ 2759 NONAME
 ?CheckAutoHideCondition@CDockablePane@@MAEHXZ @ 2760 NONAME
 ?CheckChar@CMFCMaskedEdit@@AAEHDH@Z @ 2761 NONAME
 ?CheckCount@CArchive@@QAEXXZ @ 2762 NONAME
 ?CheckDlgButton@COleControlContainer@@UAEXHI@Z @ 2763 NONAME
 ?CheckDlgButton@CWnd@@QAEXHI@Z @ 2764 NONAME
 ?CheckForMiniFrameAndCaption@CPaneContainerManager@@UAEHVCPoint@@PAPAVCDockablePane@@@Z @ 2765 NONAME
 ?CheckFromPoint@CCheckListBox@@IAEHVCPoint@@AAH@Z @ 2766 NONAME
 ?CheckGeneral@COleClientItem@@MAEXJ@Z @ 2767 NONAME
 ?CheckGripperVisibility@CMultiPaneFrameWnd@@UAEXXZ @ 2768 NONAME
 ?CheckHstmt@CDatabase@@QBGHFPAX@Z @ 2769 NONAME
 ?CheckImplicitLoad@?$CStringT@_WV?$StrTraitMFC_DLL@_WV?$ChTraitsCRT@_W@ATL@@@@@ATL@@AAE_NPBX@Z @ 2770 NONAME
 ?CheckImplicitLoad@?$CStringT@DV?$StrTraitMFC_DLL@DV?$ChTraitsCRT@D@ATL@@@@@ATL@@AAE_NPBX@Z @ 2771 NONAME
 ?CheckNextPrevRadioButton@CMFCButton@@IAEHH@Z @ 2772 NONAME
 ?CheckPaneDividerVisibility@CPaneContainer@@QAEXXZ @ 2773 NONAME
 ?CheckPanes@CDockingPanesRow@@IAEHAAVCRect@@PAVCPane@@_NVCPoint@@HAAPAX@Z @ 2774 NONAME
 ?CheckRadioButton@COleControlContainer@@UAEXHHH@Z @ 2775 NONAME
 ?CheckRadioButton@CWnd@@QAEXHHH@Z @ 2776 NONAME
 ?CheckRectangle@CMFCCaptionBar@@IAEHAAVCRect@@ABV2@H@Z @ 2777 NONAME
 ?CheckRemovedItems@CJumpList@@IAEPAUIObjectCollection@@PAU2@@Z @ 2778 NONAME
 ?CheckRowsetCurrencyStatus@CRecordset@@QAEXGJ@Z @ 2779 NONAME
 ?CheckRowsetError@CRecordset@@UAEXF@Z @ 2780 NONAME
 ?CheckScrollBars@CScrollView@@QBEXAAH0@Z @ 2781 NONAME
 ?CheckStopSlideCondition@CDockablePane@@MAEHH@Z @ 2782 NONAME
 ?CheckTabbedBarAlignment@CTabbedPane@@MAEHXZ @ 2783 NONAME
 ?CheckVisibility@CPaneDivider@@UAEHXZ @ 2784 NONAME
 ?ChWindowFromPoint@@YAPAUHWND__@@PAU1@UtagPOINT@@@Z @ 2785 NONAME
 ?classCDaoDatabase@CDaoDatabase@@2UCRuntimeClass@@B @ 2786 NONAME DATA
 ?classCDaoException@CDaoException@@2UCRuntimeClass@@B @ 2787 NONAME DATA
 ?classCDaoQueryDef@CDaoQueryDef@@2UCRuntimeClass@@B @ 2788 NONAME DATA
 ?classCDaoRecordset@CDaoRecordset@@2UCRuntimeClass@@B @ 2789 NONAME DATA
 ?classCDaoRecordView@CDaoRecordView@@2UCRuntimeClass@@B @ 2790 NONAME DATA
 ?classCDaoTableDef@CDaoTableDef@@2UCRuntimeClass@@B @ 2791 NONAME DATA
 ?classCDaoWorkspace@CDaoWorkspace@@2UCRuntimeClass@@B @ 2792 NONAME DATA
 ?classCDatabase@CDatabase@@2UCRuntimeClass@@B @ 2793 NONAME DATA
 ?classCDBException@CDBException@@2UCRuntimeClass@@B @ 2794 NONAME DATA
 ?classCLongBinary@CLongBinary@@2UCRuntimeClass@@B @ 2795 NONAME DATA
 ?classCOleDBRecordView@COleDBRecordView@@2UCRuntimeClass@@B @ 2796 NONAME DATA
 ?classCRecordset@CRecordset@@2UCRuntimeClass@@B @ 2797 NONAME DATA
 ?classCRecordView@CRecordView@@2UCRuntimeClass@@B @ 2798 NONAME DATA
 ?CleanState@CWinAppEx@@UAEHPBD@Z @ 2799 NONAME
 ?CleanStyle@CMFCVisualManagerOffice2007@@SGXXZ @ 2800 NONAME
 ?CleanStyle@CMFCVisualManagerWindows7@@SGXXZ @ 2801 NONAME
 ?CleanUp@AFX_GLOBAL_DATA@@QAEXXZ @ 2802 NONAME
 ?CleanUp@CCommandManager@@QAEXXZ @ 2803 NONAME
 ?CleanUp@CKeyboardManager@@SGXXZ @ 2804 NONAME
 ?CleanUp@CMenuHash@@QAEXXZ @ 2805 NONAME
 ?CleanUp@CMenuImages@@SGXXZ @ 2806 NONAME
 ?CleanUp@CMFCBaseTabCtrl@@UAEXXZ @ 2807 NONAME
 ?CleanUp@CMFCButton@@UAEXXZ @ 2808 NONAME
 ?CleanUp@CMFCControlRenderer@@UAEXXZ @ 2809 NONAME
 ?CleanUp@CMFCFontComboBox@@IAEXXZ @ 2810 NONAME
 ?CleanUp@CMFCToolBarImages@@SGXXZ @ 2811 NONAME
 ?CleanUp@CMFCVisualManagerOffice2007@@MAEXXZ @ 2812 NONAME
 ?CleanUp@CMFCVisualManagerWindows7@@UAEXXZ @ 2813 NONAME
 ?CleanUp@CPaneContainer@@IAEXXZ @ 2814 NONAME
 ?Cleanup@CPropertyPage@@IAEXXZ @ 2815 NONAME
 ?CleanUp@CRecentDockSiteInfo@@QAEXXZ @ 2816 NONAME
 ?CleanUpAutoHideButtons@CMFCAutoHideBar@@IAEXXZ @ 2817 NONAME
 ?CleanUpCustomizeItems@CMFCRibbonStatusBar@@IAEXXZ @ 2818 NONAME
 ?CleanUpGroup@CAnimationController@@IAEXPAVCAnimationGroup@@@Z @ 2819 NONAME
 ?CleanUpGroup@CAnimationController@@QAEXI@Z @ 2820 NONAME
 ?CleanUpImages@CMFCToolBar@@SGXXZ @ 2821 NONAME
 ?CleanUpLockedImages@CMFCToolBar@@QAEXXZ @ 2822 NONAME
 ?CleanupObjectArray@COlePropertyPage@@IAEXXZ @ 2823 NONAME
 ?CleanUpSizes@CMFCRibbonButtonsGroup@@MAEXXZ @ 2824 NONAME
 ?CleanUpSizes@CMFCRibbonCategory@@IAEXXZ @ 2825 NONAME
 ?CleanUpSizes@CMFCRibbonPanel@@IAEXXZ @ 2826 NONAME
 ?CleanUpThemes@CMFCBaseVisualManager@@IAEXXZ @ 2827 NONAME
 ?CleanUpUndoList@CMFCRibbonUndoButton@@QAEXXZ @ 2828 NONAME
 ?Clear@CDBVariant@@QAEXXZ @ 2829 NONAME
 ?Clear@CDockState@@QAEXXZ @ 2830 NONAME
 ?Clear@CMFCFilterChunkValueImpl@@UAEXXZ @ 2831 NONAME
 ?Clear@CMFCRibbonGallery@@UAEXXZ @ 2832 NONAME
 ?Clear@CMFCToolBarImages@@QAEXXZ @ 2833 NONAME
 ?Clear@CMFCVisualManagerBitmapCache@@QAEXXZ @ 2834 NONAME
 ?Clear@CRenderTarget@@QAEXU_D3DCOLORVALUE@@@Z @ 2835 NONAME
 ?ClearAll@CJumpList@@QAEXXZ @ 2836 NONAME
 ?ClearAll@CMFCOutlookBarPane@@QAEXXZ @ 2837 NONAME
 ?ClearAllCmdImages@CCommandManager@@QAEXXZ @ 2838 NONAME
 ?ClearAllDestinations@CJumpList@@QAEXXZ @ 2839 NONAME
 ?ClearChunkList@CDocument@@UAEXXZ @ 2840 NONAME
 ?ClearCmdImage@CCommandManager@@QAEXI@Z @ 2841 NONAME
 ?ClearControlData@CMFCControlContainer@@QAEXXZ @ 2842 NONAME
 ?ClearData@CMFCRibbonComboBox@@MAEXXZ @ 2843 NONAME
 ?ClearData@CMFCRibbonFontComboBox@@MAEXXZ @ 2844 NONAME
 ?ClearDirtyFieldStatus@CDaoRecordset@@QAEXI@Z @ 2845 NONAME
 ?ClearDirtyFieldStatus@CRecordset@@QAEXK@Z @ 2846 NONAME
 ?ClearFieldStatus@CRecordset@@QAEXXZ @ 2847 NONAME
 ?ClearFieldStatusFlags@CDaoRecordset@@QAEXXZ @ 2848 NONAME
 ?ClearFonts@CMFCToolBarFontComboBox@@KGXXZ @ 2849 NONAME
 ?ClearImageList@CMFCBaseTabCtrl@@UAEXXZ @ 2850 NONAME
 ?ClearImages@CMFCButton@@IAEXH@Z @ 2851 NONAME
 ?ClearNullFieldStatus@CDaoRecordset@@QAEXI@Z @ 2852 NONAME
 ?ClearNullFieldStatus@CRecordset@@QAEXK@Z @ 2853 NONAME
 ?ClearNullParamStatus@CRecordset@@QAEXK@Z @ 2854 NONAME
 ?ClearPathName@CDocument@@UAEXXZ @ 2855 NONAME
 ?ClearTransitions@CAnimationBaseObject@@UAEXH@Z @ 2856 NONAME
 ?ClearTransitions@CAnimationVariable@@QAEXH@Z @ 2857 NONAME
 ?ClearUserCmdImages@CCommandManager@@QAEXXZ @ 2858 NONAME
 ?ClientToParent@COleControl@@UBEXPBUtagRECT@@PAUtagPOINT@@@Z @ 2859 NONAME
 ?ClientToScreen@CWnd@@QBEXPAUtagRECT@@@Z @ 2860 NONAME
 ?ClipCaretRect@COleControl@@QAEHPAUtagRECT@@@Z @ 2861 NONAME
 ?ClipToPage@CPreviewDC@@QAEXXZ @ 2862 NONAME
 ?Clone@CAfxStringMgr@@UAEPAUIAtlStringMgr@ATL@@XZ @ 2863 NONAME
 ?Clone@CArchiveStream@@UAGJPAPAUIStream@@@Z @ 2864 NONAME
 ?Clone@XEnumVOID@CEnumArray@@UAGJPAPAUIEnumVOID@@@Z @ 2865 NONAME
 ?Clone@XOleDocumentView@CDocObjectServer@@UAGJPAUIOleInPlaceSite@@PAPAUIOleDocumentView@@@Z @ 2866 NONAME
 ?CloneData@?$CSimpleStringT@_W$00@ATL@@CAPAUCStringData@2@PAU32@@Z @ 2867 NONAME
 ?CloneData@?$CSimpleStringT@D$00@ATL@@CAPAUCStringData@2@PAU32@@Z @ 2868 NONAME
 ?Close@CArchive@@QAEXXZ @ 2869 NONAME
 ?Close@CAsyncMonikerFile@@UAEXXZ @ 2870 NONAME
 ?Close@CAsyncSocket@@UAEXXZ @ 2871 NONAME
 ?Close@CCachedDataPathProperty@@UAEXXZ @ 2872 NONAME
 ?Close@CD2DGeometrySink@@QAEHXZ @ 2873 NONAME
 ?Close@CDaoDatabase@@UAEXXZ @ 2874 NONAME
 ?Close@CDaoQueryDef@@UAEXXZ @ 2875 NONAME
 ?Close@CDaoRecordset@@UAEXXZ @ 2876 NONAME
 ?Close@CDaoTableDef@@UAEXXZ @ 2877 NONAME
 ?Close@CDaoWorkspace@@UAEXXZ @ 2878 NONAME
 ?Close@CDatabase@@UAEXXZ @ 2879 NONAME
 ?Close@CFile@@UAEXXZ @ 2880 NONAME
 ?Close@CFileFind@@QAEXXZ @ 2881 NONAME
 ?Close@CInternetConnection@@UAEXXZ @ 2882 NONAME
 ?Close@CInternetFile@@UAEXXZ @ 2883 NONAME
 ?Close@CInternetSession@@UAEXXZ @ 2884 NONAME
 ?Close@CMemFile@@UAEXXZ @ 2885 NONAME
 ?Close@CMirrorFile@@UAEXXZ @ 2886 NONAME
 ?Close@CMonikerFile@@UAEXXZ @ 2887 NONAME
 ?Close@COleClientItem@@QAEXW4tagOLECLOSE@@@Z @ 2888 NONAME
 ?Close@COleStreamFile@@UAEXXZ @ 2889 NONAME
 ?Close@CRecordset@@UAEXXZ @ 2890 NONAME
 ?Close@CSettingsStore@@UAEXXZ @ 2891 NONAME
 ?Close@CSocket@@UAEXXZ @ 2892 NONAME
 ?Close@CSocketFile@@UAEXXZ @ 2893 NONAME
 ?Close@CStdioFile@@UAEXXZ @ 2894 NONAME
 ?Close@XOleObject@CDocObjectServer@@UAGJK@Z @ 2895 NONAME
 ?Close@XOleObject@COleControl@@UAGJK@Z @ 2896 NONAME
 ?Close@XOleObject@COleServerDoc@@UAGJK@Z @ 2897 NONAME
 ?Close@XOleObject@COleServerItem@@UAGJK@Z @ 2898 NONAME
 ?CloseAllDocuments@CDocManager@@UAEXH@Z @ 2899 NONAME
 ?CloseAllDocuments@CDocTemplate@@UAEXH@Z @ 2900 NONAME
 ?CloseAllDocuments@CWinApp@@QAEXH@Z @ 2901 NONAME
 ?CloseAllWindows@CMDIClientAreaWnd@@QAEXPAVCMFCTabCtrl@@@Z @ 2902 NONAME
 ?CloseColorPopup@CMFCPropertyGridCtrl@@UAEXXZ @ 2903 NONAME
 ?CloseContext@CFileFind@@MAEXXZ @ 2904 NONAME
 ?CloseContext@CFtpFileFind@@MAEXXZ @ 2905 NONAME
 ?CloseContext@CGopherFileFind@@MAEXXZ @ 2906 NONAME
 ?CloseContextMenu@CMFCToolBarsMenuPropertyPage@@QAEXPAVCMFCPopupMenu@@@Z @ 2907 NONAME
 ?CloseDelayedSubMenu@CMFCPopupMenuBar@@UAEXXZ @ 2908 NONAME
 ?CloseDelayedSubMenu@CMFCRibbonPanelMenuBar@@UAEXXZ @ 2909 NONAME
 ?CloseMenu@CMFCPopupMenu@@QAEXH@Z @ 2910 NONAME
 ?CloseMiniFrame@CMultiPaneFrameWnd@@UAEXXZ @ 2911 NONAME
 ?CloseMiniFrame@CPaneFrameWnd@@MAEXXZ @ 2912 NONAME
 ?ClosePopupMenu@CMFCRibbonBaseElement@@UAEXXZ @ 2913 NONAME
 ?ClosePopupMenu@CMFCRibbonButton@@UAEXXZ @ 2914 NONAME
 ?CloseView@XOleDocumentView@CDocObjectServer@@UAGJK@Z @ 2915 NONAME
 ?CollapseAllGroups@CMFCTasksPane@@QAEXH@Z @ 2916 NONAME
 ?CollapseAllGroups@CMFCTasksPane@@QAEXHH@Z @ 2917 NONAME
 ?CollapseGroup@CMFCTasksPane@@QAEHPAVCMFCTasksPaneTaskGroup@@H@Z @ 2918 NONAME
 ?CollapseSubmenus@CMFCPopupMenu@@IAEXXZ @ 2919 NONAME
 ?Collate@?$CStringT@_WV?$StrTraitMFC_DLL@_WV?$ChTraitsCRT@_W@ATL@@@@@ATL@@QBEHPB_W@Z @ 2920 NONAME
 ?Collate@?$CStringT@DV?$StrTraitMFC_DLL@DV?$ChTraitsCRT@D@ATL@@@@@ATL@@QBEHPBD@Z @ 2921 NONAME
 ?CollateNoCase@?$CStringT@_WV?$StrTraitMFC_DLL@_WV?$ChTraitsCRT@_W@ATL@@@@@ATL@@QBEHPB_W@Z @ 2922 NONAME
 ?CollateNoCase@?$CStringT@DV?$StrTraitMFC_DLL@DV?$ChTraitsCRT@D@ATL@@@@@ATL@@QBEHPBD@Z @ 2923 NONAME
 ?CollectBaseElement@CMFCRibbonCollector@@MAEXABVCMFCRibbonBaseElement@@AAVXElement@CMFCRibbonInfo@@H@Z @ 2924 NONAME
 ?CollectCategory@CMFCRibbonCollector@@MAEXABVCMFCRibbonCategory@@AAVXCategory@CMFCRibbonInfo@@@Z @ 2925 NONAME
 ?CollectCategoryMain@CMFCRibbonCollector@@MAEXABVCMFCRibbonBar@@AAVXCategoryMain@CMFCRibbonInfo@@@Z @ 2926 NONAME
 ?CollectElement@CMFCRibbonCollector@@MAEPAVXElement@CMFCRibbonInfo@@ABVCMFCRibbonBaseElement@@@Z @ 2927 NONAME
 ?CollectElement@CMFCRibbonCollector@@MAEXABVCMFCRibbonBaseElement@@AAVXElement@CMFCRibbonInfo@@@Z @ 2928 NONAME
 ?CollectImageInfo@CMFCRibbonCollector@@MAEXAAVCMFCToolBarImages@@AAVXImage@CMFCRibbonInfo@@H@Z @ 2929 NONAME
 ?CollectPanel@CMFCRibbonCollector@@MAEXABVCMFCRibbonPanel@@AAVXPanel@CMFCRibbonInfo@@@Z @ 2930 NONAME
 ?CollectQATElements@CMFCRibbonCollector@@MAEXABVCMFCRibbonBar@@AAVXRibbonBar@CMFCRibbonInfo@@@Z @ 2931 NONAME
 ?CollectRibbonBar@CMFCRibbonCollector@@MAEXABVCMFCRibbonBar@@AAVXRibbonBar@CMFCRibbonInfo@@@Z @ 2932 NONAME
 ?CollectRibbonBar@CMFCRibbonCollector@@UAEXABVCMFCRibbonBar@@@Z @ 2933 NONAME
 ?COLORREF_TO_D2DCOLOR@CRenderTarget@@SA?AU_D3DCOLORVALUE@@KH@Z @ 2934 NONAME
 ?CombineWithGeometry@CD2DGeometry@@QBEHAAV1@W4D2D1_COMBINE_MODE@@ABUD2D_MATRIX_3X2_F@@PAUID2D1SimplifiedGeometrySink@@M@Z @ 2935 NONAME
 ?Command@CFtpConnection@@QAEPAVCInternetFile@@PBDW4CmdResponseType@1@KK@Z @ 2936 NONAME
 ?CommandToIndex@CMFCStatusBar@@QBEHI@Z @ 2937 NONAME
 ?CommandToIndex@CMFCToolBar@@QBEHIH@Z @ 2938 NONAME
 ?CommandToIndex@CStatusBar@@QBEHI@Z @ 2939 NONAME
 ?CommandToIndex@CToolBar@@QBEHI@Z @ 2940 NONAME
 ?Commit@CArchiveStream@@UAGJK@Z @ 2941 NONAME
 ?CommitItem@COleClientItem@@UAEXH@Z @ 2942 NONAME
 ?CommitItems@COleDocument@@QAEXHPAUIStorage@@@Z @ 2943 NONAME
 ?CommitList@CJumpList@@QAEHXZ @ 2944 NONAME
 ?CommitTrans@CDaoWorkspace@@QAEXXZ @ 2945 NONAME
 ?CommitTrans@CDatabase@@QAEHXZ @ 2946 NONAME
 ?CommitTrans@CDockingPanesRow@@IAEXXZ @ 2947 NONAME
 ?CommonBaseInit@CFile@@IAEXPAXPAVCAtlTransactionManager@ATL@@@Z @ 2948 NONAME
 ?CommonBaseInit@CStdioFile@@IAEXPAU_iobuf@@PAVCAtlTransactionManager@ATL@@@Z @ 2949 NONAME
 ?CommonConstruct@CDialogEx@@IAEXXZ @ 2950 NONAME
 ?CommonConstruct@COleObjectFactory@@IAEXABU_GUID@@PAUCRuntimeClass@@HHPBD@Z @ 2951 NONAME
 ?CommonConstruct@CPropertyPage@@IAEXPBDI@Z @ 2952 NONAME
 ?CommonConstruct@CPropertyPage@@IAEXPBDIII@Z @ 2953 NONAME
 ?CommonConstruct@CPropertySheet@@QAEXPAVCWnd@@I@Z @ 2954 NONAME
 ?CommonConstruct@CPropertySheet@@QAEXPAVCWnd@@IPAUHBITMAP__@@PAUHPALETTE__@@1@Z @ 2955 NONAME
 ?CommonConstruct@CWinThread@@QAEXXZ @ 2956 NONAME
 ?CommonCreate@CMFCDesktopAlertWnd@@IAEHVCPoint@@PAVCMFCDesktopAlertWndInfo@@@Z @ 2957 NONAME
 ?CommonInit@CD2DBitmap@@IAEXXZ @ 2958 NONAME
 ?CommonInit@CD2DBitmapBrush@@IAEXPAUD2D1_BITMAP_BRUSH_PROPERTIES@@@Z @ 2959 NONAME
 ?CommonInit@CD2DBrushProperties@@IAEXXZ @ 2960 NONAME
 ?CommonInit@CFile@@IAEXPBDIPAVCAtlTransactionManager@ATL@@@Z @ 2961 NONAME
 ?CommonInit@CMFCControlRendererInfo@@QAEXXZ @ 2962 NONAME
 ?CommonInit@CMFCCustomizeButton@@IAEXXZ @ 2963 NONAME
 ?CommonInit@CMFCDropDownListBox@@IAEXXZ @ 2964 NONAME
 ?CommonInit@CMFCHeaderCtrl@@IAEXXZ @ 2965 NONAME
 ?CommonInit@CMFCPropertyPage@@IAEXXZ @ 2966 NONAME
 ?CommonInit@CMFCPropertySheet@@IAEXXZ @ 2967 NONAME
 ?CommonInit@CMFCRibbonButton@@IAEXXZ @ 2968 NONAME
 ?CommonInit@CMFCRibbonCategory@@IAEXPAVCMFCRibbonBar@@PBDIIVCSize@@2@Z @ 2969 NONAME
 ?CommonInit@CMFCRibbonColorButton@@IAEXXZ @ 2970 NONAME
 ?CommonInit@CMFCRibbonComboBox@@IAEXXZ @ 2971 NONAME
 ?CommonInit@CMFCRibbonEdit@@IAEXXZ @ 2972 NONAME
 ?CommonInit@CMFCRibbonGallery@@IAEXXZ @ 2973 NONAME
 ?CommonInit@CMFCRibbonGalleryMenuButton@@IAEXXZ @ 2974 NONAME
 ?CommonInit@CMFCRibbonPanel@@IAEXPBDPAUHICON__@@@Z @ 2975 NONAME
 ?CommonInit@CMFCRibbonPanelMenuBar@@IAEXXZ @ 2976 NONAME
 ?CommonInit@CMFCRibbonProgressBar@@IAEXXZ @ 2977 NONAME
 ?CommonInit@CMFCRibbonSlider@@IAEXXZ @ 2978 NONAME
 ?CommonInit@CMFCRibbonStatusBarPane@@IAEXXZ @ 2979 NONAME
 ?CommonInit@CMFCRibbonUndoButton@@IAEXXZ @ 2980 NONAME
 ?CommonInit@CMFCToolBarImages@@QAEXH@Z @ 2981 NONAME
 ?CommonInit@CStdioFile@@IAEXPBDIPAVCAtlTransactionManager@ATL@@@Z @ 2982 NONAME
 ?CompactDatabase@CDaoWorkspace@@SGXPBD00H@Z @ 2983 NONAME
 ?CompactDatabase@CDaoWorkspace@@SGXPBD00H0@Z @ 2984 NONAME
 ?Compare@?$CStringT@_WV?$StrTraitMFC_DLL@_WV?$ChTraitsCRT@_W@ATL@@@@@ATL@@QBEHPB_W@Z @ 2985 NONAME
 ?Compare@?$CStringT@DV?$StrTraitMFC_DLL@DV?$ChTraitsCRT@D@ATL@@@@@ATL@@QBEHPBD@Z @ 2986 NONAME
 ?Compare@CMFCToolBarComboBoxButton@@UAEHPBD0@Z @ 2987 NONAME
 ?CompareItem@CComboBox@@UAEHPAUtagCOMPAREITEMSTRUCT@@@Z @ 2988 NONAME
 ?CompareItem@CListBox@@UAEHPAUtagCOMPAREITEMSTRUCT@@@Z @ 2989 NONAME
 ?CompareItem@CMFCFontComboBox@@UAEHPAUtagCOMPAREITEMSTRUCT@@@Z @ 2990 NONAME
 ?CompareNoCase@?$CStringT@_WV?$StrTraitMFC_DLL@_WV?$ChTraitsCRT@_W@ATL@@@@@ATL@@QBEHPB_W@Z @ 2991 NONAME
 ?CompareNoCase@?$CStringT@DV?$StrTraitMFC_DLL@DV?$ChTraitsCRT@D@ATL@@@@@ATL@@QBEHPBD@Z @ 2992 NONAME
 ?CompareProc@CMFCListCtrl@@KGHJJJ@Z @ 2993 NONAME
 ?CompareProc@CMFCShellTreeCtrl@@KGHJJJ@Z @ 2994 NONAME
 ?CompareProps@CMFCPropertyGridCtrl@@MBEHPBVCMFCPropertyGridProperty@@0@Z @ 2995 NONAME
 ?CompareValue@CDaoFieldExchange@@SGHPAX0K@Z @ 2996 NONAME
 ?CompareWith@CMFCToolBarButton@@UBEHABV1@@Z @ 2997 NONAME
 ?CompareWith@CMFCToolBarMenuButton@@UBEHABVCMFCToolBarButton@@@Z @ 2998 NONAME
 ?CompareWithGeometry@CD2DGeometry@@QBE?AW4D2D1_GEOMETRY_RELATION@@AAV1@ABUD2D_MATRIX_3X2_F@@M@Z @ 2999 NONAME
 ?ComputeArea@CD2DGeometry@@QBEHABUD2D_MATRIX_3X2_F@@AAMM@Z @ 3000 NONAME
 ?ComputeDeltas@CPreviewDC@@IAE?AVCSize@@AAHPBDAAIHIPAHHPAD30@Z @ 3001 NONAME
 ?ComputeLength@CD2DGeometry@@QBEHABUD2D_MATRIX_3X2_F@@AAMM@Z @ 3002 NONAME
 ?ComputePointAtLength@CD2DGeometry@@QBEHMABUD2D_MATRIX_3X2_F@@AAVCD2DPointF@@1M@Z @ 3003 NONAME
 ?Concatenate@?$CSimpleStringT@_W$00@ATL@@KAXAAV12@PB_WH1H@Z @ 3004 NONAME
 ?Concatenate@?$CSimpleStringT@D$00@ATL@@KAXAAV12@PBDH1H@Z @ 3005 NONAME
 ?ConcatenateItem@CShellManager@@QAEPAU_ITEMIDLIST@@PBU2@0@Z @ 3006 NONAME
 ?Connect@CAsyncSocket@@QAEHPBDI@Z @ 3007 NONAME
 ?Connect@CDatabase@@IAEHK@Z @ 3008 NONAME
 ?ConnectDHtmlElementEvents@CDHtmlDialog@@IAEJK@Z @ 3009 NONAME
 ?ConnectDHtmlEvents@CDHtmlDialog@@IAEJPAUIUnknown@@@Z @ 3010 NONAME
 ?ConnectHelper@CAsyncSocket@@MAEHPBUsockaddr@@H@Z @ 3011 NONAME
 ?ConnectHelper@CSocket@@MAEHPBUsockaddr@@H@Z @ 3012 NONAME
 ?ConnectSink@COleControlSite@@IAEKABU_GUID@@PAUIUnknown@@@Z @ 3013 NONAME
 ?ConnectTemplate@COleTemplateServer@@QAEXABU_GUID@@PAVCDocTemplate@@HH@Z @ 3014 NONAME
 ?ConnectToConnectionPoint@CDHtmlEventSink@@QAEJPAUIUnknown@@ABU_GUID@@PAK@Z @ 3015 NONAME
 ?ConnectToControl@CDHtmlControlSink@@QAEJPAUIUnknown@@@Z @ 3016 NONAME
 ?ConnectView@COleServerDoc@@IAEXPAVCWnd@@PAVCView@@@Z @ 3017 NONAME
 ?Construct@?$CStringT@_WV?$StrTraitMFC_DLL@_WV?$ChTraitsCRT@_W@ATL@@@@@ATL@@SAXPAV12@@Z @ 3018 NONAME
 ?Construct@?$CStringT@DV?$StrTraitMFC_DLL@DV?$ChTraitsCRT@D@ATL@@@@@ATL@@SAXPAV12@@Z @ 3019 NONAME
 ?Construct@CPropertyPage@@QAEXII@Z @ 3020 NONAME
 ?Construct@CPropertyPage@@QAEXIIII@Z @ 3021 NONAME
 ?Construct@CPropertyPage@@QAEXPBDI@Z @ 3022 NONAME
 ?Construct@CPropertyPage@@QAEXPBDIII@Z @ 3023 NONAME
 ?Construct@CPropertySheet@@QAEXIPAVCWnd@@I@Z @ 3024 NONAME
 ?Construct@CPropertySheet@@QAEXIPAVCWnd@@IPAUHBITMAP__@@PAUHPALETTE__@@1@Z @ 3025 NONAME
 ?Construct@CPropertySheet@@QAEXPBDPAVCWnd@@I@Z @ 3026 NONAME
 ?Construct@CPropertySheet@@QAEXPBDPAVCWnd@@IPAUHBITMAP__@@PAUHPALETTE__@@2@Z @ 3027 NONAME
 ?Construct@CRectTracker@@IAEXXZ @ 3028 NONAME
 ?ConstructBaseElement@CMFCRibbonConstructor@@MBEXAAVCMFCRibbonBaseElement@@ABVXElement@CMFCRibbonInfo@@@Z @ 3029 NONAME
 ?ConstructCategory@CMFCRibbonConstructor@@MBEXAAVCMFCRibbonCategory@@ABVXCategory@CMFCRibbonInfo@@@Z @ 3030 NONAME
 ?ConstructCategoryMain@CMFCRibbonConstructor@@MBEXAAVCMFCRibbonBar@@ABVXCategoryMain@CMFCRibbonInfo@@@Z @ 3031 NONAME
 ?ConstructElement@CMFCRibbonConstructor@@MBEXAAVCMFCRibbonBaseElement@@ABVXElement@CMFCRibbonInfo@@@Z @ 3032 NONAME
 ?ConstructPanel@CMFCRibbonConstructor@@MBEXAAVCMFCRibbonPanel@@ABVXPanel@CMFCRibbonInfo@@@Z @ 3033 NONAME
 ?ConstructQATElements@CMFCRibbonConstructor@@MBEXAAVCMFCRibbonBar@@ABVXRibbonBar@CMFCRibbonInfo@@@Z @ 3034 NONAME
 ?ConstructRibbonBar@CMFCRibbonConstructor@@UBEXAAVCMFCRibbonBar@@@Z @ 3035 NONAME
 ?ConstructTabElements@CMFCRibbonConstructor@@MBEXAAVCMFCRibbonBar@@ABVXRibbonBar@CMFCRibbonInfo@@@Z @ 3036 NONAME
 ?ContainsVariable@CAnimationBaseObject@@UAEHPAUIUIAnimationVariable@@@Z @ 3037 NONAME
 ?ContextSensitiveHelp@XOleInPlaceActiveObject@COleControl@@UAGJH@Z @ 3038 NONAME
 ?ContextSensitiveHelp@XOleInPlaceActiveObject@COleServerDoc@@UAGJH@Z @ 3039 NONAME
 ?ContextSensitiveHelp@XOleInPlaceFrame@COleFrameHook@@UAGJH@Z @ 3040 NONAME
 ?ContextSensitiveHelp@XOleInPlaceObject@COleControl@@UAGJH@Z @ 3041 NONAME
 ?ContextSensitiveHelp@XOleInPlaceObject@COleServerDoc@@UAGJH@Z @ 3042 NONAME
 ?ContextSensitiveHelp@XOleIPFrame@COleControlContainer@@UAGJH@Z @ 3043 NONAME
 ?ContextSensitiveHelp@XOleIPSite@COleClientItem@@UAGJH@Z @ 3044 NONAME
 ?ContextSensitiveHelp@XOleIPSite@COleControlSite@@UAGJH@Z @ 3045 NONAME
 ?ContextSensitiveHelp@XOleWindow@CDocument@@UAGJH@Z @ 3046 NONAME
 ?ContextSensitiveHelp@XRichEditOleCallback@CRichEditView@@UAGJH@Z @ 3047 NONAME
 ?ContextToSize@CMFCColorBar@@QAEXHH@Z @ 3048 NONAME
 ?ContinueModal@CPropertySheet@@UAEHXZ @ 3049 NONAME
 ?ContinueModal@CWnd@@UAEHXZ @ 3050 NONAME
 ?ControlBarCleanUp@@YAXXZ @ 3051 NONAME
 ?ControlBarToTabbedDocument@CMDIFrameWndEx@@UAEPAVCMDIChildWndEx@@PAVCDockablePane@@@Z @ 3052 NONAME
 ?ControlInfoChanged@COleControl@@QAEXXZ @ 3053 NONAME
 ?ConvertObject@XOleUIObjInfo@COlePropertiesDialog@@UAGJKABU_GUID@@@Z @ 3054 NONAME
 ?ConvertTo@COleClientItem@@UAEHABU_GUID@@@Z @ 3055 NONAME
 ?ConvertTo@CRichEditCntrItem@@UAEHABU_GUID@@@Z @ 3056 NONAME
 ?ConvertTo32Bits@CMFCToolBarImages@@QAEHK@Z @ 3057 NONAME
 ?ConvertToTabbedDocument@CBaseTabbedPane@@UAEXH@Z @ 3058 NONAME
 ?ConvertToTabbedDocument@CDockablePane@@UAEXH@Z @ 3059 NONAME
 ?ConvertToTabbedDocument@CMultiPaneFrameWnd@@UAEXXZ @ 3060 NONAME
 ?ConvertToTabbedDocument@CPane@@UAEXH@Z @ 3061 NONAME
 ?ConvertToTabbedDocument@CPaneFrameWnd@@UAEXXZ @ 3062 NONAME
 ?Copy@CByteArray@@QAEXABV1@@Z @ 3063 NONAME
 ?Copy@CDWordArray@@QAEXABV1@@Z @ 3064 NONAME
 ?Copy@CMFCToolBarImages@@SGPAUHBITMAP__@@PAU2@@Z @ 3065 NONAME
 ?Copy@CObArray@@QAEXABV1@@Z @ 3066 NONAME
 ?Copy@COleSafeArray@@QAEXPAPAUtagSAFEARRAY@@@Z @ 3067 NONAME
 ?Copy@CPaneContainer@@UAEPAV1@PAV1@@Z @ 3068 NONAME
 ?Copy@CPtrArray@@QAEXABV1@@Z @ 3069 NONAME
 ?Copy@CStringArray@@QAEXABV1@@Z @ 3070 NONAME
 ?Copy@CUIntArray@@QAEXABV1@@Z @ 3071 NONAME
 ?Copy@CWordArray@@QAEXABV1@@Z @ 3072 NONAME
 ?CopyButtonsList@CMFCOutlookBarPane@@IAEXABVCObList@@AAV2@@Z @ 3073 NONAME
 ?CopyChars@?$CSimpleStringT@_W$00@ATL@@SAXPA_WPB_WH@Z @ 3074 NONAME
 ?CopyChars@?$CSimpleStringT@D$00@ATL@@SAXPADPBDH@Z @ 3075 NONAME
 ?CopyCharsOverlapped@?$CSimpleStringT@_W$00@ATL@@SAXPA_WPB_WH@Z @ 3076 NONAME
 ?CopyCharsOverlapped@?$CSimpleStringT@D$00@ATL@@SAXPADPBDH@Z @ 3077 NONAME
 ?CopyChunk@CMFCFilterChunkValueImpl@@UAEJPAUtagSTAT_CHUNK@@@Z @ 3078 NONAME
 ?CopyColumnID@CDataSourceControl@@QAEHPAUtagDBCOLUMNID@@PBU2@@Z @ 3079 NONAME
 ?CopyFrom@CMFCColorMenuButton@@MAEXABVCMFCToolBarButton@@@Z @ 3080 NONAME
 ?CopyFrom@CMFCCustomizeButton@@UAEXABVCMFCToolBarButton@@@Z @ 3081 NONAME
 ?CopyFrom@CMFCCustomizeMenuButton@@MAEXABVCMFCToolBarButton@@@Z @ 3082 NONAME
 ?CopyFrom@CMFCDropDownToolbarButton@@UAEXABVCMFCToolBarButton@@@Z @ 3083 NONAME
 ?CopyFrom@CMFCFilterChunkValueImpl@@UAEXPAUIFilterChunkValue@ATL@@@Z @ 3084 NONAME
 ?CopyFrom@CMFCRibbonBaseElement@@UAEXABV1@@Z @ 3085 NONAME
 ?CopyFrom@CMFCRibbonButton@@MAEXABVCMFCRibbonBaseElement@@@Z @ 3086 NONAME
 ?CopyFrom@CMFCRibbonButtonsGroup@@MAEXABVCMFCRibbonBaseElement@@@Z @ 3087 NONAME
 ?CopyFrom@CMFCRibbonCategory@@UAEXAAV1@@Z @ 3088 NONAME
 ?CopyFrom@CMFCRibbonColorButton@@MAEXABVCMFCRibbonBaseElement@@@Z @ 3089 NONAME
 ?CopyFrom@CMFCRibbonComboBox@@MAEXABVCMFCRibbonBaseElement@@@Z @ 3090 NONAME
 ?CopyFrom@CMFCRibbonDefaultPanelButton@@UAEXABVCMFCRibbonBaseElement@@@Z @ 3091 NONAME
 ?CopyFrom@CMFCRibbonEdit@@UAEXABVCMFCRibbonBaseElement@@@Z @ 3092 NONAME
 ?CopyFrom@CMFCRibbonFontComboBox@@MAEXABVCMFCRibbonBaseElement@@@Z @ 3093 NONAME
 ?CopyFrom@CMFCRibbonGallery@@MAEXABVCMFCRibbonBaseElement@@@Z @ 3094 NONAME
 ?CopyFrom@CMFCRibbonGalleryIcon@@MAEXABVCMFCRibbonBaseElement@@@Z @ 3095 NONAME
 ?CopyFrom@CMFCRibbonGalleryMenuButton@@UAEXABVCMFCToolBarButton@@@Z @ 3096 NONAME
 ?CopyFrom@CMFCRibbonLinkCtrl@@UAEXABVCMFCRibbonBaseElement@@@Z @ 3097 NONAME
 ?CopyFrom@CMFCRibbonMainPanel@@MAEXAAVCMFCRibbonPanel@@@Z @ 3098 NONAME
 ?CopyFrom@CMFCRibbonPanel@@MAEXAAV1@@Z @ 3099 NONAME
 ?CopyFrom@CMFCRibbonProgressBar@@MAEXABVCMFCRibbonBaseElement@@@Z @ 3100 NONAME
 ?CopyFrom@CMFCRibbonQuickAccessToolBarDefaultState@@QAEXABV1@@Z @ 3101 NONAME
 ?CopyFrom@CMFCRibbonSeparator@@MAEXABVCMFCRibbonBaseElement@@@Z @ 3102 NONAME
 ?CopyFrom@CMFCRibbonSlider@@MAEXABVCMFCRibbonBaseElement@@@Z @ 3103 NONAME
 ?CopyFrom@CMFCRibbonStatusBarPane@@MAEXABVCMFCRibbonBaseElement@@@Z @ 3104 NONAME
 ?CopyFrom@CMFCRibbonTab@@UAEXABVCMFCRibbonBaseElement@@@Z @ 3105 NONAME
 ?CopyFrom@CMFCRibbonUndoButton@@MAEXABVCMFCRibbonBaseElement@@@Z @ 3106 NONAME
 ?CopyFrom@CMFCToolBarButton@@UAEXABV1@@Z @ 3107 NONAME
 ?CopyFrom@CMFCToolBarComboBoxButton@@UAEXABVCMFCToolBarButton@@@Z @ 3108 NONAME
 ?CopyFrom@CMFCToolBarDateTimeCtrl@@UAEXABVCMFCToolBarButton@@@Z @ 3109 NONAME
 ?CopyFrom@CMFCToolBarEditBoxButton@@UAEXABVCMFCToolBarButton@@@Z @ 3110 NONAME
 ?CopyFrom@CMFCToolBarFontComboBox@@MAEXABVCMFCToolBarButton@@@Z @ 3111 NONAME
 ?CopyFrom@CMFCToolBarMenuButton@@UAEXABVCMFCToolBarButton@@@Z @ 3112 NONAME
 ?CopyFrom@CMFCToolBarMenuButtonsButton@@UAEXABVCMFCToolBarButton@@@Z @ 3113 NONAME
 ?CopyFrom@CMFCToolBarSpinEditBoxButton@@MAEXABVCMFCToolBarButton@@@Z @ 3114 NONAME
 ?CopyFrom@CMFCToolBarSystemMenuButton@@UAEXABVCMFCToolBarButton@@@Z @ 3115 NONAME
 ?CopyFrom@CRibbonCategoryScroll@@EAEXABVCMFCRibbonBaseElement@@@Z @ 3116 NONAME
 ?CopyFromBitmap@CD2DBitmap@@QAEJPBV1@PBVCD2DPointU@@PBVCD2DRectU@@@Z @ 3117 NONAME
 ?CopyFromMemory@CD2DBitmap@@QAEJPBXIPBVCD2DRectU@@@Z @ 3118 NONAME
 ?CopyFromRenderTarget@CD2DBitmap@@QAEJPBVCRenderTarget@@PBVCD2DPointU@@PBVCD2DRectU@@@Z @ 3119 NONAME
 ?CopyIconToClipboard@CUserTool@@QAEHXZ @ 3120 NONAME
 ?CopyImageToClipboard@CMFCToolBarImages@@QAEHH@Z @ 3121 NONAME
 ?CopyItem@CShellManager@@QAEPAU_ITEMIDLIST@@PBU2@@Z @ 3122 NONAME
 ?CopyKeyMap@CMFCKeyMapDialog@@MAEXXZ @ 3123 NONAME
 ?CopyOriginalMenuItemsFromMenu@CContextMenuManager@@IAEXIAAVCMFCPopupMenuBar@@@Z @ 3124 NONAME
 ?CopyOriginalMenuItemsToMenu@CContextMenuManager@@IAEXIAAVCMFCPopupMenuBar@@@Z @ 3125 NONAME
 ?CopyState@CBasePane@@UAEXPAV1@@Z @ 3126 NONAME
 ?CopyState@CDockablePane@@UAEXPAV1@@Z @ 3127 NONAME
 ?CopyState@CPane@@UAEXPAV1@@Z @ 3128 NONAME
 ?CopyTemp@CMFCToolBarImages@@IAEXAAV1@@Z @ 3129 NONAME
 ?CopyTo@CArchiveStream@@UAGJPAUIStream@@T_ULARGE_INTEGER@@PAT3@2@Z @ 3130 NONAME
 ?CopyTo@CMFCToolBarImages@@QAEHAAV1@@Z @ 3131 NONAME
 ?CopyTo@CSmartDockingInfo@@QAEXAAV1@@Z @ 3132 NONAME
 ?CopyToClipboard@COleClientItem@@QAEXH@Z @ 3133 NONAME
 ?CopyToClipboard@COleServerItem@@QAEXH@Z @ 3134 NONAME
 ?CopyValue@CDaoFieldExchange@@SGXPAX0K@Z @ 3135 NONAME
 ?CorrectZoomSize@CMFCZoomKernel@@SAXABVCSize@@AAV2@W4XZoomType@1@@Z @ 3136 NONAME
 ?Create@CAnimateCtrl@@UAEHKABUtagRECT@@PAVCWnd@@I@Z @ 3137 NONAME
 ?Create@CAnimationVariable@@UAEHPAUIUIAnimationManager@@@Z @ 3138 NONAME
 ?Create@CAsyncSocket@@QAEHIHJPBD@Z @ 3139 NONAME
 ?Create@CButton@@UAEHPBDKABUtagRECT@@PAVCWnd@@I@Z @ 3140 NONAME
 ?Create@CCheckListBox@@UAEHKABUtagRECT@@PAVCWnd@@I@Z @ 3141 NONAME
 ?Create@CComboBox@@UAEHKABUtagRECT@@PAVCWnd@@I@Z @ 3142 NONAME
 ?Create@CComboBoxEx@@UAEHKABUtagRECT@@PAVCWnd@@I@Z @ 3143 NONAME
 ?Create@CControlFrameWnd@@UAEHPBD@Z @ 3144 NONAME
 ?Create@CD2DBitmap@@UAEJPAVCRenderTarget@@@Z @ 3145 NONAME
 ?Create@CD2DBitmapBrush@@UAEJPAVCRenderTarget@@@Z @ 3146 NONAME
 ?Create@CD2DLayer@@UAEJPAVCRenderTarget@@@Z @ 3147 NONAME
 ?Create@CD2DLinearGradientBrush@@UAEJPAVCRenderTarget@@@Z @ 3148 NONAME
 ?Create@CD2DMesh@@UAEJPAVCRenderTarget@@@Z @ 3149 NONAME
 ?Create@CD2DPathGeometry@@UAEJPAVCRenderTarget@@@Z @ 3150 NONAME
 ?Create@CD2DRadialGradientBrush@@UAEJPAVCRenderTarget@@@Z @ 3151 NONAME
 ?Create@CD2DSolidColorBrush@@UAEJPAVCRenderTarget@@@Z @ 3152 NONAME
 ?Create@CDaoDatabase@@UAEXPBD0H@Z @ 3153 NONAME
 ?Create@CDaoQueryDef@@UAEXPBD0@Z @ 3154 NONAME
 ?Create@CDaoTableDef@@UAEXPBDJ00@Z @ 3155 NONAME
 ?Create@CDaoWorkspace@@UAEXPBD00@Z @ 3156 NONAME
 ?Create@CDateTimeCtrl@@UAEHKABUtagRECT@@PAVCWnd@@I@Z @ 3157 NONAME
 ?Create@CDCRenderTarget@@QAEHABUD2D1_RENDER_TARGET_PROPERTIES@@@Z @ 3158 NONAME
 ?Create@CDialog@@UAEHPBDPAVCWnd@@@Z @ 3159 NONAME
 ?Create@CDialogBar@@UAEHPAVCWnd@@PBDII@Z @ 3160 NONAME
 ?Create@CDockablePane@@UAEHPBDPAVCWnd@@ABUtagRECT@@HIKKKPAUCCreateContext@@@Z @ 3161 NONAME
 ?Create@CDockablePane@@UAEHPBDPAVCWnd@@VCSize@@HIKKK@Z @ 3162 NONAME
 ?Create@CDockBar@@UAEHPAVCWnd@@KI@Z @ 3163 NONAME
 ?Create@CDockingManager@@QAEHPAVCFrameWnd@@@Z @ 3164 NONAME
 ?Create@CDockSite@@UAEHKABUtagRECT@@PAVCWnd@@KPAUCCreateContext@@@Z @ 3165 NONAME
 ?Create@CEdit@@QAEHKABUtagRECT@@PAVCWnd@@I@Z @ 3166 NONAME
 ?Create@CFindReplaceDialog@@UAEHHPBD0KPAVCWnd@@@Z @ 3167 NONAME
 ?Create@CFormView@@MAEHPBD0KABUtagRECT@@PAVCWnd@@IPAUCCreateContext@@@Z @ 3168 NONAME
 ?Create@CFrameWnd@@UAEHPBD0KABUtagRECT@@PAVCWnd@@0KPAUCCreateContext@@@Z @ 3169 NONAME
 ?Create@CHeaderCtrl@@UAEHKABUtagRECT@@PAVCWnd@@I@Z @ 3170 NONAME
 ?Create@CHotKeyCtrl@@UAEHKABUtagRECT@@PAVCWnd@@I@Z @ 3171 NONAME
 ?Create@CHtmlEditCtrl@@UAEHPBDKABUtagRECT@@PAVCWnd@@HPAUCCreateContext@@@Z @ 3172 NONAME
 ?Create@CHtmlEditView@@UAEHPBD0KABUtagRECT@@PAVCWnd@@IPAUCCreateContext@@@Z @ 3173 NONAME
 ?Create@CHtmlView@@UAEHPBD0KABUtagRECT@@PAVCWnd@@IPAUCCreateContext@@@Z @ 3174 NONAME
 ?Create@CHwndRenderTarget@@QAEHPAUHWND__@@@Z @ 3175 NONAME
 ?Create@CImageList@@QAEHAAV1@H0HHH@Z @ 3176 NONAME
 ?Create@CImageList@@QAEHHHIHH@Z @ 3177 NONAME
 ?Create@CImageList@@QAEHIHHK@Z @ 3178 NONAME
 ?Create@CImageList@@QAEHPAV1@@Z @ 3179 NONAME
 ?Create@CImageList@@QAEHPBDHHK@Z @ 3180 NONAME
 ?Create@CIPAddressCtrl@@UAEHKABUtagRECT@@PAVCWnd@@I@Z @ 3181 NONAME
 ?Create@CLinkCtrl@@UAEHKABUtagRECT@@PAVCWnd@@I@Z @ 3182 NONAME
 ?Create@CLinkCtrl@@UAEHPBDKABUtagRECT@@PAVCWnd@@I@Z @ 3183 NONAME
 ?Create@CListBox@@UAEHKABUtagRECT@@PAVCWnd@@I@Z @ 3184 NONAME
 ?Create@CListCtrl@@QAEHKABUtagRECT@@PAVCWnd@@I@Z @ 3185 NONAME
 ?Create@CMDIChildWnd@@UAEHPBD0KABUtagRECT@@PAVCMDIFrameWnd@@PAUCCreateContext@@@Z @ 3186 NONAME
 ?Create@CMFCAutoHideBar@@UAEHPBDKABUtagRECT@@PAVCWnd@@IKPAUCCreateContext@@@Z @ 3187 NONAME
 ?Create@CMFCAutoHideButton@@UAEHPAVCMFCAutoHideBar@@PAVCDockablePane@@K@Z @ 3188 NONAME
 ?Create@CMFCCaptionBar@@QAEHKPAVCWnd@@IHH@Z @ 3189 NONAME
 ?Create@CMFCColorBar@@UAEHPAVCWnd@@KIPAVCPalette@@HHH@Z @ 3190 NONAME
 ?Create@CMFCControlRenderer@@UAEHABVCMFCControlRendererInfo@@H@Z @ 3191 NONAME
 ?Create@CMFCDesktopAlertWnd@@UAEHPAVCWnd@@AAVCMFCDesktopAlertWndInfo@@PAUHMENU__@@VCPoint@@@Z @ 3192 NONAME
 ?Create@CMFCDesktopAlertWnd@@UAEHPAVCWnd@@IPAUHMENU__@@VCPoint@@PAUCRuntimeClass@@@Z @ 3193 NONAME
 ?Create@CMFCDropDownFrame@@UAEHPAVCWnd@@HHPAVCMFCDropDownToolBar@@@Z @ 3194 NONAME
 ?Create@CMFCMenuBar@@UAEHPAVCWnd@@KI@Z @ 3195 NONAME
 ?Create@CMFCOutlookBar@@UAEHPBDPAVCWnd@@ABUtagRECT@@IKKPAUCCreateContext@@@Z @ 3196 NONAME
 ?Create@CMFCOutlookBarPane@@UAEHPAVCWnd@@KIK@Z @ 3197 NONAME
 ?Create@CMFCOutlookBarTabCtrl@@UAEHABVCRect@@PAVCWnd@@I@Z @ 3198 NONAME
 ?Create@CMFCPopupMenu@@UAEHPAVCWnd@@HHPAUHMENU__@@HH@Z @ 3199 NONAME
 ?Create@CMFCPreviewCtrlImpl@@UAEHPAUHWND__@@PBUtagRECT@@@Z @ 3200 NONAME
 ?Create@CMFCPreviewCtrlImpl@@UAEHPAUHWND__@@PBUtagRECT@@PAUCCreateContext@@@Z @ 3201 NONAME
 ?Create@CMFCPropertyGridCtrl@@UAEHKABUtagRECT@@PAVCWnd@@I@Z @ 3202 NONAME
 ?Create@CMFCPropertyGridToolTipCtrl@@UAEHPAVCWnd@@@Z @ 3203 NONAME
 ?Create@CMFCReBar@@QAEHPAVCWnd@@KKI@Z @ 3204 NONAME
 ?Create@CMFCRibbonBar@@QAEHPAVCWnd@@KI@Z @ 3205 NONAME
 ?Create@CMFCRibbonStatusBar@@QAEHPAVCWnd@@KI@Z @ 3206 NONAME
 ?Create@CMFCShadowRenderer@@MAEHABVCMFCControlRendererInfo@@H@Z @ 3207 NONAME
 ?Create@CMFCShadowRenderer@@UAEHHKHH@Z @ 3208 NONAME
 ?Create@CMFCShadowWnd@@UAEHXZ @ 3209 NONAME
 ?Create@CMFCStatusBar@@QAEHPAVCWnd@@KI@Z @ 3210 NONAME
 ?Create@CMFCTabCtrl@@QAEHW4Style@1@ABUtagRECT@@PAVCWnd@@IW4Location@CMFCBaseTabCtrl@@H@Z @ 3211 NONAME
 ?Create@CMFCToolBar@@UAEHPAVCWnd@@KI@Z @ 3212 NONAME
 ?Create@CMFCToolBarsCustomizeDialog@@UAEHXZ @ 3213 NONAME
 ?Create@CMFCZoomKernel@@QAEXJJJJW4XFilterType@1@@Z @ 3214 NONAME
 ?Create@CMFCZoomKernel@@QAEXJJW4XFilterType@1@@Z @ 3215 NONAME
 ?Create@CMiniDockFrameWnd@@UAEHPAVCWnd@@K@Z @ 3216 NONAME
 ?Create@CMiniFrameWnd@@UAEHPBD0KABUtagRECT@@PAVCWnd@@I@Z @ 3217 NONAME
 ?Create@CMonthCalCtrl@@UAEHKABUtagPOINT@@PAVCWnd@@I@Z @ 3218 NONAME
 ?Create@CMonthCalCtrl@@UAEHKABUtagRECT@@PAVCWnd@@I@Z @ 3219 NONAME
 ?Create@COleResizeBar@@UAEHPAVCWnd@@KI@Z @ 3220 NONAME
 ?Create@COleSafeArray@@QAEXGKPAK@Z @ 3221 NONAME
 ?Create@COleSafeArray@@QAEXGKPAUtagSAFEARRAYBOUND@@@Z @ 3222 NONAME
 ?Create@CPagerCtrl@@UAEHKABUtagRECT@@PAVCWnd@@I@Z @ 3223 NONAME
 ?Create@CPane@@UAEHPBDKABUtagRECT@@PAVCWnd@@IKPAUCCreateContext@@@Z @ 3224 NONAME
 ?Create@CPaneContainerManager@@UAEHPAVCWnd@@PAVCPaneDivider@@PAUCRuntimeClass@@@Z @ 3225 NONAME
 ?Create@CPaneDialog@@QAEHPBDPAVCWnd@@H0IIKK@Z @ 3226 NONAME
 ?Create@CPaneDialog@@QAEHPBDPAVCWnd@@HIII@Z @ 3227 NONAME
 ?Create@CPaneDivider@@UAEHKABUtagRECT@@PAVCWnd@@IPAUCCreateContext@@@Z @ 3228 NONAME
 ?Create@CPaneFrameWnd@@UAEHPBDKABUtagRECT@@PAVCWnd@@PAUCCreateContext@@@Z @ 3229 NONAME
 ?Create@CPlex@@SGPAU1@AAPAU1@II@Z @ 3230 NONAME
 ?Create@CProgressCtrl@@UAEHKABUtagRECT@@PAVCWnd@@I@Z @ 3231 NONAME
 ?Create@CPropertySheet@@UAEHPAVCWnd@@KK@Z @ 3232 NONAME
 ?Create@CReBar@@UAEHPAVCWnd@@KKI@Z @ 3233 NONAME
 ?Create@CReBarCtrl@@QAEHKABUtagRECT@@PAVCWnd@@I@Z @ 3234 NONAME
 ?Create@CReflectorWnd@@QAEHABVCRect@@PAUHWND__@@@Z @ 3235 NONAME
 ?Create@CRichEditCtrl@@QAEHKABUtagRECT@@PAVCWnd@@I@Z @ 3236 NONAME
 ?Create@CScreenWnd@@UAEHPAVCMFCColorDialog@@@Z @ 3237 NONAME
 ?Create@CScrollBar@@UAEHKABUtagRECT@@PAVCWnd@@I@Z @ 3238 NONAME
 ?Create@CSettingsStoreSP@@QAEAAVCSettingsStore@@HH@Z @ 3239 NONAME
 ?Create@CSliderCtrl@@UAEHKABUtagRECT@@PAVCWnd@@I@Z @ 3240 NONAME
 ?Create@CSmartDockingGroupGuide@@MAEXW4SDMarkerPlace@CSmartDockingStandaloneGuide@@PAVCSmartDockingGroupGuidesManager@@@Z @ 3241 NONAME
 ?Create@CSmartDockingGroupGuide@@UAEXW4SDMarkerPlace@CSmartDockingStandaloneGuide@@PAVCWnd@@@Z @ 3242 NONAME
 ?Create@CSmartDockingGroupGuidesManager@@UAEXPAVCWnd@@@Z @ 3243 NONAME
 ?Create@CSmartDockingHighlighterWnd@@QAEXPAVCWnd@@@Z @ 3244 NONAME
 ?Create@CSmartDockingManager@@QAEXPAVCWnd@@PAUCRuntimeClass@@1@Z @ 3245 NONAME
 ?Create@CSmartDockingStandaloneGuide@@UAEXW4SDMarkerPlace@1@PAVCWnd@@@Z @ 3246 NONAME
 ?Create@CSmartDockingStandaloneGuideWnd@@QAEHPAUtagRECT@@PAUHBITMAP__@@PAUHRGN__@@PAVCWnd@@HH@Z @ 3247 NONAME
 ?Create@CSpinButtonCtrl@@UAEHKABUtagRECT@@PAVCWnd@@I@Z @ 3248 NONAME
 ?Create@CSplitterWnd@@UAEHPAVCWnd@@HHUtagSIZE@@PAUCCreateContext@@KI@Z @ 3249 NONAME
 ?Create@CStatic@@UAEHPBDKABUtagRECT@@PAVCWnd@@I@Z @ 3250 NONAME
 ?Create@CStatusBar@@UAEHPAVCWnd@@KI@Z @ 3251 NONAME
 ?Create@CStatusBarCtrl@@QAEHKABUtagRECT@@PAVCWnd@@I@Z @ 3252 NONAME
 ?Create@CTabCtrl@@UAEHKABUtagRECT@@PAVCWnd@@I@Z @ 3253 NONAME
 ?Create@CToolBar@@UAEHPAVCWnd@@KI@Z @ 3254 NONAME
 ?Create@CToolBarCtrl@@QAEHKABUtagRECT@@PAVCWnd@@I@Z @ 3255 NONAME
 ?Create@CToolTipCtrl@@UAEHPAVCWnd@@K@Z @ 3256 NONAME
 ?Create@CTreeCtrl@@QAEHKABUtagRECT@@PAVCWnd@@I@Z @ 3257 NONAME
 ?Create@CWnd@@UAEHPBD0KABUtagRECT@@PAV1@IPAUCCreateContext@@@Z @ 3258 NONAME
 ?CreateAccessibleProxy@CWnd@@UAEJIJPAJ@Z @ 3259 NONAME
 ?CreateApplicationButton@CMFCRibbonConstructor@@MBEPAVCMFCRibbonApplicationButton@@AAVCMFCRibbonBar@@@Z @ 3260 NONAME
 ?CreateAutoHideButtonRegion@CMFCVisualManagerVS2005@@IAEHVCRect@@KAAPAUtagPOINT@@@Z @ 3261 NONAME
 ?CreateBindContext@CMonikerFile@@IAEPAUIBindCtx@@PAVCFileException@@@Z @ 3262 NONAME
 ?CreateBindHost@CMonikerFile@@KAPAUIBindHost@@XZ @ 3263 NONAME
 ?CreateBindStatusCallback@CAsyncMonikerFile@@MAEPAUIUnknown@@PAU2@@Z @ 3264 NONAME
 ?CreateBitmap_32@CDrawingManager@@SGPAUHBITMAP__@@ABVCSize@@PAPAX@Z @ 3265 NONAME
 ?CreateBitmap_32@CDrawingManager@@SGPAUHBITMAP__@@PAU2@K@Z @ 3266 NONAME
 ?CreateBoldFont@CMFCPropertyGridCtrl@@IAEXXZ @ 3267 NONAME
 ?CreateCategory@CMFCRibbonConstructor@@MBEPAVCMFCRibbonCategory@@AAVCMFCRibbonBar@@ABVXCategory@CMFCRibbonInfo@@@Z @ 3268 NONAME
 ?CreateCategoryContext@CMFCRibbonConstructor@@MBEPAVCMFCRibbonCategory@@AAVCMFCRibbonBar@@ABVXContext@CMFCRibbonInfo@@ABVXCategory@5@@Z @ 3269 NONAME
 ?CreateCategoryMain@CMFCRibbonConstructor@@MBEPAVCMFCRibbonMainPanel@@AAVCMFCRibbonBar@@ABVXCategoryMain@CMFCRibbonInfo@@@Z @ 3270 NONAME
 ?CreateClient@CMDIFrameWnd@@UAEHPAUtagCREATESTRUCTA@@PAVCMenu@@@Z @ 3271 NONAME
 ?CreateClientItem@CRichEditDoc@@UBEPAVCRichEditCntrItem@@PAU_reobject@@@Z @ 3272 NONAME
 ?CreateCloneFrom@COleClientItem@@QAEHPBV1@@Z @ 3273 NONAME
 ?CreateCombo@CMFCPropertyGridProperty@@MAEPAVCComboBox@@PAVCWnd@@VCRect@@@Z @ 3274 NONAME
 ?CreateCombo@CMFCToolBarComboBoxButton@@UAEPAVCComboBox@@PAVCWnd@@ABVCRect@@@Z @ 3275 NONAME
 ?CreateCombo@CMFCToolBarFontComboBox@@MAEPAVCComboBox@@PAVCWnd@@ABVCRect@@@Z @ 3276 NONAME
 ?CreateCombo@CMFCToolBarFontSizeComboBox@@MAEPAVCComboBox@@PAVCWnd@@ABVCRect@@@Z @ 3277 NONAME
 ?CreateCommon@CSplitterWnd@@IAEHPAVCWnd@@UtagSIZE@@KI@Z @ 3278 NONAME
 ?CreateCompatibleRenderTarget@CRenderTarget@@QAEHAAVCBitmapRenderTarget@@VCD2DSizeF@@VCD2DSizeU@@PAUD2D1_PIXEL_FORMAT@@W4D2D1_COMPATIBLE_RENDER_TARGET_OPTIONS@@@Z @ 3279 NONAME
 ?CreateConnectionArray@CConnectionPoint@@QAEXXZ @ 3280 NONAME
 ?CreateContainer@COccManager@@UAEPAVCOleControlContainer@@PAVCWnd@@@Z @ 3281 NONAME
 ?CreateControl@CMFCColorBar@@UAEHPAVCWnd@@ABVCRect@@IHPAVCPalette@@@Z @ 3282 NONAME
 ?CreateControl@COleControlContainer@@QAEHPAVCWnd@@ABU_GUID@@PBDKABUtagRECT@@IPAVCFile@@HPA_WPAPAVCOleControlSite@@@Z @ 3283 NONAME
 ?CreateControl@COleControlContainer@@QAEHPAVCWnd@@ABU_GUID@@PBDKPBUtagPOINT@@PBUtagSIZE@@IPAVCFile@@HPA_WPAPAVCOleControlSite@@@Z @ 3284 NONAME
 ?CreateControl@COleControlContainer@@QAEHPAVCWnd@@ABVCControlCreationInfo@@KPBUtagPOINT@@PBUtagSIZE@@I@Z @ 3285 NONAME
 ?CreateControl@COleControlSite@@QAEJPAVCWnd@@ABVCControlCreationInfo@@KPBUtagPOINT@@PBUtagSIZE@@I@Z @ 3286 NONAME
 ?CreateControl@COleControlSite@@UAEJPAVCWnd@@ABU_GUID@@PBDKABUtagRECT@@IPAVCFile@@HPA_W@Z @ 3287 NONAME
 ?CreateControl@COleControlSite@@UAEJPAVCWnd@@ABU_GUID@@PBDKPBUtagPOINT@@PBUtagSIZE@@IPAVCFile@@HPA_W@Z @ 3288 NONAME
 ?CreateControl@CWnd@@QAEHABU_GUID@@PBDKABUtagRECT@@PAV1@IPAVCFile@@HPA_W@Z @ 3289 NONAME
 ?CreateControl@CWnd@@QAEHABU_GUID@@PBDKPBUtagPOINT@@PBUtagSIZE@@PAV1@IPAVCFile@@HPA_W@Z @ 3290 NONAME
 ?CreateControl@CWnd@@QAEHABVCControlCreationInfo@@KPBUtagPOINT@@PBUtagSIZE@@PAV1@I@Z @ 3291 NONAME
 ?CreateControl@CWnd@@QAEHPBD0KABUtagRECT@@PAV1@IPAVCFile@@HPA_W@Z @ 3292 NONAME
 ?CreateControlCommon@COleControlContainer@@QAEHPAVCWnd@@ABU_GUID@@ABVCControlCreationInfo@@PBDKPBUtagPOINT@@PBUtagSIZE@@IPAVCFile@@HPA_WPAPAVCOleControlSite@@@Z @ 3293 NONAME
 ?CreateControlCommon@COleControlSite@@MAEJPAVCWnd@@ABU_GUID@@ABVCControlCreationInfo@@PBDKPBUtagPOINT@@PBUtagSIZE@@IPAVCFile@@HPA_W@Z @ 3294 NONAME
 ?CreateControlContainer@CWnd@@MAEHPAPAVCOleControlContainer@@@Z @ 3295 NONAME
 ?CreateControlSite@CDHtmlDialog@@UAEHPAVCOleControlContainer@@PAPAVCOleControlSite@@IABU_GUID@@@Z @ 3296 NONAME
 ?CreateControlSite@CHtmlView@@UAEHPAVCOleControlContainer@@PAPAVCOleControlSite@@IABU_GUID@@@Z @ 3297 NONAME
 ?CreateControlSite@CWnd@@MAEHPAVCOleControlContainer@@PAPAVCOleControlSite@@IABU_GUID@@@Z @ 3298 NONAME
 ?CreateControlWindow@COleControl@@MAEHPAUHWND__@@ABVCRect@@PBUtagRECT@@@Z @ 3299 NONAME
 ?CreateCopy@CMenuImages@@KGXAAVCMFCToolBarImages@@K@Z @ 3300 NONAME
 ?CreateCustomPage@CMFCOutlookBar@@QAEPAVCMFCOutlookBarPane@@PBDHKH@Z @ 3301 NONAME
 ?CreateDateTimeCtrl@CMFCToolBarDateTimeCtrl@@MAEPAVCMFCToolBarDateTimeCtrlImpl@@PAVCWnd@@ABVCRect@@@Z @ 3302 NONAME
 ?CreateDefaultMiniframe@CMFCTasksPane@@UAEPAVCPaneFrameWnd@@VCRect@@@Z @ 3303 NONAME
 ?CreateDefaultMiniframe@CPane@@UAEPAVCPaneFrameWnd@@VCRect@@@Z @ 3304 NONAME
 ?CreateDefaultPaneDivider@CDockablePane@@SGPAVCPaneDivider@@KPAVCWnd@@PAUCRuntimeClass@@@Z @ 3305 NONAME
 ?CreateDIBPatternBrush@CBrush@@QAEHPAXI@Z @ 3306 NONAME
 ?CreateDirectoryA@CFtpConnection@@QAEHPBD@Z @ 3307 NONAME
 ?CreateDispatch@COleDispatchDriver@@QAEHABU_GUID@@PAVCOleException@@@Z @ 3308 NONAME
 ?CreateDispatch@COleDispatchDriver@@QAEHPBDPAVCOleException@@@Z @ 3309 NONAME
 ?CreateDitherBitmap@AFX_GLOBAL_DATA@@IAEPAUHBITMAP__@@PAUHDC__@@@Z @ 3310 NONAME
 ?CreateDlg@CWnd@@IAEHPBDPAV1@@Z @ 3311 NONAME
 ?CreateDlgControl@CMFCControlContainer@@IAEPAVCWnd@@PBD@Z @ 3312 NONAME
 ?CreateDlgControl@COccManager@@IAEHPAVCWnd@@PAUHWND__@@HPAUDLGITEMTEMPLATE@@GPAEKPAPAU3@@Z @ 3313 NONAME
 ?CreateDlgControls@COccManager@@UAEHPAVCWnd@@PAXPAU_AFX_OCC_DIALOG_INFO@@@Z @ 3314 NONAME
 ?CreateDlgControls@COccManager@@UAEHPAVCWnd@@PBDPAU_AFX_OCC_DIALOG_INFO@@@Z @ 3315 NONAME
 ?CreateDlgIndirect@CWnd@@IAEHPBUDLGTEMPLATE@@PAV1@PAUHINSTANCE__@@@Z @ 3316 NONAME
 ?CreateDocumentInfo@CDataRecoveryHandler@@UAEHPAVCDocument@@@Z @ 3317 NONAME
 ?CreateDocumentWindow@CMDIFrameWndEx@@UAEPAVCMDIChildWndEx@@PBDPAVCObject@@@Z @ 3318 NONAME
 ?CreateDragImage@CListCtrl@@QAEPAVCImageList@@HPAUtagPOINT@@@Z @ 3319 NONAME
 ?CreateDragImage@CTreeCtrl@@QAEPAVCImageList@@PAU_TREEITEM@@@Z @ 3320 NONAME
 ?CreateDroppedButton@CMFCOutlookBarPane@@MAEPAVCMFCToolBarButton@@PAVCOleDataObject@@@Z @ 3321 NONAME
 ?CreateDroppedButton@CMFCPopupMenuBar@@MAEPAVCMFCToolBarButton@@PAVCOleDataObject@@@Z @ 3322 NONAME
 ?CreateDroppedButton@CMFCToolBar@@MAEPAVCMFCToolBarButton@@PAVCOleDataObject@@@Z @ 3323 NONAME
 ?CreateEdit@CMFCRibbonEdit@@UAEPAVCMFCRibbonRichEditCtrl@@PAVCWnd@@K@Z @ 3324 NONAME
 ?CreateEdit@CMFCToolBarComboBoxButton@@UAEPAVCMFCToolBarComboBoxEdit@@PAVCWnd@@ABVCRect@@K@Z @ 3325 NONAME
 ?CreateEdit@CMFCToolBarEditBoxButton@@UAEPAVCEdit@@PAVCWnd@@ABVCRect@@@Z @ 3326 NONAME
 ?CreateEdit@CMFCToolBarSpinEditBoxButton@@MAEPAVCEdit@@PAVCWnd@@ABVCRect@@@Z @ 3327 NONAME
 ?CreateElement@CMFCRibbonConstructor@@MBEPAVCMFCRibbonBaseElement@@ABVXElement@CMFCRibbonInfo@@@Z @ 3328 NONAME
 ?CreateEmpty@CPictureHolder@@QAEHXZ @ 3329 NONAME
 ?CreateEx@CAnimateCtrl@@UAEHKKABUtagRECT@@PAVCWnd@@I@Z @ 3330 NONAME
 ?CreateEx@CBasePane@@UAEHKPBD0KABUtagRECT@@PAVCWnd@@IKPAUCCreateContext@@@Z @ 3331 NONAME
 ?CreateEx@CComboBoxEx@@UAEHKKABUtagRECT@@PAVCWnd@@I@Z @ 3332 NONAME
 ?CreateEx@CDockablePane@@UAEHKPBDPAVCWnd@@ABUtagRECT@@HIKKKPAUCCreateContext@@@Z @ 3333 NONAME
 ?CreateEx@CDockSite@@UAEHKKABUtagRECT@@PAVCWnd@@KPAUCCreateContext@@@Z @ 3334 NONAME
 ?CreateEx@CHeaderCtrl@@UAEHKKABUtagRECT@@PAVCWnd@@I@Z @ 3335 NONAME
 ?CreateEx@CHotKeyCtrl@@UAEHKKABUtagRECT@@PAVCWnd@@I@Z @ 3336 NONAME
 ?CreateEx@CIPAddressCtrl@@UAEHKKABUtagRECT@@PAVCWnd@@I@Z @ 3337 NONAME
 ?CreateEx@CLinkCtrl@@UAEHKKABUtagRECT@@PAVCWnd@@I@Z @ 3338 NONAME
 ?CreateEx@CLinkCtrl@@UAEHPBDKKABUtagRECT@@PAVCWnd@@I@Z @ 3339 NONAME
 ?CreateEx@CListCtrl@@QAEHKKABUtagRECT@@PAVCWnd@@I@Z @ 3340 NONAME
 ?CreateEx@CMFCMenuBar@@UAEHPAVCWnd@@KKVCRect@@I@Z @ 3341 NONAME
 ?CreateEx@CMFCRibbonBar@@QAEHPAVCWnd@@KKI@Z @ 3342 NONAME
 ?CreateEx@CMFCRibbonStatusBar@@QAEHPAVCWnd@@KKI@Z @ 3343 NONAME
 ?CreateEx@CMFCStatusBar@@QAEHPAVCWnd@@KKI@Z @ 3344 NONAME
 ?CreateEx@CMFCToolBar@@UAEHPAVCWnd@@KKVCRect@@I@Z @ 3345 NONAME
 ?CreateEx@CMiniFrameWnd@@UAEHKPBD0KABUtagRECT@@PAVCWnd@@I@Z @ 3346 NONAME
 ?CreateEx@CPagerCtrl@@UAEHKKABUtagRECT@@PAVCWnd@@I@Z @ 3347 NONAME
 ?CreateEx@CPane@@UAEHKPBDKABUtagRECT@@PAVCWnd@@IKPAUCCreateContext@@@Z @ 3348 NONAME
 ?CreateEx@CPaneDivider@@UAEHKKABUtagRECT@@PAVCWnd@@IPAUCCreateContext@@@Z @ 3349 NONAME
 ?CreateEx@CPaneFrameWnd@@UAEHKPBDKABUtagRECT@@PAVCWnd@@PAUCCreateContext@@@Z @ 3350 NONAME
 ?CreateEx@CProgressCtrl@@UAEHKKABUtagRECT@@PAVCWnd@@I@Z @ 3351 NONAME
 ?CreateEx@CReBarCtrl@@QAEHKKABUtagRECT@@PAVCWnd@@I@Z @ 3352 NONAME
 ?CreateEx@CRichEditCtrl@@QAEHKKABUtagRECT@@PAVCWnd@@I@Z @ 3353 NONAME
 ?CreateEx@CSliderCtrl@@UAEHKKABUtagRECT@@PAVCWnd@@I@Z @ 3354 NONAME
 ?CreateEx@CSpinButtonCtrl@@UAEHKKABUtagRECT@@PAVCWnd@@I@Z @ 3355 NONAME
 ?CreateEx@CStatusBar@@UAEHPAVCWnd@@KKI@Z @ 3356 NONAME
 ?CreateEx@CStatusBarCtrl@@QAEHKKABUtagRECT@@PAVCWnd@@I@Z @ 3357 NONAME
 ?CreateEx@CTabCtrl@@UAEHKKABUtagRECT@@PAVCWnd@@I@Z @ 3358 NONAME
 ?CreateEx@CToolBar@@UAEHPAVCWnd@@KKVCRect@@I@Z @ 3359 NONAME
 ?CreateEx@CToolBarCtrl@@QAEHKKABUtagRECT@@PAVCWnd@@I@Z @ 3360 NONAME
 ?CreateEx@CToolTipCtrl@@UAEHPAVCWnd@@KK@Z @ 3361 NONAME
 ?CreateEx@CTreeCtrl@@QAEHKKABUtagRECT@@PAVCWnd@@I@Z @ 3362 NONAME
 ?CreateEx@CWnd@@UAEHKPBD0KABUtagRECT@@PAV1@IPAX@Z @ 3363 NONAME
 ?CreateEx@CWnd@@UAEHKPBD0KHHHHPAUHWND__@@PAUHMENU__@@PAX@Z @ 3364 NONAME
 ?CreateField@CDaoTableDef@@QAEXAAUCDaoFieldInfo@@@Z @ 3365 NONAME
 ?CreateField@CDaoTableDef@@QAEXPBDFJJ@Z @ 3366 NONAME
 ?CreateFloatingFrame@CFrameWnd@@QAEPAVCMiniDockFrameWnd@@K@Z @ 3367 NONAME
 ?CreateFonts@CMFCTasksPane@@IAEXXZ @ 3368 NONAME
 ?CreateFrameWindow@COleControl@@MAEPAVCControlFrameWnd@@XZ @ 3369 NONAME
 ?CreateFromBitmap@CPictureHolder@@QAEHI@Z @ 3370 NONAME
 ?CreateFromBitmap@CPictureHolder@@QAEHPAUHBITMAP__@@PAUHPALETTE__@@H@Z @ 3371 NONAME
 ?CreateFromBitmap@CPictureHolder@@QAEHPAVCBitmap@@PAVCPalette@@H@Z @ 3372 NONAME
 ?CreateFromClipboard@COleClientItem@@QAEHW4tagOLERENDER@@GPAUtagFORMATETC@@@Z @ 3373 NONAME
 ?CreateFromData@COleClientItem@@QAEHPAVCOleDataObject@@W4tagOLERENDER@@GPAUtagFORMATETC@@@Z @ 3374 NONAME
 ?CreateFromFile@COleClientItem@@QAEHPBDABU_GUID@@W4tagOLERENDER@@GPAUtagFORMATETC@@@Z @ 3375 NONAME
 ?CreateFromIcon@CPictureHolder@@QAEHI@Z @ 3376 NONAME
 ?CreateFromIcon@CPictureHolder@@QAEHPAUHICON__@@H@Z @ 3377 NONAME
 ?CreateFromImageList@CMFCToolBarImages@@QAEHABVCImageList@@@Z @ 3378 NONAME
 ?CreateFromMenu@CMFCMenuBar@@UAEXPAUHMENU__@@HH@Z @ 3379 NONAME
 ?CreateFromMenu@CMFCToolBarMenuButton@@UAEXPAUHMENU__@@@Z @ 3380 NONAME
 ?CreateFromMenu@CMFCToolBarSystemMenuButton@@UAEXPAUHMENU__@@@Z @ 3381 NONAME
 ?CreateFromMetafile@CPictureHolder@@QAEHPAUHMETAFILE__@@HHH@Z @ 3382 NONAME
 ?CreateFromOleData@CMFCToolBarButton@@SGPAV1@PAVCOleDataObject@@@Z @ 3383 NONAME
 ?CreateFromParams@CMFCDesktopAlertDialog@@QAEHAAVCMFCDesktopAlertWndInfo@@PAVCMFCDesktopAlertWnd@@@Z @ 3384 NONAME
 ?CreateFromTag@XBase@CMFCRibbonInfo@@SGPAV12@AAVXRibbonInfoParser@2@@Z @ 3385 NONAME
 ?CreateFromType@XBase@CMFCRibbonInfo@@SGPAV12@W4XElementType@2@@Z @ 3386 NONAME
 ?CreateFromType@XElement@CMFCRibbonInfo@@SGPAV12@W4XElementType@2@@Z @ 3387 NONAME
 ?CreateGripperBrush@CMFCVisualManagerOfficeXP@@MAEXXZ @ 3388 NONAME
 ?CreateHexagon@CMFCColorPickerCtrl@@IAEXXZ @ 3389 NONAME
 ?CreateHexGreyScaleBar@CMFCColorPickerCtrl@@IAEXXZ @ 3390 NONAME
 ?CreateIcons@CMFCRibbonGallery@@IAEXXZ @ 3391 NONAME
 ?CreateIndex@CDaoTableDef@@QAEXAAUCDaoIndexInfo@@@Z @ 3392 NONAME
 ?CreateIndirect@CDialog@@IAEHPAXPAVCWnd@@PAUHINSTANCE__@@@Z @ 3393 NONAME
 ?CreateIndirect@CDialog@@IAEHPBUDLGTEMPLATE@@PAVCWnd@@PAXPAUHINSTANCE__@@@Z @ 3394 NONAME
 ?CreateIndirect@CDialog@@UAEHPAXPAVCWnd@@@Z @ 3395 NONAME
 ?CreateIndirect@CDialog@@UAEHPBUDLGTEMPLATE@@PAVCWnd@@PAX@Z @ 3396 NONAME
 ?CreateInPlaceEdit@CMFCPropertyGridProperty@@UAEPAVCWnd@@VCRect@@AAH@Z @ 3397 NONAME
 ?CreateInPlaceFrame@COleServerDoc@@MAEPAVCOleIPFrameWnd@@PAVCWnd@@@Z @ 3398 NONAME
 ?CreateInstance@AFX_COM@@QAEJABU_GUID@@PAUIUnknown@@0PAPAX@Z @ 3399 NONAME
 ?CreateInstance@XClassFactory@COleObjectFactory@@UAGJPAUIUnknown@@ABU_GUID@@PAPAX@Z @ 3400 NONAME
 ?CreateInstanceLic@XClassFactory@COleObjectFactory@@UAGJPAUIUnknown@@0ABU_GUID@@PA_WPAPAX@Z @ 3401 NONAME
 ?CreateItem@COleInsertDialog@@QAEHPAVCOleClientItem@@@Z @ 3402 NONAME
 ?CreateItem@COlePasteSpecialDialog@@QAEHPAVCOleClientItem@@@Z @ 3403 NONAME
 ?CreateItem@CShellManager@@QAEPAU_ITEMIDLIST@@I@Z @ 3404 NONAME
 ?CreateKey@CSettingsStore@@UAEHPBD@Z @ 3405 NONAME
 ?CreateKeyframe@CAnimationController@@QAEPAVCKeyFrame@@IPAVCBaseKeyFrame@@N@Z @ 3406 NONAME
 ?CreateKeyframe@CAnimationController@@QAEPAVCKeyFrame@@IPAVCBaseTransition@@@Z @ 3407 NONAME
 ?CreateLinkFromClipboard@COleClientItem@@QAEHW4tagOLERENDER@@GPAUtagFORMATETC@@@Z @ 3408 NONAME
 ?CreateLinkFromData@COleClientItem@@QAEHPAVCOleDataObject@@W4tagOLERENDER@@GPAUtagFORMATETC@@@Z @ 3409 NONAME
 ?CreateLinkFromFile@COleClientItem@@QAEHPBDW4tagOLERENDER@@GPAUtagFORMATETC@@@Z @ 3410 NONAME
 ?CreateLocator@CGopherConnection@@QAE?AVCGopherLocator@@PBD0K@Z @ 3411 NONAME
 ?CreateLocator@CGopherConnection@@SA?AVCGopherLocator@@PBD@Z @ 3412 NONAME
 ?CreateLocator@CGopherConnection@@SA?AVCGopherLocator@@PBD00KG@Z @ 3413 NONAME
 ?CreateMask@CMFCToolBarImages@@IAEXHHH@Z @ 3414 NONAME
 ?CreateMemoryStream@COleStreamFile@@QAEHPAVCFileException@@@Z @ 3415 NONAME
 ?CreateMenu@CMFCTasksPane@@QBEPAUHMENU__@@XZ @ 3416 NONAME
 ?CreateMenu@CMFCToolBarMenuButton@@UBEPAUHMENU__@@XZ @ 3417 NONAME
 ?CreateMenu@CMFCToolBarSystemMenuButton@@UBEPAUHMENU__@@XZ @ 3418 NONAME
 ?CreateNavigationToolbar@CMFCTasksPane@@IAEHXZ @ 3419 NONAME
 ?CreateNewChild@CMDIFrameWnd@@QAEPAVCMDIChildWnd@@PAUCRuntimeClass@@IPAUHMENU__@@PAUHACCEL__@@@Z @ 3420 NONAME
 ?CreateNewDocument@CDocTemplate@@UAEPAVCDocument@@XZ @ 3421 NONAME
 ?CreateNewFrame@CDocTemplate@@UAEPAVCFrameWnd@@PAVCDocument@@PAV2@@Z @ 3422 NONAME
 ?CreateNewItem@COleClientItem@@QAEHABU_GUID@@W4tagOLERENDER@@GPAUtagFORMATETC@@@Z @ 3423 NONAME
 ?CreateNewItem@CVSListBoxBase@@MAEXXZ @ 3424 NONAME
 ?CreateNewTabGroup@CMDIClientAreaWnd@@AAEPAVCMFCTabCtrl@@PAV2@VCRect@@H@Z @ 3425 NONAME
 ?CreateNewTool@CMFCToolBarsToolsPropertyPage@@IAEPAVCUserTool@@XZ @ 3426 NONAME
 ?CreateNewTool@CUserToolsManager@@QAEPAVCUserTool@@XZ @ 3427 NONAME
 ?CreateNewToolBar@CFrameImpl@@IAEPBVCMFCToolBar@@PBD@Z @ 3428 NONAME
 ?CreateNewWindow@CMDIFrameWndEx@@UAEPAVCMDIChildWndEx@@PBDPAVCObject@@@Z @ 3429 NONAME
 ?CreateObject@CAnimationController@@SGPAVCObject@@XZ @ 3430 NONAME
 ?CreateObject@CAutoHideDockSite@@SGPAVCObject@@XZ @ 3431 NONAME
 ?CreateObject@CByteArray@@SGPAVCObject@@XZ @ 3432 NONAME
 ?CreateObject@CDC@@SGPAVCObject@@XZ @ 3433 NONAME
 ?CreateObject@CDocItem@@SGPAVCObject@@XZ @ 3434 NONAME
 ?CreateObject@CDockablePane@@SGPAVCObject@@XZ @ 3435 NONAME
 ?CreateObject@CDockablePaneAdapter@@SGPAVCObject@@XZ @ 3436 NONAME
 ?CreateObject@CDockSite@@SGPAVCObject@@XZ @ 3437 NONAME
 ?CreateObject@CDockState@@SGPAVCObject@@XZ @ 3438 NONAME
 ?CreateObject@CDWordArray@@SGPAVCObject@@XZ @ 3439 NONAME
 ?CreateObject@CEditView@@SGPAVCObject@@XZ @ 3440 NONAME
 ?CreateObject@CFrameWnd@@SGPAVCObject@@XZ @ 3441 NONAME
 ?CreateObject@CFrameWndEx@@SGPAVCObject@@XZ @ 3442 NONAME
 ?CreateObject@CGdiObject@@SGPAVCObject@@XZ @ 3443 NONAME
 ?CreateObject@CHelpComboBoxButton@@SGPAVCObject@@XZ @ 3444 NONAME
 ?CreateObject@CHtmlEditView@@SGPAVCObject@@XZ @ 3445 NONAME
 ?CreateObject@CHtmlView@@SGPAVCObject@@XZ @ 3446 NONAME
 ?CreateObject@CImageList@@SGPAVCObject@@XZ @ 3447 NONAME
 ?CreateObject@CListView@@SGPAVCObject@@XZ @ 3448 NONAME
 ?CreateObject@CMapStringToOb@@SGPAVCObject@@XZ @ 3449 NONAME
 ?CreateObject@CMapStringToString@@SGPAVCObject@@XZ @ 3450 NONAME
 ?CreateObject@CMapWordToOb@@SGPAVCObject@@XZ @ 3451 NONAME
 ?CreateObject@CMDIChildWnd@@SGPAVCObject@@XZ @ 3452 NONAME
 ?CreateObject@CMDIChildWndEx@@SGPAVCObject@@XZ @ 3453 NONAME
 ?CreateObject@CMDIFrameWnd@@SGPAVCObject@@XZ @ 3454 NONAME
 ?CreateObject@CMDIFrameWndEx@@SGPAVCObject@@XZ @ 3455 NONAME
 ?CreateObject@CMDITabProxyWnd@@SGPAVCObject@@XZ @ 3456 NONAME
 ?CreateObject@CMenu@@SGPAVCObject@@XZ @ 3457 NONAME
 ?CreateObject@CMFCAutoHideBar@@SGPAVCObject@@XZ @ 3458 NONAME
 ?CreateObject@CMFCAutoHideButton@@SGPAVCObject@@XZ @ 3459 NONAME
 ?CreateObject@CMFCBaseToolBar@@SGPAVCObject@@XZ @ 3460 NONAME
 ?CreateObject@CMFCButton@@SGPAVCObject@@XZ @ 3461 NONAME
 ?CreateObject@CMFCCaptionBar@@SGPAVCObject@@XZ @ 3462 NONAME
 ?CreateObject@CMFCColorBar@@SGPAVCObject@@XZ @ 3463 NONAME
 ?CreateObject@CMFCColorMenuButton@@SGPAVCObject@@XZ @ 3464 NONAME
 ?CreateObject@CMFCControlRenderer@@SGPAVCObject@@XZ @ 3465 NONAME
 ?CreateObject@CMFCCustomColorsPropertyPage@@SGPAVCObject@@XZ @ 3466 NONAME
 ?CreateObject@CMFCCustomizeButton@@SGPAVCObject@@XZ @ 3467 NONAME
 ?CreateObject@CMFCCustomizeMenuButton@@SGPAVCObject@@XZ @ 3468 NONAME
 ?CreateObject@CMFCDesktopAlertDialog@@SGPAVCObject@@XZ @ 3469 NONAME
 ?CreateObject@CMFCDropDownFrame@@SGPAVCObject@@XZ @ 3470 NONAME
 ?CreateObject@CMFCDropDownToolBar@@SGPAVCObject@@XZ @ 3471 NONAME
 ?CreateObject@CMFCDropDownToolbarButton@@SGPAVCObject@@XZ @ 3472 NONAME
 ?CreateObject@CMFCMenuBar@@SGPAVCObject@@XZ @ 3473 NONAME
 ?CreateObject@CMFCMousePropertyPage@@SGPAVCObject@@XZ @ 3474 NONAME
 ?CreateObject@CMFCOutlookBar@@SGPAVCObject@@XZ @ 3475 NONAME
 ?CreateObject@CMFCOutlookBarPane@@SGPAVCObject@@XZ @ 3476 NONAME
 ?CreateObject@CMFCOutlookBarPaneAdapter@@SGPAVCObject@@XZ @ 3477 NONAME
 ?CreateObject@CMFCOutlookBarPaneButton@@SGPAVCObject@@XZ @ 3478 NONAME
 ?CreateObject@CMFCOutlookBarTabCtrl@@SGPAVCObject@@XZ @ 3479 NONAME
 ?CreateObject@CMFCPopupMenu@@SGPAVCObject@@XZ @ 3480 NONAME
 ?CreateObject@CMFCPopupMenuBar@@SGPAVCObject@@XZ @ 3481 NONAME
 ?CreateObject@CMFCPropertyPage@@SGPAVCObject@@XZ @ 3482 NONAME
 ?CreateObject@CMFCRibbonApplicationButton@@SGPAVCObject@@XZ @ 3483 NONAME
 ?CreateObject@CMFCRibbonButton@@SGPAVCObject@@XZ @ 3484 NONAME
 ?CreateObject@CMFCRibbonButtonsGroup@@SGPAVCObject@@XZ @ 3485 NONAME
 ?CreateObject@CMFCRibbonCaptionButton@@SGPAVCObject@@XZ @ 3486 NONAME
 ?CreateObject@CMFCRibbonCategory@@SGPAVCObject@@XZ @ 3487 NONAME
 ?CreateObject@CMFCRibbonCheckBox@@SGPAVCObject@@XZ @ 3488 NONAME
 ?CreateObject@CMFCRibbonColorButton@@SGPAVCObject@@XZ @ 3489 NONAME
 ?CreateObject@CMFCRibbonColorMenuButton@@SGPAVCObject@@XZ @ 3490 NONAME
 ?CreateObject@CMFCRibbonComboBox@@SGPAVCObject@@XZ @ 3491 NONAME
 ?CreateObject@CMFCRibbonContextCaption@@SGPAVCObject@@XZ @ 3492 NONAME
 ?CreateObject@CMFCRibbonCustomizePropertyPage@@SGPAVCObject@@XZ @ 3493 NONAME
 ?CreateObject@CMFCRibbonDefaultPanelButton@@SGPAVCObject@@XZ @ 3494 NONAME
 ?CreateObject@CMFCRibbonEdit@@SGPAVCObject@@XZ @ 3495 NONAME
 ?CreateObject@CMFCRibbonFontComboBox@@SGPAVCObject@@XZ @ 3496 NONAME
 ?CreateObject@CMFCRibbonGallery@@SGPAVCObject@@XZ @ 3497 NONAME
 ?CreateObject@CMFCRibbonGalleryIcon@@SGPAVCObject@@XZ @ 3498 NONAME
 ?CreateObject@CMFCRibbonGalleryMenuButton@@SGPAVCObject@@XZ @ 3499 NONAME
 ?CreateObject@CMFCRibbonLabel@@SGPAVCObject@@XZ @ 3500 NONAME
 ?CreateObject@CMFCRibbonLaunchButton@@SGPAVCObject@@XZ @ 3501 NONAME
 ?CreateObject@CMFCRibbonLinkCtrl@@SGPAVCObject@@XZ @ 3502 NONAME
 ?CreateObject@CMFCRibbonMainPanel@@SGPAVCObject@@XZ @ 3503 NONAME
 ?CreateObject@CMFCRibbonMainPanelButton@@SGPAVCObject@@XZ @ 3504 NONAME
 ?CreateObject@CMFCRibbonMiniToolBar@@SGPAVCObject@@XZ @ 3505 NONAME
 ?CreateObject@CMFCRibbonPanel@@SGPAVCObject@@XZ @ 3506 NONAME
 ?CreateObject@CMFCRibbonProgressBar@@SGPAVCObject@@XZ @ 3507 NONAME
 ?CreateObject@CMFCRibbonQuickAccessCustomizeButton@@SGPAVCObject@@XZ @ 3508 NONAME
 ?CreateObject@CMFCRibbonQuickAccessToolBar@@SGPAVCObject@@XZ @ 3509 NONAME
 ?CreateObject@CMFCRibbonRecentFilesList@@SGPAVCObject@@XZ @ 3510 NONAME
 ?CreateObject@CMFCRibbonSeparator@@SGPAVCObject@@XZ @ 3511 NONAME
 ?CreateObject@CMFCRibbonSlider@@SGPAVCObject@@XZ @ 3512 NONAME
 ?CreateObject@CMFCRibbonStatusBarCustomizeButton@@SGPAVCObject@@XZ @ 3513 NONAME
 ?CreateObject@CMFCRibbonStatusBarPane@@SGPAVCObject@@XZ @ 3514 NONAME
 ?CreateObject@CMFCRibbonTabsGroup@@SGPAVCObject@@XZ @ 3515 NONAME
 ?CreateObject@CMFCRibbonUndoButton@@SGPAVCObject@@XZ @ 3516 NONAME
 ?CreateObject@CMFCShadowRenderer@@SGPAVCObject@@XZ @ 3517 NONAME
 ?CreateObject@CMFCShowAllButton@@SGPAVCObject@@XZ @ 3518 NONAME
 ?CreateObject@CMFCStandardColorsPropertyPage@@SGPAVCObject@@XZ @ 3519 NONAME
 ?CreateObject@CMFCTabCtrl@@SGPAVCObject@@XZ @ 3520 NONAME
 ?CreateObject@CMFCTasksPane@@SGPAVCObject@@XZ @ 3521 NONAME
 ?CreateObject@CMFCTasksPaneFrameWnd@@SGPAVCObject@@XZ @ 3522 NONAME
 ?CreateObject@CMFCTasksPaneToolBar@@SGPAVCObject@@XZ @ 3523 NONAME
 ?CreateObject@CMFCToolBar@@SGPAVCObject@@XZ @ 3524 NONAME
 ?CreateObject@CMFCToolBarButton@@SGPAVCObject@@XZ @ 3525 NONAME
 ?CreateObject@CMFCToolBarColorButton@@SGPAVCObject@@XZ @ 3526 NONAME
 ?CreateObject@CMFCToolBarComboBoxButton@@SGPAVCObject@@XZ @ 3527 NONAME
 ?CreateObject@CMFCToolBarDateTimeCtrl@@SGPAVCObject@@XZ @ 3528 NONAME
 ?CreateObject@CMFCToolBarEditBoxButton@@SGPAVCObject@@XZ @ 3529 NONAME
 ?CreateObject@CMFCToolBarFontComboBox@@SGPAVCObject@@XZ @ 3530 NONAME
 ?CreateObject@CMFCToolBarFontSizeComboBox@@SGPAVCObject@@XZ @ 3531 NONAME
 ?CreateObject@CMFCToolBarMenuButton@@SGPAVCObject@@XZ @ 3532 NONAME
 ?CreateObject@CMFCToolBarMenuButtonsButton@@SGPAVCObject@@XZ @ 3533 NONAME
 ?CreateObject@CMFCToolBarsCommandsPropertyPage@@SGPAVCObject@@XZ @ 3534 NONAME
 ?CreateObject@CMFCToolBarsKeyboardPropertyPage@@SGPAVCObject@@XZ @ 3535 NONAME
 ?CreateObject@CMFCToolBarsListPropertyPage@@SGPAVCObject@@XZ @ 3536 NONAME
 ?CreateObject@CMFCToolBarsMenuPropertyPage@@SGPAVCObject@@XZ @ 3537 NONAME
 ?CreateObject@CMFCToolBarsOptionsPropertyPage@@SGPAVCObject@@XZ @ 3538 NONAME
 ?CreateObject@CMFCToolBarSpinEditBoxButton@@SGPAVCObject@@XZ @ 3539 NONAME
 ?CreateObject@CMFCToolBarSystemMenuButton@@SGPAVCObject@@XZ @ 3540 NONAME
 ?CreateObject@CMFCToolTipCtrl@@SGPAVCObject@@XZ @ 3541 NONAME
 ?CreateObject@CMFCVisualManager@@SGPAVCObject@@XZ @ 3542 NONAME
 ?CreateObject@CMFCVisualManagerOffice2003@@SGPAVCObject@@XZ @ 3543 NONAME
 ?CreateObject@CMFCVisualManagerOffice2007@@SGPAVCObject@@XZ @ 3544 NONAME
 ?CreateObject@CMFCVisualManagerOfficeXP@@SGPAVCObject@@XZ @ 3545 NONAME
 ?CreateObject@CMFCVisualManagerVS2005@@SGPAVCObject@@XZ @ 3546 NONAME
 ?CreateObject@CMFCVisualManagerVS2008@@SGPAVCObject@@XZ @ 3547 NONAME
 ?CreateObject@CMFCVisualManagerWindows@@SGPAVCObject@@XZ @ 3548 NONAME
 ?CreateObject@CMFCVisualManagerWindows7@@SGPAVCObject@@XZ @ 3549 NONAME
 ?CreateObject@CMiniDockFrameWnd@@SGPAVCObject@@XZ @ 3550 NONAME
 ?CreateObject@CMiniFrameWnd@@SGPAVCObject@@XZ @ 3551 NONAME
 ?CreateObject@CMouseManager@@SGPAVCObject@@XZ @ 3552 NONAME
 ?CreateObject@CMultiPaneFrameWnd@@SGPAVCObject@@XZ @ 3553 NONAME
 ?CreateObject@CObArray@@SGPAVCObject@@XZ @ 3554 NONAME
 ?CreateObject@CObList@@SGPAVCObject@@XZ @ 3555 NONAME
 ?CreateObject@COleDocIPFrameWnd@@SGPAVCObject@@XZ @ 3556 NONAME
 ?CreateObject@COleDocIPFrameWndEx@@SGPAVCObject@@XZ @ 3557 NONAME
 ?CreateObject@COleIPFrameWnd@@SGPAVCObject@@XZ @ 3558 NONAME
 ?CreateObject@COleIPFrameWndEx@@SGPAVCObject@@XZ @ 3559 NONAME
 ?CreateObject@COleServerDocEx@@SGPAVCObject@@XZ @ 3560 NONAME
 ?CreateObject@COutlookCustomizeButton@@SGPAVCObject@@XZ @ 3561 NONAME
 ?CreateObject@CPane@@SGPAVCObject@@XZ @ 3562 NONAME
 ?CreateObject@CPaneContainerManager@@SGPAVCObject@@XZ @ 3563 NONAME
 ?CreateObject@CPaneDialog@@SGPAVCObject@@XZ @ 3564 NONAME
 ?CreateObject@CPaneDivider@@SGPAVCObject@@XZ @ 3565 NONAME
 ?CreateObject@CPaneFrameWnd@@SGPAVCObject@@XZ @ 3566 NONAME
 ?CreateObject@CPreviewView@@SGPAVCObject@@XZ @ 3567 NONAME
 ?CreateObject@CPreviewViewEx@@SGPAVCObject@@XZ @ 3568 NONAME
 ?CreateObject@CRibbonUndoLabel@@SGPAVCObject@@XZ @ 3569 NONAME
 ?CreateObject@CRichEditCntrItem@@SGPAVCObject@@XZ @ 3570 NONAME
 ?CreateObject@CRichEditView@@SGPAVCObject@@XZ @ 3571 NONAME
 ?CreateObject@CRuntimeClass@@QAEPAVCObject@@XZ @ 3572 NONAME
 ?CreateObject@CRuntimeClass@@SGPAVCObject@@PB_W@Z @ 3573 NONAME
 ?CreateObject@CRuntimeClass@@SGPAVCObject@@PBD@Z @ 3574 NONAME
 ?CreateObject@CSettingsStore@@SGPAVCObject@@XZ @ 3575 NONAME
 ?CreateObject@CSmartDockingGroupGuidesManager@@SGPAVCObject@@XZ @ 3576 NONAME
 ?CreateObject@CSmartDockingStandaloneGuide@@SGPAVCObject@@XZ @ 3577 NONAME
 ?CreateObject@CStringArray@@SGPAVCObject@@XZ @ 3578 NONAME
 ?CreateObject@CStringList@@SGPAVCObject@@XZ @ 3579 NONAME
 ?CreateObject@CTabbedPane@@SGPAVCObject@@XZ @ 3580 NONAME
 ?CreateObject@CTabView@@SGPAVCObject@@XZ @ 3581 NONAME
 ?CreateObject@CTasksPaneHistoryButton@@SGPAVCObject@@XZ @ 3582 NONAME
 ?CreateObject@CTasksPaneMenuButton@@SGPAVCObject@@XZ @ 3583 NONAME
 ?CreateObject@CTasksPaneNavigateButton@@SGPAVCObject@@XZ @ 3584 NONAME
 ?CreateObject@CTreeView@@SGPAVCObject@@XZ @ 3585 NONAME
 ?CreateObject@CUserTool@@SGPAVCObject@@XZ @ 3586 NONAME
 ?CreateObject@CWnd@@SGPAVCObject@@XZ @ 3587 NONAME
 ?CreateObject@CWordArray@@SGPAVCObject@@XZ @ 3588 NONAME
 ?CreateOleFont@COleControlContainer@@QAEXPAVCFont@@@Z @ 3589 NONAME
 ?CreateOleFrame@CDocTemplate@@QAEPAVCFrameWnd@@PAVCWnd@@PAVCDocument@@H@Z @ 3590 NONAME
 ?CreateOneDim@COleSafeArray@@QAEXGKPBXJ@Z @ 3591 NONAME
 ?CreateOrLoad@COleControlSite@@MAEJABU_GUID@@PAVCFile@@HPA_W@Z @ 3592 NONAME
 ?CreateOrLoad@COleControlSite@@MAEJABVCControlCreationInfo@@@Z @ 3593 NONAME
 ?CreatePalette@CMFCColorBar@@KGHABV?$CArray@KK@@AAVCPalette@@@Z @ 3594 NONAME
 ?CreatePaneDivider@CPaneContainerManager@@IAEPAVCPaneDivider@@VCRect@@KH@Z @ 3595 NONAME
 ?CreatePanel@CMFCRibbonConstructor@@MBEPAVCMFCRibbonPanel@@AAVCMFCRibbonCategory@@ABVXPanel@CMFCRibbonInfo@@@Z @ 3596 NONAME
 ?CreatePointFont@CFont@@QAEHHPBDPAVCDC@@@Z @ 3597 NONAME
 ?CreatePointFontIndirect@CFont@@QAEHPBUtagLOGFONTA@@PAVCDC@@@Z @ 3598 NONAME
 ?CreatePopupMenu@CMFCColorMenuButton@@MAEPAVCMFCPopupMenu@@XZ @ 3599 NONAME
 ?CreatePopupMenu@CMFCCustomizeButton@@UAEPAVCMFCPopupMenu@@XZ @ 3600 NONAME
 ?CreatePopupMenu@CMFCRibbonGalleryMenuButton@@UAEPAVCMFCPopupMenu@@XZ @ 3601 NONAME
 ?CreatePopupMenu@COutlookCustomizeButton@@UAEPAVCMFCPopupMenu@@XZ @ 3602 NONAME
 ?CreatePreviewFrame@CDocTemplate@@QAEPAVCFrameWnd@@PAVCWnd@@PAVCDocument@@@Z @ 3603 NONAME
 ?CreatePrinterDC@CPageSetupDialog@@QAEPAUHDC__@@XZ @ 3604 NONAME
 ?CreatePrinterDC@CPrintDialog@@QAEPAUHDC__@@XZ @ 3605 NONAME
 ?CreatePrinterDC@CPrintDialogEx@@QAEPAUHDC__@@XZ @ 3606 NONAME
 ?CreatePrinterDC@CWinApp@@QAEHAAVCDC@@@Z @ 3607 NONAME
 ?CreateRegionFromImage@CMFCToolBarImages@@SGPAUHRGN__@@PAUHBITMAP__@@K@Z @ 3608 NONAME
 ?CreateRelation@CDaoDatabase@@QAEXAAUCDaoRelationInfo@@@Z @ 3609 NONAME
 ?CreateRelation@CDaoDatabase@@QAEXPBD00J00@Z @ 3610 NONAME
 ?CreateRow@CDockSite@@UAEPAVCDockingPanesRow@@PAV1@HH@Z @ 3611 NONAME
 ?CreateRunDlgIndirect@CWnd@@IAEHPBUDLGTEMPLATE@@PAV1@PAUHINSTANCE__@@@Z @ 3612 NONAME
 ?CreateScrollBarCtrl@CSplitterWnd@@UAEHKI@Z @ 3613 NONAME
 ?CreateSite@CControlSiteFactoryMgr@@QAEPAVCOleControlSite@@PAVCOleControlContainer@@ABVCControlCreationInfo@@@Z @ 3614 NONAME
 ?CreateSite@COccManager@@UAEPAVCOleControlSite@@PAVCOleControlContainer@@@Z @ 3615 NONAME
 ?CreateSite@COccManager@@UAEPAVCOleControlSite@@PAVCOleControlContainer@@ABVCControlCreationInfo@@@Z @ 3616 NONAME
 ?CreateSpinButton@CMFCRibbonEdit@@IAEHPAVCMFCRibbonRichEditCtrl@@PAVCWnd@@@Z @ 3617 NONAME
 ?CreateSpinControl@CMFCPropertyGridProperty@@UAEPAVCSpinButtonCtrl@@VCRect@@@Z @ 3618 NONAME
 ?CreateStatic@CSplitterWnd@@UAEHPAVCWnd@@HHKI@Z @ 3619 NONAME
 ?CreateStaticFromClipboard@COleClientItem@@QAEHW4tagOLERENDER@@GPAUtagFORMATETC@@@Z @ 3620 NONAME
 ?CreateStaticFromData@COleClientItem@@QAEHPAVCOleDataObject@@W4tagOLERENDER@@GPAUtagFORMATETC@@@Z @ 3621 NONAME
 ?CreateStream@COleStreamFile@@QAEHPAUIStorage@@PBDKPAVCFileException@@@Z @ 3622 NONAME
 ?CreateTabbedPane@CDockablePane@@UAEPAVCTabbedPane@@XZ @ 3623 NONAME
 ?CreateTabGroup@CMDIClientAreaWnd@@UAEPAVCMFCTabCtrl@@PAV2@@Z @ 3624 NONAME
 ?CreateTearOffBar@CMFCColorPopupMenu@@UAEPAVCPane@@PAVCFrameWnd@@IPBD@Z @ 3625 NONAME
 ?CreateTearOffBar@CMFCPopupMenu@@MAEPAVCPane@@PAVCFrameWnd@@IPBD@Z @ 3626 NONAME
 ?CreateThread@CWinThread@@QAEHKIPAU_SECURITY_ATTRIBUTES@@@Z @ 3627 NONAME
 ?CreateToolTip@CTooltipManager@@SGHAAPAVCToolTipCtrl@@PAVCWnd@@I@Z @ 3628 NONAME
 ?CreateToolTipObject@CTooltipManager@@IAEHAAPAVCToolTipCtrl@@I@Z @ 3629 NONAME
 ?CreateTracker@COleControl@@IAEXHH@Z @ 3630 NONAME
 ?CreateTracker@COleControl@@IAEXHHPBUtagRECT@@@Z @ 3631 NONAME
 ?CreateTransitions@CAnimationBaseObject@@QAEHXZ @ 3632 NONAME
 ?CreateTransitions@CAnimationGroup@@IAEHXZ @ 3633 NONAME
 ?CreateTransitions@CAnimationVariable@@QAEHPAUIUIAnimationTransitionLibrary@@PAUIUIAnimationTransitionFactory@@@Z @ 3634 NONAME
 ?CreateView@CFrameWnd@@QAEPAVCWnd@@PAUCCreateContext@@I@Z @ 3635 NONAME
 ?CreateView@CSplitterWnd@@UAEHHHPAUCRuntimeClass@@UtagSIZE@@PAUCCreateContext@@@Z @ 3636 NONAME
 ?CreateView@XOleDocument@CDocObjectServer@@UAGJPAUIOleInPlaceSite@@PAUIStream@@KPAPAUIOleDocumentView@@@Z @ 3637 NONAME
 ?CreateVisualManager@CMFCVisualManager@@KGPAV1@PAUCRuntimeClass@@@Z @ 3638 NONAME
 ?CreateWindowForSubclassedControl@COleControl@@IAEXXZ @ 3639 NONAME
 ?CreateWrapper@CMFCBaseTabCtrl@@MAEPAVCWnd@@PAV2@PBDH@Z @ 3640 NONAME
 ?CyFromString@CGlobalUtils@@QAEHAATtagCY@@PBD@Z @ 3641 NONAME
 ?DAdvise@XDataObject@COleControl@@UAGJPAUtagFORMATETC@@KPAUIAdviseSink@@PAK@Z @ 3642 NONAME
 ?DAdvise@XDataObject@COleDataSource@@UAGJPAUtagFORMATETC@@KPAUIAdviseSink@@PAK@Z @ 3643 NONAME
 ?DAdvise@XDataObject@COleServerDoc@@UAGJPAUtagFORMATETC@@KPAUIAdviseSink@@PAK@Z @ 3644 NONAME
 ?DAdvise@XDataObject@COleServerItem@@UAGJPAUtagFORMATETC@@KPAUIAdviseSink@@PAK@Z @ 3645 NONAME
 ?DDP_Check@@YGXPAVCDataExchange@@HAAHPBD@Z @ 3646 NONAME
 ?DDP_EndCheck@@YGXPAVCDataExchange@@HPAHPBD@Z @ 3647 NONAME
 ?DDP_EndRadio@@YGXPAVCDataExchange@@HPAHPBD@Z @ 3648 NONAME
 ?DDP_EndText@@YGXPAVCDataExchange@@HPAEPBD@Z @ 3649 NONAME
 ?DDP_EndText@@YGXPAVCDataExchange@@HPAFPBD@Z @ 3650 NONAME
 ?DDP_EndText@@YGXPAVCDataExchange@@HPAHPBD@Z @ 3651 NONAME
 ?DDP_EndText@@YGXPAVCDataExchange@@HPAIPBD@Z @ 3652 NONAME
 ?DDP_EndText@@YGXPAVCDataExchange@@HPAJPBD@Z @ 3653 NONAME
 ?DDP_EndText@@YGXPAVCDataExchange@@HPAKPBD@Z @ 3654 NONAME
 ?DDP_EndText@@YGXPAVCDataExchange@@HPAMPBD@Z @ 3655 NONAME
 ?DDP_EndText@@YGXPAVCDataExchange@@HPANPBD@Z @ 3656 NONAME
 ?DDP_EndText@@YGXPAVCDataExchange@@HPAV?$CStringT@DV?$StrTraitMFC_DLL@DV?$ChTraitsCRT@D@ATL@@@@@ATL@@PBD@Z @ 3657 NONAME
 ?DDP_PostProcessing@@YGXPAVCDataExchange@@@Z @ 3658 NONAME
 ?DDP_Radio@@YGXPAVCDataExchange@@HAAHPBD@Z @ 3659 NONAME
 ?DDP_Text@@YGXPAVCDataExchange@@HAAEPBD@Z @ 3660 NONAME
 ?DDP_Text@@YGXPAVCDataExchange@@HAAFPBD@Z @ 3661 NONAME
 ?DDP_Text@@YGXPAVCDataExchange@@HAAHPBD@Z @ 3662 NONAME
 ?DDP_Text@@YGXPAVCDataExchange@@HAAIPBD@Z @ 3663 NONAME
 ?DDP_Text@@YGXPAVCDataExchange@@HAAJPBD@Z @ 3664 NONAME
 ?DDP_Text@@YGXPAVCDataExchange@@HAAKPBD@Z @ 3665 NONAME
 ?DDP_Text@@YGXPAVCDataExchange@@HAAMPBD@Z @ 3666 NONAME
 ?DDP_Text@@YGXPAVCDataExchange@@HAANPBD@Z @ 3667 NONAME
 ?DDP_Text@@YGXPAVCDataExchange@@HAAV?$CStringT@DV?$StrTraitMFC_DLL@DV?$ChTraitsCRT@D@ATL@@@@@ATL@@PBD@Z @ 3668 NONAME
 ?DDV_MaxChars@@YGXPAVCDataExchange@@ABV?$CStringT@DV?$StrTraitMFC_DLL@DV?$ChTraitsCRT@D@ATL@@@@@ATL@@H@Z @ 3669 NONAME
 ?DDV_MinMaxByte@@YGXPAVCDataExchange@@EEE@Z @ 3670 NONAME
 ?DDV_MinMaxDateTime@@YGXPAVCDataExchange@@AAVCOleDateTime@ATL@@PBV23@2@Z @ 3671 NONAME
 ?DDV_MinMaxDateTime@@YGXPAVCDataExchange@@AAVCTime@ATL@@PBV23@2@Z @ 3672 NONAME
 ?DDV_MinMaxDouble@@YGXPAVCDataExchange@@ABNNN@Z @ 3673 NONAME
 ?DDV_MinMaxDWord@@YGXPAVCDataExchange@@KKK@Z @ 3674 NONAME
 ?DDV_MinMaxFloat@@YGXPAVCDataExchange@@ABMMM@Z @ 3675 NONAME
 ?DDV_MinMaxInt@@YGXPAVCDataExchange@@HHH@Z @ 3676 NONAME
 ?DDV_MinMaxLong@@YGXPAVCDataExchange@@JJJ@Z @ 3677 NONAME
 ?DDV_MinMaxLongLong@@YGXPAVCDataExchange@@_J11@Z @ 3678 NONAME
 ?DDV_MinMaxMonth@@YGXPAVCDataExchange@@AAVCOleDateTime@ATL@@PBV23@2@Z @ 3679 NONAME
 ?DDV_MinMaxMonth@@YGXPAVCDataExchange@@AAVCTime@ATL@@PBV23@2@Z @ 3680 NONAME
 ?DDV_MinMaxShort@@YGXPAVCDataExchange@@FFF@Z @ 3681 NONAME
 ?DDV_MinMaxSlider@@YGXPAVCDataExchange@@KKK@Z @ 3682 NONAME
 ?DDV_MinMaxUInt@@YGXPAVCDataExchange@@III@Z @ 3683 NONAME
 ?DDV_MinMaxULongLong@@YGXPAVCDataExchange@@_K11@Z @ 3684 NONAME
 ?DDX_CBIndex@@YGXPAVCDataExchange@@HAAH@Z @ 3685 NONAME
 ?DDX_CBString@@YGXPAVCDataExchange@@HAAV?$CStringT@DV?$StrTraitMFC_DLL@DV?$ChTraitsCRT@D@ATL@@@@@ATL@@@Z @ 3686 NONAME
 ?DDX_CBStringExact@@YGXPAVCDataExchange@@HAAV?$CStringT@DV?$StrTraitMFC_DLL@DV?$ChTraitsCRT@D@ATL@@@@@ATL@@@Z @ 3687 NONAME
 ?DDX_Check@@YGXPAVCDataExchange@@HAAH@Z @ 3688 NONAME
 ?DDX_Control@@YGXPAVCDataExchange@@HAAVCWnd@@@Z @ 3689 NONAME
 ?DDX_DateTimeCtrl@@YGXPAVCDataExchange@@HAAU_FILETIME@@@Z @ 3690 NONAME
 ?DDX_DateTimeCtrl@@YGXPAVCDataExchange@@HAAUtagDBDATE@@@Z @ 3691 NONAME
 ?DDX_DateTimeCtrl@@YGXPAVCDataExchange@@HAAUtagDBTIME@@@Z @ 3692 NONAME
 ?DDX_DateTimeCtrl@@YGXPAVCDataExchange@@HAAV?$CStringT@DV?$StrTraitMFC_DLL@DV?$ChTraitsCRT@D@ATL@@@@@ATL@@@Z @ 3693 NONAME
 ?DDX_DateTimeCtrl@@YGXPAVCDataExchange@@HAAVCOleDateTime@ATL@@@Z @ 3694 NONAME
 ?DDX_DateTimeCtrl@@YGXPAVCDataExchange@@HAAVCTime@ATL@@@Z @ 3695 NONAME
 ?DDX_DHtml_AxControl@CDHtmlDialog@@IAEXPBD0AAUtagVARIANT@@H@Z @ 3696 NONAME
 ?DDX_DHtml_AxControl@CDHtmlDialog@@IAEXPBDJAAUtagVARIANT@@H@Z @ 3697 NONAME
 ?DDX_DHtml_AxControl@CDHtmlDialog@@QAEXPAVCDataExchange@@PBD1AAUtagVARIANT@@@Z @ 3698 NONAME
 ?DDX_DHtml_AxControl@CDHtmlDialog@@QAEXPAVCDataExchange@@PBDJAAUtagVARIANT@@@Z @ 3699 NONAME
 ?DDX_DHtml_CheckBox@CDHtmlDialog@@IAEXPBDAAHH@Z @ 3700 NONAME
 ?DDX_DHtml_CheckBox@CDHtmlDialog@@QAEXPAVCDataExchange@@PBDAAH@Z @ 3701 NONAME
 ?DDX_DHtml_ElementText@CDHtmlDialog@@IAEXPBDJAAFH@Z @ 3702 NONAME
 ?DDX_DHtml_ElementText@CDHtmlDialog@@IAEXPBDJAAHH@Z @ 3703 NONAME
 ?DDX_DHtml_ElementText@CDHtmlDialog@@IAEXPBDJAAJH@Z @ 3704 NONAME
 ?DDX_DHtml_ElementText@CDHtmlDialog@@IAEXPBDJAAKH@Z @ 3705 NONAME
 ?DDX_DHtml_ElementText@CDHtmlDialog@@IAEXPBDJAAMH@Z @ 3706 NONAME
 ?DDX_DHtml_ElementText@CDHtmlDialog@@IAEXPBDJAANH@Z @ 3707 NONAME
 ?DDX_DHtml_ElementText@CDHtmlDialog@@IAEXPBDJAAV?$CStringT@DV?$StrTraitMFC_DLL@DV?$ChTraitsCRT@D@ATL@@@@@ATL@@H@Z @ 3708 NONAME
 ?DDX_DHtml_ElementText@CDHtmlDialog@@QAEXPAVCDataExchange@@PBDJAAF@Z @ 3709 NONAME
 ?DDX_DHtml_ElementText@CDHtmlDialog@@QAEXPAVCDataExchange@@PBDJAAH@Z @ 3710 NONAME
 ?DDX_DHtml_ElementText@CDHtmlDialog@@QAEXPAVCDataExchange@@PBDJAAJ@Z @ 3711 NONAME
 ?DDX_DHtml_ElementText@CDHtmlDialog@@QAEXPAVCDataExchange@@PBDJAAK@Z @ 3712 NONAME
 ?DDX_DHtml_ElementText@CDHtmlDialog@@QAEXPAVCDataExchange@@PBDJAAM@Z @ 3713 NONAME
 ?DDX_DHtml_ElementText@CDHtmlDialog@@QAEXPAVCDataExchange@@PBDJAAN@Z @ 3714 NONAME
 ?DDX_DHtml_ElementText@CDHtmlDialog@@QAEXPAVCDataExchange@@PBDJAAV?$CStringT@DV?$StrTraitMFC_DLL@DV?$ChTraitsCRT@D@ATL@@@@@ATL@@@Z @ 3715 NONAME
 ?DDX_DHtml_ElementTextFloatFormat@CDHtmlDialog@@IAEXPBDJPAXNHH@Z @ 3716 NONAME
 ?DDX_DHtml_ElementTextWithFormat@CDHtmlDialog@@IAAXPBDJ0IHZZ @ 3717 NONAME
 ?DDX_DHtml_Radio@CDHtmlDialog@@IAEXPBDAAJH@Z @ 3718 NONAME
 ?DDX_DHtml_Radio@CDHtmlDialog@@QAEXPAVCDataExchange@@PBDAAJ@Z @ 3719 NONAME
 ?DDX_DHtml_SelectIndex@CDHtmlDialog@@IAEXPBDAAJH@Z @ 3720 NONAME
 ?DDX_DHtml_SelectIndex@CDHtmlDialog@@QAEXPAVCDataExchange@@PBDAAJ@Z @ 3721 NONAME
 ?DDX_DHtml_SelectString@CDHtmlDialog@@IAEXPBDAAV?$CStringT@DV?$StrTraitMFC_DLL@DV?$ChTraitsCRT@D@ATL@@@@@ATL@@H@Z @ 3722 NONAME
 ?DDX_DHtml_SelectString@CDHtmlDialog@@QAEXPAVCDataExchange@@PBDAAV?$CStringT@DV?$StrTraitMFC_DLL@DV?$ChTraitsCRT@D@ATL@@@@@ATL@@@Z @ 3723 NONAME
 ?DDX_DHtml_SelectValue@CDHtmlDialog@@IAEXPBDAAV?$CStringT@DV?$StrTraitMFC_DLL@DV?$ChTraitsCRT@D@ATL@@@@@ATL@@H@Z @ 3724 NONAME
 ?DDX_DHtml_SelectValue@CDHtmlDialog@@QAEXPAVCDataExchange@@PBDAAV?$CStringT@DV?$StrTraitMFC_DLL@DV?$ChTraitsCRT@D@ATL@@@@@ATL@@@Z @ 3725 NONAME
 ?DDX_FieldCBIndex@@YGXPAVCDataExchange@@HAAHPAVCDaoRecordset@@@Z @ 3726 NONAME
 ?DDX_FieldCBIndex@@YGXPAVCDataExchange@@HAAHPAVCRecordset@@@Z @ 3727 NONAME
 ?DDX_FieldCBString@@YGXPAVCDataExchange@@HAAV?$CStringT@DV?$StrTraitMFC_DLL@DV?$ChTraitsCRT@D@ATL@@@@@ATL@@PAVCDaoRecordset@@@Z @ 3728 NONAME
 ?DDX_FieldCBString@@YGXPAVCDataExchange@@HAAV?$CStringT@DV?$StrTraitMFC_DLL@DV?$ChTraitsCRT@D@ATL@@@@@ATL@@PAVCRecordset@@@Z @ 3729 NONAME
 ?DDX_FieldCBStringExact@@YGXPAVCDataExchange@@HAAV?$CStringT@DV?$StrTraitMFC_DLL@DV?$ChTraitsCRT@D@ATL@@@@@ATL@@PAVCDaoRecordset@@@Z @ 3730 NONAME
 ?DDX_FieldCBStringExact@@YGXPAVCDataExchange@@HAAV?$CStringT@DV?$StrTraitMFC_DLL@DV?$ChTraitsCRT@D@ATL@@@@@ATL@@PAVCRecordset@@@Z @ 3731 NONAME
 ?DDX_FieldCheck@@YGXPAVCDataExchange@@HAAHPAVCDaoRecordset@@@Z @ 3732 NONAME
 ?DDX_FieldCheck@@YGXPAVCDataExchange@@HAAHPAVCRecordset@@@Z @ 3733 NONAME
 ?DDX_FieldLBIndex@@YGXPAVCDataExchange@@HAAHPAVCDaoRecordset@@@Z @ 3734 NONAME
 ?DDX_FieldLBIndex@@YGXPAVCDataExchange@@HAAHPAVCRecordset@@@Z @ 3735 NONAME
 ?DDX_FieldLBString@@YGXPAVCDataExchange@@HAAV?$CStringT@DV?$StrTraitMFC_DLL@DV?$ChTraitsCRT@D@ATL@@@@@ATL@@PAVCDaoRecordset@@@Z @ 3736 NONAME
 ?DDX_FieldLBString@@YGXPAVCDataExchange@@HAAV?$CStringT@DV?$StrTraitMFC_DLL@DV?$ChTraitsCRT@D@ATL@@@@@ATL@@PAVCRecordset@@@Z @ 3737 NONAME
 ?DDX_FieldLBStringExact@@YGXPAVCDataExchange@@HAAV?$CStringT@DV?$StrTraitMFC_DLL@DV?$ChTraitsCRT@D@ATL@@@@@ATL@@PAVCDaoRecordset@@@Z @ 3738 NONAME
 ?DDX_FieldLBStringExact@@YGXPAVCDataExchange@@HAAV?$CStringT@DV?$StrTraitMFC_DLL@DV?$ChTraitsCRT@D@ATL@@@@@ATL@@PAVCRecordset@@@Z @ 3739 NONAME
 ?DDX_FieldRadio@@YGXPAVCDataExchange@@HAAHPAVCDaoRecordset@@@Z @ 3740 NONAME
 ?DDX_FieldRadio@@YGXPAVCDataExchange@@HAAHPAVCRecordset@@@Z @ 3741 NONAME
 ?DDX_FieldScroll@@YGXPAVCDataExchange@@HAAHPAVCDaoRecordset@@@Z @ 3742 NONAME
 ?DDX_FieldScroll@@YGXPAVCDataExchange@@HAAHPAVCRecordset@@@Z @ 3743 NONAME
 ?DDX_FieldSlider@@YGXPAVCDataExchange@@HAAHPAVCDaoRecordset@@@Z @ 3744 NONAME
 ?DDX_FieldText@@YGXPAVCDataExchange@@HAAEPAVCDaoRecordset@@@Z @ 3745 NONAME
 ?DDX_FieldText@@YGXPAVCDataExchange@@HAAEPAVCRecordset@@@Z @ 3746 NONAME
 ?DDX_FieldText@@YGXPAVCDataExchange@@HAAFPAVCDaoRecordset@@@Z @ 3747 NONAME
 ?DDX_FieldText@@YGXPAVCDataExchange@@HAAHPAVCDaoRecordset@@@Z @ 3748 NONAME
 ?DDX_FieldText@@YGXPAVCDataExchange@@HAAHPAVCRecordset@@@Z @ 3749 NONAME
 ?DDX_FieldText@@YGXPAVCDataExchange@@HAAIPAVCRecordset@@@Z @ 3750 NONAME
 ?DDX_FieldText@@YGXPAVCDataExchange@@HAAJPAVCDaoRecordset@@@Z @ 3751 NONAME
 ?DDX_FieldText@@YGXPAVCDataExchange@@HAAJPAVCRecordset@@@Z @ 3752 NONAME
 ?DDX_FieldText@@YGXPAVCDataExchange@@HAAKPAVCDaoRecordset@@@Z @ 3753 NONAME
 ?DDX_FieldText@@YGXPAVCDataExchange@@HAAKPAVCRecordset@@@Z @ 3754 NONAME
 ?DDX_FieldText@@YGXPAVCDataExchange@@HAAMPAVCDaoRecordset@@@Z @ 3755 NONAME
 ?DDX_FieldText@@YGXPAVCDataExchange@@HAAMPAVCRecordset@@@Z @ 3756 NONAME
 ?DDX_FieldText@@YGXPAVCDataExchange@@HAANPAVCDaoRecordset@@@Z @ 3757 NONAME
 ?DDX_FieldText@@YGXPAVCDataExchange@@HAANPAVCRecordset@@@Z @ 3758 NONAME
 ?DDX_FieldText@@YGXPAVCDataExchange@@HAAV?$CStringT@DV?$StrTraitMFC_DLL@DV?$ChTraitsCRT@D@ATL@@@@@ATL@@PAVCDaoRecordset@@@Z @ 3759 NONAME
 ?DDX_FieldText@@YGXPAVCDataExchange@@HAAV?$CStringT@DV?$StrTraitMFC_DLL@DV?$ChTraitsCRT@D@ATL@@@@@ATL@@PAVCRecordset@@@Z @ 3760 NONAME
 ?DDX_FieldText@@YGXPAVCDataExchange@@HAAVCOleCurrency@@PAVCDaoRecordset@@@Z @ 3761 NONAME
 ?DDX_FieldText@@YGXPAVCDataExchange@@HAAVCOleDateTime@ATL@@PAVCDaoRecordset@@@Z @ 3762 NONAME
 ?DDX_FieldText@@YGXPAVCDataExchange@@HPADHPAVCDaoRecordset@@@Z @ 3763 NONAME
 ?DDX_FieldText@@YGXPAVCDataExchange@@HPADHPAVCRecordset@@@Z @ 3764 NONAME
 ?DDX_IPAddress@@YGXPAVCDataExchange@@HAAK@Z @ 3765 NONAME
 ?DDX_LBIndex@@YGXPAVCDataExchange@@HAAH@Z @ 3766 NONAME
 ?DDX_LBString@@YGXPAVCDataExchange@@HAAV?$CStringT@DV?$StrTraitMFC_DLL@DV?$ChTraitsCRT@D@ATL@@@@@ATL@@@Z @ 3767 NONAME
 ?DDX_LBStringExact@@YGXPAVCDataExchange@@HAAV?$CStringT@DV?$StrTraitMFC_DLL@DV?$ChTraitsCRT@D@ATL@@@@@ATL@@@Z @ 3768 NONAME
 ?DDX_MonthCalCtrl@@YGXPAVCDataExchange@@HAAU_FILETIME@@@Z @ 3769 NONAME
 ?DDX_MonthCalCtrl@@YGXPAVCDataExchange@@HAAUtagDBDATE@@@Z @ 3770 NONAME
 ?DDX_MonthCalCtrl@@YGXPAVCDataExchange@@HAAVCOleDateTime@ATL@@@Z @ 3771 NONAME
 ?DDX_MonthCalCtrl@@YGXPAVCDataExchange@@HAAVCTime@ATL@@@Z @ 3772 NONAME
 ?DDX_OCBool@@YGXPAVCDataExchange@@HJAAH@Z @ 3773 NONAME
 ?DDX_OCBoolRO@@YGXPAVCDataExchange@@HJAAH@Z @ 3774 NONAME
 ?DDX_OCColor@@YGXPAVCDataExchange@@HJAAK@Z @ 3775 NONAME
 ?DDX_OCColorRO@@YGXPAVCDataExchange@@HJAAK@Z @ 3776 NONAME
 ?DDX_OCFloat@@YGXPAVCDataExchange@@HJAAM@Z @ 3777 NONAME
 ?DDX_OCFloat@@YGXPAVCDataExchange@@HJAAN@Z @ 3778 NONAME
 ?DDX_OCFloatRO@@YGXPAVCDataExchange@@HJAAM@Z @ 3779 NONAME
 ?DDX_OCFloatRO@@YGXPAVCDataExchange@@HJAAN@Z @ 3780 NONAME
 ?DDX_OCInt@@YGXPAVCDataExchange@@HJAAH@Z @ 3781 NONAME
 ?DDX_OCInt@@YGXPAVCDataExchange@@HJAAJ@Z @ 3782 NONAME
 ?DDX_OCIntRO@@YGXPAVCDataExchange@@HJAAH@Z @ 3783 NONAME
 ?DDX_OCIntRO@@YGXPAVCDataExchange@@HJAAJ@Z @ 3784 NONAME
 ?DDX_OCShort@@YGXPAVCDataExchange@@HJAAF@Z @ 3785 NONAME
 ?DDX_OCShortRO@@YGXPAVCDataExchange@@HJAAF@Z @ 3786 NONAME
 ?DDX_OCText@@YGXPAVCDataExchange@@HJAAV?$CStringT@DV?$StrTraitMFC_DLL@DV?$ChTraitsCRT@D@ATL@@@@@ATL@@@Z @ 3787 NONAME
 ?DDX_OCTextRO@@YGXPAVCDataExchange@@HJAAV?$CStringT@DV?$StrTraitMFC_DLL@DV?$ChTraitsCRT@D@ATL@@@@@ATL@@@Z @ 3788 NONAME
 ?DDX_Radio@@YGXPAVCDataExchange@@HAAH@Z @ 3789 NONAME
 ?DDX_Scroll@@YGXPAVCDataExchange@@HAAH@Z @ 3790 NONAME
 ?DDX_Slider@@YGXPAVCDataExchange@@HAAH@Z @ 3791 NONAME
 ?DDX_Text@@YGXPAVCDataExchange@@HAA_J@Z @ 3792 NONAME
 ?DDX_Text@@YGXPAVCDataExchange@@HAA_K@Z @ 3793 NONAME
 ?DDX_Text@@YGXPAVCDataExchange@@HAAE@Z @ 3794 NONAME
 ?DDX_Text@@YGXPAVCDataExchange@@HAAF@Z @ 3795 NONAME
 ?DDX_Text@@YGXPAVCDataExchange@@HAAH@Z @ 3796 NONAME
 ?DDX_Text@@YGXPAVCDataExchange@@HAAI@Z @ 3797 NONAME
 ?DDX_Text@@YGXPAVCDataExchange@@HAAJ@Z @ 3798 NONAME
 ?DDX_Text@@YGXPAVCDataExchange@@HAAK@Z @ 3799 NONAME
 ?DDX_Text@@YGXPAVCDataExchange@@HAAM@Z @ 3800 NONAME
 ?DDX_Text@@YGXPAVCDataExchange@@HAAN@Z @ 3801 NONAME
 ?DDX_Text@@YGXPAVCDataExchange@@HAAU_FILETIME@@@Z @ 3802 NONAME
 ?DDX_Text@@YGXPAVCDataExchange@@HAAU_GUID@@@Z @ 3803 NONAME
 ?DDX_Text@@YGXPAVCDataExchange@@HAAUtagDB_NUMERIC@@@Z @ 3804 NONAME
 ?DDX_Text@@YGXPAVCDataExchange@@HAAUtagDBDATE@@@Z @ 3805 NONAME
 ?DDX_Text@@YGXPAVCDataExchange@@HAAUtagDBTIME@@@Z @ 3806 NONAME
 ?DDX_Text@@YGXPAVCDataExchange@@HAAUtagDEC@@@Z @ 3807 NONAME
 ?DDX_Text@@YGXPAVCDataExchange@@HAAV?$CStringT@DV?$StrTraitMFC_DLL@DV?$ChTraitsCRT@D@ATL@@@@@ATL@@@Z @ 3808 NONAME
 ?DDX_Text@@YGXPAVCDataExchange@@HAAVCOleCurrency@@@Z @ 3809 NONAME
 ?DDX_Text@@YGXPAVCDataExchange@@HAAVCOleDateTime@ATL@@@Z @ 3810 NONAME
 ?DDX_Text@@YGXPAVCDataExchange@@HPADH@Z @ 3811 NONAME
 ?Deactivate@CMFCPropertyGridToolTipCtrl@@QAEXXZ @ 3812 NONAME
 ?Deactivate@CMFCToolBar@@UAEXXZ @ 3813 NONAME
 ?Deactivate@COleClientItem@@QAEXXZ @ 3814 NONAME
 ?Deactivate@XPropertyPage@COlePropertyPage@@UAGJXZ @ 3815 NONAME
 ?DeactivateAndUndo@COleServerDoc@@QAEHXZ @ 3816 NONAME
 ?DeactivateAndUndo@XOleIPSite@COleClientItem@@UAGJXZ @ 3817 NONAME
 ?DeactivateAndUndo@XOleIPSite@COleControlSite@@UAGJXZ @ 3818 NONAME
 ?DeactivateKeyboardFocus@CMFCRibbonBar@@QAEXH@Z @ 3819 NONAME
 ?DeactivateMenu@CFrameImpl@@IAEXXZ @ 3820 NONAME
 ?DeactivateUI@COleClientItem@@QAEXXZ @ 3821 NONAME
 ?DecimalFromString@CGlobalUtils@@QAEHAAUtagDEC@@PBD@Z @ 3822 NONAME
 ?Default@CDaoFieldExchange@@QAEXPBDPAXKK@Z @ 3823 NONAME
 ?Default@CFieldExchange@@QAEXPBDPAXPAJHKK@Z @ 3824 NONAME
 ?Default@CWnd@@IAEJXZ @ 3825 NONAME
 ?DefWindowProcA@CMDIChildWnd@@MAEJIIJ@Z @ 3826 NONAME
 ?DefWindowProcA@CMDIFrameWnd@@MAEJIIJ@Z @ 3827 NONAME
 ?DefWindowProcA@COleControl@@MAEJIIJ@Z @ 3828 NONAME
 ?DefWindowProcA@CPrintDialogEx@@UAEJIIJ@Z @ 3829 NONAME
 ?DefWindowProcA@CWnd@@MAEJIIJ@Z @ 3830 NONAME
 ?DelayRenderData@COleDataSource@@QAEXGPAUtagFORMATETC@@@Z @ 3831 NONAME
 ?DelayRenderFileData@COleDataSource@@QAEXGPAUtagFORMATETC@@@Z @ 3832 NONAME
 ?DelaySetData@COleDataSource@@QAEXGPAUtagFORMATETC@@@Z @ 3833 NONAME
 ?DelayShow@CControlBar@@UAEXH@Z @ 3834 NONAME
 ?DelayUpdateFrameMenu@CFrameWnd@@UAEXPAUHMENU__@@@Z @ 3835 NONAME
 ?DelayUpdateFrameMenu@CFrameWndEx@@UAEXPAUHMENU__@@@Z @ 3836 NONAME
 ?DelayUpdateFrameMenu@CMDIFrameWnd@@UAEXPAUHMENU__@@@Z @ 3837 NONAME
 ?Delete@?$CStringT@_WV?$StrTraitMFC_DLL@_WV?$ChTraitsCRT@_W@ATL@@@@@ATL@@QAEHHH@Z @ 3838 NONAME
 ?Delete@?$CStringT@DV?$StrTraitMFC_DLL@DV?$ChTraitsCRT@D@ATL@@@@@ATL@@QAEHHH@Z @ 3839 NONAME
 ?Delete@CDaoRecordset@@UAEXXZ @ 3840 NONAME
 ?Delete@CException@@QAEXXZ @ 3841 NONAME
 ?Delete@COleClientItem@@QAEXH@Z @ 3842 NONAME
 ?Delete@CRecordset@@UAEXXZ @ 3843 NONAME
 ?Delete@CWinThread@@UAEXXZ @ 3844 NONAME
 ?DeleteAllAutosavedFiles@CDataRecoveryHandler@@UAEHXZ @ 3845 NONAME
 ?DeleteAutosavedFile@CDataRecoveryHandler@@UAEHABV?$CStringT@DV?$StrTraitMFC_DLL@DV?$ChTraitsCRT@D@ATL@@@@@ATL@@@Z @ 3846 NONAME
 ?DeleteCacheValue@CDaoFieldExchange@@SGXPAUCDaoFieldCache@@K@Z @ 3847 NONAME
 ?DeleteColumn@CSplitterWnd@@UAEXH@Z @ 3848 NONAME
 ?DeleteContents@CDocument@@UAEXXZ @ 3849 NONAME
 ?DeleteContents@CEditView@@UAEXXZ @ 3850 NONAME
 ?DeleteContents@CHtmlEditDoc@@UAEXXZ @ 3851 NONAME
 ?DeleteContents@COleDocument@@UAEXXZ @ 3852 NONAME
 ?DeleteContents@COleServerDoc@@UAEXXZ @ 3853 NONAME
 ?DeleteContents@CRichEditDoc@@UAEXXZ @ 3854 NONAME
 ?DeleteContents@CRichEditView@@UAEXXZ @ 3855 NONAME
 ?DeleteDC@CDC@@QAEHXZ @ 3856 NONAME
 ?DeleteField@CDaoTableDef@@QAEXH@Z @ 3857 NONAME
 ?DeleteField@CDaoTableDef@@QAEXPBD@Z @ 3858 NONAME
 ?DeleteIcon@CUserTool@@MAEXXZ @ 3859 NONAME
 ?DeleteImage@CMFCToolBarImages@@QAEHH@Z @ 3860 NONAME
 ?DeleteImageList@CImageList@@QAEHXZ @ 3861 NONAME
 ?DeleteIndex@CDaoTableDef@@QAEXH@Z @ 3862 NONAME
 ?DeleteIndex@CDaoTableDef@@QAEXPBD@Z @ 3863 NONAME
 ?DeleteItem@CComboBox@@UAEXPAUtagDELETEITEMSTRUCT@@@Z @ 3864 NONAME
 ?DeleteItem@CComboBoxEx@@QAEHH@Z @ 3865 NONAME
 ?DeleteItem@CListBox@@UAEXPAUtagDELETEITEMSTRUCT@@@Z @ 3866 NONAME
 ?DeleteItem@CMFCRibbonComboBox@@QAEHH@Z @ 3867 NONAME
 ?DeleteItem@CMFCRibbonComboBox@@QAEHK@Z @ 3868 NONAME
 ?DeleteItem@CMFCRibbonComboBox@@QAEHPBD@Z @ 3869 NONAME
 ?DeleteItem@CMFCToolBarComboBoxButton@@QAEHH@Z @ 3870 NONAME
 ?DeleteItem@CMFCToolBarComboBoxButton@@QAEHK@Z @ 3871 NONAME
 ?DeleteItem@CMFCToolBarComboBoxButton@@QAEHPBD@Z @ 3872 NONAME
 ?DeleteKey@CSettingsStore@@UAEHPBDH@Z @ 3873 NONAME
 ?DeleteObject@CGdiObject@@QAEHXZ @ 3874 NONAME
 ?DeleteObject@XRichEditOleCallback@CRichEditView@@UAGJPAUIOleObject@@@Z @ 3875 NONAME
 ?DeletePane@CPaneContainer@@UAEXPAVCDockablePane@@W4BC_FIND_CRITERIA@1@@Z @ 3876 NONAME
 ?DeleteProperty@CMFCPropertyGridCtrl@@QAEHAAPAVCMFCPropertyGridProperty@@HH@Z @ 3877 NONAME
 ?DeleteQueryDef@CDaoDatabase@@QAEXPBD@Z @ 3878 NONAME
 ?DeleteRelation@CDaoDatabase@@QAEXPBD@Z @ 3879 NONAME
 ?DeleteRow@CSplitterWnd@@UAEXH@Z @ 3880 NONAME
 ?DeleteString@CMFCFontComboBox@@QAEHI@Z @ 3881 NONAME
 ?DeleteTableDef@CDaoDatabase@@QAEXPBD@Z @ 3882 NONAME
 ?DeleteTemp@CHandleMap@@QAEXXZ @ 3883 NONAME
 ?DeleteTempMap@CDC@@SGXXZ @ 3884 NONAME
 ?DeleteTempMap@CGdiObject@@SGXXZ @ 3885 NONAME
 ?DeleteTempMap@CImageList@@SGXXZ @ 3886 NONAME
 ?DeleteTempMap@CMenu@@SGXXZ @ 3887 NONAME
 ?DeleteTempMap@CWnd@@SGXXZ @ 3888 NONAME
 ?DeleteToolBar@CFrameImpl@@IAEHPAVCMFCToolBar@@@Z @ 3889 NONAME
 ?DeleteToolTip@CTooltipManager@@SGXAAPAVCToolTipCtrl@@@Z @ 3890 NONAME
 ?DeleteUnmarkedItems@CRichEditDoc@@IBEXXZ @ 3891 NONAME
 ?DeleteValue@CSettingsStore@@UAEHPBD@Z @ 3892 NONAME
 ?DeleteValues@CThreadSlotData@@QAEXPAUCThreadData@@PAUHINSTANCE__@@@Z @ 3893 NONAME
 ?DeleteValues@CThreadSlotData@@QAEXPAUHINSTANCE__@@H@Z @ 3894 NONAME
 ?DeleteView@CSplitterWnd@@UAEXHH@Z @ 3895 NONAME
 ?DelRegTree@CWinApp@@QAEJPAUHKEY__@@ABV?$CStringT@DV?$StrTraitMFC_DLL@DV?$ChTraitsCRT@D@ATL@@@@@ATL@@PAVCAtlTransactionManager@4@@Z @ 3896 NONAME
 ?DelTool@CToolTipCtrl@@QAEXPAVCWnd@@I@Z @ 3897 NONAME
 ?Destroy@CD2DBitmap@@UAEXXZ @ 3898 NONAME
 ?Destroy@CD2DBitmapBrush@@UAEXXZ @ 3899 NONAME
 ?Destroy@CD2DBrush@@UAEXXZ @ 3900 NONAME
 ?Destroy@CD2DGeometry@@UAEXXZ @ 3901 NONAME
 ?Destroy@CD2DGradientBrush@@MAEXXZ @ 3902 NONAME
 ?Destroy@CD2DLayer@@UAEXXZ @ 3903 NONAME
 ?Destroy@CD2DLinearGradientBrush@@UAEXXZ @ 3904 NONAME
 ?Destroy@CD2DMesh@@UAEXXZ @ 3905 NONAME
 ?Destroy@CD2DPathGeometry@@UAEXXZ @ 3906 NONAME
 ?Destroy@CD2DRadialGradientBrush@@UAEXXZ @ 3907 NONAME
 ?Destroy@CD2DSolidColorBrush@@UAEXXZ @ 3908 NONAME
 ?Destroy@CMFCPreviewCtrlImpl@@UAEXXZ @ 3909 NONAME
 ?Destroy@COleSafeArray@@QAEXXZ @ 3910 NONAME
 ?Destroy@CRenderTarget@@QAEHH@Z @ 3911 NONAME
 ?Destroy@CSmartDockingGroupGuide@@UAEXXZ @ 3912 NONAME
 ?Destroy@CSmartDockingGroupGuidesManager@@UAEXXZ @ 3913 NONAME
 ?Destroy@CSmartDockingManager@@QAEXXZ @ 3914 NONAME
 ?Destroy@CSmartDockingStandaloneGuide@@UAEXXZ @ 3915 NONAME
 ?DestroyControl@COleControlSite@@UAEHXZ @ 3916 NONAME
 ?DestroyCtrl@CMFCRibbonEdit@@UAEXXZ @ 3917 NONAME
 ?DestroyData@COleSafeArray@@QAEXXZ @ 3918 NONAME
 ?DestroyDescriptor@COleSafeArray@@QAEXXZ @ 3919 NONAME
 ?DestroyDockBars@CFrameWnd@@QAEXXZ @ 3920 NONAME
 ?DestroyImages@CSmartDockingGroupGuide@@MAEXXZ @ 3921 NONAME
 ?DestroyInPlaceFrame@COleServerDoc@@MAEXPAVCOleIPFrameWnd@@@Z @ 3922 NONAME
 ?DestroyInstance@CMFCVisualManager@@SGXH@Z @ 3923 NONAME
 ?DestroyMenu@CMenu@@QAEHXZ @ 3924 NONAME
 ?DestroyModeless@CDHtmlDialog@@QAEXXZ @ 3925 NONAME
 ?DestroySharedMenu@COleControl@@MAEXXZ @ 3926 NONAME
 ?DestroySharedMenu@COleDocIPFrameWnd@@MAEXXZ @ 3927 NONAME
 ?DestroySharedMenu@COleIPFrameWnd@@MAEXXZ @ 3928 NONAME
 ?DestroyToolTipCtrl@CToolTipCtrl@@QAEHXZ @ 3929 NONAME
 ?DestroyTracker@COleControl@@IAEXXZ @ 3930 NONAME
 ?DestroyWindow@CControlBar@@UAEHXZ @ 3931 NONAME
 ?DestroyWindow@CMDIChildWnd@@UAEHXZ @ 3932 NONAME
 ?DestroyWindow@CWnd@@UAEHXZ @ 3933 NONAME
 ?Detach@CAsyncSocket@@QAEIXZ @ 3934 NONAME
 ?Detach@CBitmapRenderTarget@@QAEPAUID2D1BitmapRenderTarget@@XZ @ 3935 NONAME
 ?Detach@CD2DBitmap@@QAEPAUID2D1Bitmap@@XZ @ 3936 NONAME
 ?Detach@CD2DBitmapBrush@@QAEPAUID2D1BitmapBrush@@XZ @ 3937 NONAME
 ?Detach@CD2DBrush@@QAEPAUID2D1Brush@@XZ @ 3938 NONAME
 ?Detach@CD2DGeometry@@QAEPAUID2D1Geometry@@XZ @ 3939 NONAME
 ?Detach@CD2DLayer@@QAEPAUID2D1Layer@@XZ @ 3940 NONAME
 ?Detach@CD2DLinearGradientBrush@@QAEPAUID2D1LinearGradientBrush@@XZ @ 3941 NONAME
 ?Detach@CD2DMesh@@QAEPAUID2D1Mesh@@XZ @ 3942 NONAME
 ?Detach@CD2DPathGeometry@@QAEPAUID2D1PathGeometry@@XZ @ 3943 NONAME
 ?Detach@CD2DRadialGradientBrush@@QAEPAUID2D1RadialGradientBrush@@XZ @ 3944 NONAME
 ?Detach@CD2DSolidColorBrush@@QAEPAUID2D1SolidColorBrush@@XZ @ 3945 NONAME
 ?Detach@CDC@@QAEPAUHDC__@@XZ @ 3946 NONAME
 ?Detach@CDCRenderTarget@@QAEPAUID2D1DCRenderTarget@@XZ @ 3947 NONAME
 ?Detach@CDialogTemplate@@QAEPAXXZ @ 3948 NONAME
 ?Detach@CGdiObject@@QAEPAXXZ @ 3949 NONAME
 ?Detach@CHwndRenderTarget@@QAEPAUID2D1HwndRenderTarget@@XZ @ 3950 NONAME
 ?Detach@CImageList@@QAEPAU_IMAGELIST@@XZ @ 3951 NONAME
 ?Detach@CMemFile@@QAEPAEXZ @ 3952 NONAME
 ?Detach@CMenu@@QAEPAUHMENU__@@XZ @ 3953 NONAME
 ?Detach@CMonikerFile@@QAEHPAVCFileException@@@Z @ 3954 NONAME
 ?Detach@COleDataObject@@QAEPAUIDataObject@@XZ @ 3955 NONAME
 ?Detach@COleSafeArray@@QAE?AUtagVARIANT@@XZ @ 3956 NONAME
 ?Detach@COleStreamFile@@QAEPAUIStream@@XZ @ 3957 NONAME
 ?Detach@COleVariant@@QAE?AUtagVARIANT@@XZ @ 3958 NONAME
 ?Detach@CRenderTarget@@QAEPAUID2D1RenderTarget@@XZ @ 3959 NONAME
 ?Detach@CSharedFile@@QAEPAXXZ @ 3960 NONAME
 ?Detach@CWindowlessDC@@QAEPAUHDC__@@XZ @ 3961 NONAME
 ?Detach@CWnd@@QAEPAUHWND__@@XZ @ 3962 NONAME
 ?DetachDispatch@COleDispatchDriver@@QAEPAUIDispatch@@XZ @ 3963 NONAME
 ?DetachHandle@CAsyncSocket@@SGXIH@Z @ 3964 NONAME
 ?DetachPane@CBaseTabbedPane@@UAEHPAVCWnd@@H@Z @ 3965 NONAME
 ?DetachPane@CTabbedPane@@UAEHPAVCWnd@@H@Z @ 3966 NONAME
 ?DetachTab@CMFCBaseTabCtrl@@UAEHW4AFX_DOCK_METHOD@@HH@Z @ 3967 NONAME
 ?DetachWindow@COleControlSite@@QAEXXZ @ 3968 NONAME
 ?DeterminePaneAndStatus@CDockingManager@@UAE?AW4AFX_CS_STATUS@@VCPoint@@HKPAPAVCBasePane@@PBV4@2@Z @ 3969 NONAME
 ?DevModeChange@CWinApp@@QAEXPAD@Z @ 3970 NONAME
 ?DFX_Binary@@YGXPAVCDaoFieldExchange@@PBDAAVCByteArray@@HK@Z @ 3971 NONAME
 ?DFX_Bool@@YGXPAVCDaoFieldExchange@@PBDAAHK@Z @ 3972 NONAME
 ?DFX_Byte@@YGXPAVCDaoFieldExchange@@PBDAAEK@Z @ 3973 NONAME
 ?DFX_Currency@@YGXPAVCDaoFieldExchange@@PBDAAVCOleCurrency@@K@Z @ 3974 NONAME
 ?DFX_DateTime@@YGXPAVCDaoFieldExchange@@PBDAAVCOleDateTime@ATL@@K@Z @ 3975 NONAME
 ?DFX_Double@@YGXPAVCDaoFieldExchange@@PBDAANK@Z @ 3976 NONAME
 ?DFX_Long@@YGXPAVCDaoFieldExchange@@PBDAAJK@Z @ 3977 NONAME
 ?DFX_LongBinary@@YGXPAVCDaoFieldExchange@@PBDAAVCLongBinary@@KK@Z @ 3978 NONAME
 ?DFX_Short@@YGXPAVCDaoFieldExchange@@PBDAAFK@Z @ 3979 NONAME
 ?DFX_Single@@YGXPAVCDaoFieldExchange@@PBDAAMK@Z @ 3980 NONAME
 ?DFX_Text@@YGXPAVCDaoFieldExchange@@PBDAAV?$CStringT@DV?$StrTraitMFC_DLL@DV?$ChTraitsCRT@D@ATL@@@@@ATL@@HK@Z @ 3981 NONAME
 ?DHtmlEventHook@CDHtmlEventSink@@UAEHPAJJPAUtagDISPPARAMS@@PAUtagVARIANT@@PAUtagEXCEPINFO@@PAI@Z @ 3982 NONAME
 ?DialogMouseHookProc@CDialogImpl@@KGJHIJ@Z @ 3983 NONAME
 ?DidEvent@XNotifyDBEvents@COleControlSite@@UAGJKKQAUtagDBNOTIFYREASON@@@Z @ 3984 NONAME
 ?DisableMask@CMFCMaskedEdit@@QAEXXZ @ 3985 NONAME
 ?DiscardUndoState@COleServerDoc@@QAEHXZ @ 3986 NONAME
 ?DiscardUndoState@XOleIPSite@COleClientItem@@UAGJXZ @ 3987 NONAME
 ?DiscardUndoState@XOleIPSite@COleControlSite@@UAGJXZ @ 3988 NONAME
 ?Disconnect@COleDispatchImpl@@UAEXXZ @ 3989 NONAME
 ?DisconnectDHtmlElementEvents@CDHtmlDialog@@IAEXXZ @ 3990 NONAME
 ?DisconnectDHtmlEvents@CDHtmlDialog@@IAEXXZ @ 3991 NONAME
 ?DisconnectFromConnectionPoint@CDHtmlEventSink@@QAEXPAUIUnknown@@ABU_GUID@@AAK@Z @ 3992 NONAME
 ?DisconnectSink@COleControlSite@@IAEXABU_GUID@@K@Z @ 3993 NONAME
 ?DisconnectViews@CDocument@@QAEXXZ @ 3994 NONAME
 ?DispatchThreadMessage@CWinThread@@IAEXPAUtagMSG@@@Z @ 3995 NONAME
 ?DispatchThreadMessageEx@CWinThread@@IAEHPAUtagMSG@@@Z @ 3996 NONAME
 ?DisplayError@COleControl@@UAEXJPBD00I@Z @ 3997 NONAME
 ?DisplayFolder@CMFCShellListCtrl@@UAEJPAU_AFX_SHELLITEMINFO@@@Z @ 3998 NONAME
 ?DisplayFolder@CMFCShellListCtrl@@UAEJPBD@Z @ 3999 NONAME
 ?DisplayParentFolder@CMFCShellListCtrl@@UAEJXZ @ 4000 NONAME
 ?DoBeginPrinting@CDocObjectServer@@IAEXPAVCView@@PAVCDC@@PAUCPrintInfo@@@Z @ 4001 NONAME
 ?DoBulkFieldExchange@CRecordset@@UAEXPAVCFieldExchange@@@Z @ 4002 NONAME
 ?DoCallBack@CAsyncSocket@@SGXIJ@Z @ 4003 NONAME
 ?DoChangeIcon@COleChangeIconDialog@@QAEHPAVCOleClientItem@@@Z @ 4004 NONAME
 ?Dock@CBaseTabbedPane@@MAEHPAVCBasePane@@PBUtagRECT@@W4AFX_DOCK_METHOD@@@Z @ 4005 NONAME
 ?Dock@CDockablePane@@MAEHPAVCBasePane@@PBUtagRECT@@W4AFX_DOCK_METHOD@@@Z @ 4006 NONAME
 ?Dock@CMFCOutlookBarPane@@UAEHPAVCBasePane@@PBUtagRECT@@W4AFX_DOCK_METHOD@@@Z @ 4007 NONAME
 ?Dock@CPane@@MAEHPAVCBasePane@@PBUtagRECT@@W4AFX_DOCK_METHOD@@@Z @ 4008 NONAME
 ?DockByMouse@CPane@@UAEHPAVCBasePane@@@Z @ 4009 NONAME
 ?DockControlBar@CDockBar@@QAEXPAVCControlBar@@PBUtagRECT@@@Z @ 4010 NONAME
 ?DockControlBar@CFrameWnd@@QAEXPAVCControlBar@@IPBUtagRECT@@@Z @ 4011 NONAME
 ?DockControlBar@CFrameWnd@@QAEXPAVCControlBar@@PAVCDockBar@@PBUtagRECT@@@Z @ 4012 NONAME
 ?DockFrame@CMultiPaneFrameWnd@@UAEHPAVCPaneFrameWnd@@W4AFX_DOCK_METHOD@@@Z @ 4013 NONAME
 ?DockPane@CAutoHideDockSite@@UAEXPAVCPane@@W4AFX_DOCK_METHOD@@PBUtagRECT@@@Z @ 4014 NONAME
 ?DockPane@CDockingManager@@QAEXPAVCBasePane@@IPBUtagRECT@@@Z @ 4015 NONAME
 ?DockPane@CDockSite@@UAEXPAVCPane@@W4AFX_DOCK_METHOD@@PBUtagRECT@@@Z @ 4016 NONAME
 ?DockPane@CFrameWndEx@@QAEXPAVCBasePane@@IPBUtagRECT@@@Z @ 4017 NONAME
 ?DockPane@CMDIChildWndEx@@QAEXPAVCBasePane@@IPBUtagRECT@@@Z @ 4018 NONAME
 ?DockPane@CMDIFrameWndEx@@QAEXPAVCBasePane@@IPBUtagRECT@@@Z @ 4019 NONAME
 ?DockPane@CMultiPaneFrameWnd@@UAEHPAVCDockablePane@@@Z @ 4020 NONAME
 ?DockPane@COleCntrFrameWndEx@@QAEXPAVCBasePane@@IPBUtagRECT@@@Z @ 4021 NONAME
 ?DockPane@COleDocIPFrameWndEx@@QAEXPAVCBasePane@@IPBUtagRECT@@@Z @ 4022 NONAME
 ?DockPane@COleIPFrameWndEx@@QAEXPAVCBasePane@@IPBUtagRECT@@@Z @ 4023 NONAME
 ?DockPane@CPane@@UAEHPAVCBasePane@@PBUtagRECT@@W4AFX_DOCK_METHOD@@@Z @ 4024 NONAME
 ?DockPane@CPaneFrameWnd@@UAEPAVCDockablePane@@AAH@Z @ 4025 NONAME
 ?DockPaneContainer@CDockablePane@@UAEHAAVCPaneContainerManager@@KW4AFX_DOCK_METHOD@@@Z @ 4026 NONAME
 ?DockPaneLeftOf@CDockingManager@@QAEHPAVCPane@@0@Z @ 4027 NONAME
 ?DockPaneLeftOf@CDockSite@@UAEHPAVCPane@@0@Z @ 4028 NONAME
 ?DockPaneLeftOf@CFrameWndEx@@QAEHPAVCPane@@0@Z @ 4029 NONAME
 ?DockPaneLeftOf@CMDIChildWndEx@@QAEHPAVCPane@@0@Z @ 4030 NONAME
 ?DockPaneLeftOf@CMDIFrameWndEx@@QAEHPAVCPane@@0@Z @ 4031 NONAME
 ?DockPaneLeftOf@COleCntrFrameWndEx@@QAEHPAVCPane@@0@Z @ 4032 NONAME
 ?DockPaneLeftOf@COleDocIPFrameWndEx@@QAEHPAVCPane@@0@Z @ 4033 NONAME
 ?DockPaneLeftOf@COleIPFrameWndEx@@QAEHPAVCPane@@0@Z @ 4034 NONAME
 ?DockPaneStandard@CDockablePane@@UAEPAVCPane@@AAH@Z @ 4035 NONAME
 ?DockPaneStandard@CMultiPaneFrameWnd@@MAEPAVCDockablePane@@AAH@Z @ 4036 NONAME
 ?DockPaneStandard@CPaneFrameWnd@@MAEPAVCDockablePane@@AAH@Z @ 4037 NONAME
 ?DockPaneUsingRTTI@CBasePane@@QAEXH@Z @ 4038 NONAME
 ?DockRecentPaneToMainFrame@CMultiPaneFrameWnd@@UAEXPAVCDockablePane@@@Z @ 4039 NONAME
 ?DockToFrameWindow@CDockablePane@@UAEHKPBUtagRECT@@KPAVCBasePane@@HH@Z @ 4040 NONAME
 ?DockToWindow@CDockablePane@@UAEHPAV1@KPBUtagRECT@@@Z @ 4041 NONAME
 ?DoClick@COleControl@@QAEXXZ @ 4042 NONAME
 ?DoContextSensitiveHelp@COleFrameHook@@QAEHH@Z @ 4043 NONAME
 ?DoConvert@COleConvertDialog@@QAEHPAVCOleClientItem@@@Z @ 4044 NONAME
 ?DocumentComplete@CHtmlView@@MAEXPAUIDispatch@@PAUtagVARIANT@@@Z @ 4045 NONAME
 ?DoD2DPaint@CWnd@@IAEHXZ @ 4046 NONAME
 ?DoDataExchange@CMFCColorDialog@@MAEXPAVCDataExchange@@@Z @ 4047 NONAME
 ?DoDataExchange@CMFCCustomColorsPropertyPage@@MAEXPAVCDataExchange@@@Z @ 4048 NONAME
 ?DoDataExchange@CMFCImageEditorDialog@@MAEXPAVCDataExchange@@@Z @ 4049 NONAME
 ?DoDataExchange@CMFCKeyMapDialog@@MAEXPAVCDataExchange@@@Z @ 4050 NONAME
 ?DoDataExchange@CMFCMousePropertyPage@@MAEXPAVCDataExchange@@@Z @ 4051 NONAME
 ?DoDataExchange@CMFCRibbonCustomizePropertyPage@@MAEXPAVCDataExchange@@@Z @ 4052 NONAME
 ?DoDataExchange@CMFCRibbonKeyboardCustomizeDialog@@MAEXPAVCDataExchange@@@Z @ 4053 NONAME
 ?DoDataExchange@CMFCStandardColorsPropertyPage@@MAEXPAVCDataExchange@@@Z @ 4054 NONAME
 ?DoDataExchange@CMFCToolBarButtonCustomizeDialog@@MAEXPAVCDataExchange@@@Z @ 4055 NONAME
 ?DoDataExchange@CMFCToolBarNameDialog@@MAEXPAVCDataExchange@@@Z @ 4056 NONAME
 ?DoDataExchange@CMFCToolBarsCommandsPropertyPage@@MAEXPAVCDataExchange@@@Z @ 4057 NONAME
 ?DoDataExchange@CMFCToolBarsKeyboardPropertyPage@@MAEXPAVCDataExchange@@@Z @ 4058 NONAME
 ?DoDataExchange@CMFCToolBarsListPropertyPage@@MAEXPAVCDataExchange@@@Z @ 4059 NONAME
 ?DoDataExchange@CMFCToolBarsMenuPropertyPage@@MAEXPAVCDataExchange@@@Z @ 4060 NONAME
 ?DoDataExchange@CMFCToolBarsOptionsPropertyPage@@MAEXPAVCDataExchange@@@Z @ 4061 NONAME
 ?DoDataExchange@CMFCToolBarsToolsPropertyPage@@MAEXPAVCDataExchange@@@Z @ 4062 NONAME
 ?DoDataExchange@CMFCWindowsManagerDialog@@MAEXPAVCDataExchange@@@Z @ 4063 NONAME
 ?DoDataExchange@COutlookOptionsDlg@@MAEXPAVCDataExchange@@@Z @ 4064 NONAME
 ?DoDefault@CMFCShellListCtrl@@MAEXH@Z @ 4065 NONAME
 ?DoDefaultPrinting@COleDocObjectItem@@SAJPAVCView@@PAUCPrintInfo@@@Z @ 4066 NONAME
 ?DoDragDrop@COleClientItem@@QAEKPBUtagRECT@@VCPoint@@HK0@Z @ 4067 NONAME
 ?DoDragDrop@COleDataSource@@QAEKKPBUtagRECT@@PAVCOleDropSource@@@Z @ 4068 NONAME
 ?DoDragDrop@COleServerItem@@QAEKPBUtagRECT@@VCPoint@@HK0@Z @ 4069 NONAME
 ?DoDrawHeaderSortArrow@CMFCVisualManager@@QAEXPAVCDC@@VCRect@@HH@Z @ 4070 NONAME
 ?DoEnableModeless@COleFrameHook@@QAEHH@Z @ 4071 NONAME
 ?DoEnableModeless@CWinApp@@SAXH@Z @ 4072 NONAME
 ?DoEndPrinting@CDocObjectServer@@IAEXPAVCView@@PAVCDC@@PAUCPrintInfo@@@Z @ 4073 NONAME
 ?DoesAllowDynInsertBefore@CPaneContainerManager@@UBEHXZ @ 4074 NONAME
 ?DoesAllowDynInsertBefore@CPaneDivider@@UBEHXZ @ 4075 NONAME
 ?DoesContainFloatingPane@CPaneContainerManager@@UAEHXZ @ 4076 NONAME
 ?DoesContainFloatingPane@CPaneDivider@@UAEHXZ @ 4077 NONAME
 ?DoFieldExchange@CDaoRecordset@@UAEXPAVCDaoFieldExchange@@@Z @ 4078 NONAME
 ?DoFieldExchange@CRecordset@@UAEXPAVCFieldExchange@@@Z @ 4079 NONAME
 ?DoFileSave@CDocument@@UAEHXZ @ 4080 NONAME
 ?DoKeyboardSplit@CSplitterWnd@@UAEHXZ @ 4081 NONAME
 ?DoMessageBox@CWinApp@@UAEHPBDII@Z @ 4082 NONAME
 ?DoModal@CColorDialog@@UAEHXZ @ 4083 NONAME
 ?DoModal@CDialog@@UAEHXZ @ 4084 NONAME
 ?DoModal@CFileDialog@@UAEHXZ @ 4085 NONAME
 ?DoModal@CFontDialog@@UAEHXZ @ 4086 NONAME
 ?DoModal@COleBusyDialog@@UAEHXZ @ 4087 NONAME
 ?DoModal@COleChangeIconDialog@@UAEHXZ @ 4088 NONAME
 ?DoModal@COleChangeSourceDialog@@UAEHXZ @ 4089 NONAME
 ?DoModal@COleConvertDialog@@UAEHXZ @ 4090 NONAME
 ?DoModal@COleInsertDialog@@QAEHK@Z @ 4091 NONAME
 ?DoModal@COleInsertDialog@@UAEHXZ @ 4092 NONAME
 ?DoModal@COleLinksDialog@@UAEHXZ @ 4093 NONAME
 ?DoModal@COlePasteSpecialDialog@@UAEHXZ @ 4094 NONAME
 ?DoModal@COlePropertiesDialog@@UAEHXZ @ 4095 NONAME
 ?DoModal@COleUpdateDialog@@UAEHXZ @ 4096 NONAME
 ?DoModal@CPageSetupDialog@@UAEHXZ @ 4097 NONAME
 ?DoModal@CPrintDialog@@UAEHXZ @ 4098 NONAME
 ?DoModal@CPrintDialogEx@@UAEHXZ @ 4099 NONAME
 ?DoModal@CPropertySheet@@UAEHXZ @ 4100 NONAME
 ?DoMouseWheel@CScrollView@@QAEHIFVCPoint@@@Z @ 4101 NONAME
 ?DoOleVerb@CCmdTarget@@QAEHJPAUtagMSG@@PAUHWND__@@PBUtagRECT@@@Z @ 4102 NONAME
 ?DoPaint@CBasePane@@MAEXPAVCDC@@@Z @ 4103 NONAME
 ?DoPaint@CControlBar@@UAEXPAVCDC@@@Z @ 4104 NONAME
 ?DoPaint@CDockBar@@UAEXPAVCDC@@@Z @ 4105 NONAME
 ?DoPaint@CMFCAutoHideBar@@MAEXPAVCDC@@@Z @ 4106 NONAME
 ?DoPaint@CMFCColorBar@@MAEXPAVCDC@@@Z @ 4107 NONAME
 ?DoPaint@CMFCOutlookBarPane@@MAEXPAVCDC@@@Z @ 4108 NONAME
 ?DoPaint@CMFCPopupMenu@@MAEXPAVCDC@@@Z @ 4109 NONAME
 ?DoPaint@CMFCPreviewCtrlImpl@@MAEXPAVCPaintDC@@@Z @ 4110 NONAME
 ?DoPaint@CMFCRibbonMainPanel@@MAEXPAVCDC@@@Z @ 4111 NONAME
 ?DoPaint@CMFCRibbonPanel@@MAEXPAVCDC@@@Z @ 4112 NONAME
 ?DoPaint@CMFCRibbonPanelMenu@@MAEXPAVCDC@@@Z @ 4113 NONAME
 ?DoPaint@CMFCRibbonPanelMenuBar@@UAEXPAVCDC@@@Z @ 4114 NONAME
 ?DoPaint@CMFCStatusBar@@MAEXPAVCDC@@@Z @ 4115 NONAME
 ?DoPaint@CMFCTasksPane@@MAEXPAVCDC@@@Z @ 4116 NONAME
 ?DoPaint@CMFCToolBar@@MAEXPAVCDC@@@Z @ 4117 NONAME
 ?DoPaste@CRichEditView@@QAEXAAVCOleDataObject@@GPAX@Z @ 4118 NONAME
 ?DoPrepareDC@CDocObjectServer@@IAEXPAVCView@@PAVCDC@@PAUCPrintInfo@@@Z @ 4119 NONAME
 ?DoPreparePrinting@CDocObjectServer@@IAEHPAVCView@@PAUCPrintInfo@@@Z @ 4120 NONAME
 ?DoPreparePrinting@CView@@QAEHPAUCPrintInfo@@@Z @ 4121 NONAME
 ?DoPreview@XPreviewHandler@CDocument@@UAGJXZ @ 4122 NONAME
 ?DoPrint@CDocObjectServer@@IAEXPAVCView@@PAVCDC@@PAUCPrintInfo@@@Z @ 4123 NONAME
 ?DoPrintDialog@CWinApp@@QAEHPAVCPrintDialog@@@Z @ 4124 NONAME
 ?DoPrintPreview@CView@@QAEHIPAV1@PAUCRuntimeClass@@PAUCPrintPreviewState@@@Z @ 4125 NONAME
 ?DoPromptFileName@CDocManager@@UAEHAAV?$CStringT@DV?$StrTraitMFC_DLL@DV?$ChTraitsCRT@D@ATL@@@@@ATL@@IKHPAVCDocTemplate@@@Z @ 4126 NONAME
 ?DoPromptFileName@CWinApp@@QAEHAAV?$CStringT@DV?$StrTraitMFC_DLL@DV?$ChTraitsCRT@D@ATL@@@@@ATL@@IKHPAVCDocTemplate@@@Z @ 4127 NONAME
 ?DoPropExchange@COleControl@@UAEXPAVCPropExchange@@@Z @ 4128 NONAME
 ?DoSave@CDocument@@UAEHPBDH@Z @ 4129 NONAME
 ?DoSave@COleDocument@@UAEHPBDH@Z @ 4130 NONAME
 ?DoScroll@CSplitterWnd@@UAEHPAVCView@@IH@Z @ 4131 NONAME
 ?DoScrollBy@CSplitterWnd@@UAEHPAVCView@@VCSize@@H@Z @ 4132 NONAME
 ?DoSuperclassPaint@COleControl@@QAEXPAVCDC@@ABVCRect@@@Z @ 4133 NONAME
 ?DoUpdate@CCmdUI@@QAEHPAVCCmdTarget@@H@Z @ 4134 NONAME
 ?DoUpdate@CMFCMaskedEdit@@AAEHHHH@Z @ 4135 NONAME
 ?DoUpdate@COleCmdUI@@UAEHPAVCCmdTarget@@H@Z @ 4136 NONAME
 ?DoVerb@COleClientItem@@UAEHJPAVCView@@PAUtagMSG@@@Z @ 4137 NONAME
 ?DoVerb@COleControlSite@@UAEJJPAUtagMSG@@@Z @ 4138 NONAME
 ?DoVerb@XOleObject@CDocObjectServer@@UAGJJPAUtagMSG@@PAUIOleClientSite@@JPAUHWND__@@PBUtagRECT@@@Z @ 4139 NONAME
 ?DoVerb@XOleObject@COleControl@@UAGJJPAUtagMSG@@PAUIOleClientSite@@JPAUHWND__@@PBUtagRECT@@@Z @ 4140 NONAME
 ?DoVerb@XOleObject@COleServerDoc@@UAGJJPAUtagMSG@@PAUIOleClientSite@@JPAUHWND__@@PBUtagRECT@@@Z @ 4141 NONAME
 ?DoVerb@XOleObject@COleServerItem@@UAGJJPAUtagMSG@@PAUIOleClientSite@@JPAUHWND__@@PBUtagRECT@@@Z @ 4142 NONAME
 ?DoWaitCursor@CWinApp@@UAEXH@Z @ 4143 NONAME
 ?DoZoom@CPreviewView@@IAEXIVCPoint@@@Z @ 4144 NONAME
 ?DPtoHIMETRIC@CDC@@QBEXPAUtagSIZE@@@Z @ 4145 NONAME
 ?DPtoLP@CDC@@QBEXPAUtagSIZE@@@Z @ 4146 NONAME
 ?DragEnter@XDropTarget@COleDropTarget@@UAGJPAUIDataObject@@KU_POINTL@@PAK@Z @ 4147 NONAME
 ?Dragging@CDragListBox@@UAEIVCPoint@@@Z @ 4148 NONAME
 ?DragLeave@XDropTarget@COleDropTarget@@UAGJXZ @ 4149 NONAME
 ?DragOver@XDropTarget@COleDropTarget@@UAGJKU_POINTL@@PAK@Z @ 4150 NONAME
 ?Draw@CMenuImages@@SGXPAVCDC@@W4IMAGES_IDS@1@ABVCPoint@@W4IMAGE_STATE@1@ABVCSize@@@Z @ 4151 NONAME
 ?Draw@CMenuImages@@SGXPAVCDC@@W4IMAGES_IDS@1@ABVCRect@@W4IMAGE_STATE@1@ABVCSize@@@Z @ 4152 NONAME
 ?Draw@CMFCControlRenderer@@UAEXPAVCDC@@VCRect@@IE@Z @ 4153 NONAME
 ?Draw@CMFCShadowRenderer@@UAEXPAVCDC@@VCRect@@IE@Z @ 4154 NONAME
 ?Draw@CMFCToolBarImages@@QAEHPAVCDC@@HHHHHHHHE@Z @ 4155 NONAME
 ?Draw@CMFCVisualManagerBitmapCacheItem@CMFCVisualManagerBitmapCache@@QAEXPAVCDC@@VCRect@@HE@Z @ 4156 NONAME
 ?Draw@COleClientItem@@QAEHPAVCDC@@PBUtagRECT@@W4tagDVASPECT@@@Z @ 4157 NONAME
 ?Draw@CRectTracker@@QBEXPAVCDC@@@Z @ 4158 NONAME
 ?Draw@CSmartDockingGroupGuide@@MAEXAAVCDC@@H@Z @ 4159 NONAME
 ?Draw@XViewObject@COleControl@@UAGJKJPAXPAUtagDVTARGETDEVICE@@PAUHDC__@@2PBU_RECTL@@3P6GHK@ZK@Z @ 4160 NONAME
 ?Draw3dRect@CDC@@QAEXHHHHKK@Z @ 4161 NONAME
 ?Draw3dRect@CDC@@QAEXPBUtagRECT@@KK@Z @ 4162 NONAME
 ?Draw3DTab@CMFCTabCtrl@@MAEXPAVCDC@@PAVCMFCTabInfo@@H@Z @ 4163 NONAME
 ?DrawAllSplitBars@CSplitterWnd@@MAEXPAVCDC@@HH@Z @ 4164 NONAME
 ?DrawAlpha@CDrawingManager@@QAEXPAVCDC@@ABVCRect@@01@Z @ 4165 NONAME
 ?DrawAnimation@CMFCDesktopAlertWnd@@IAEXPAVCDC@@@Z @ 4166 NONAME
 ?DrawApplicationButton@CMFCRibbonMainPanel@@IAEXPAVCDC@@PAVCWnd@@@Z @ 4167 NONAME
 ?DrawBitmap@CRenderTarget@@QAEXPAVCD2DBitmap@@ABVCD2DRectF@@MW4D2D1_BITMAP_INTERPOLATION_MODE@@PBV3@@Z @ 4168 NONAME
 ?DrawBorder@CMFCButton@@IAEXPAVCDC@@AAVCRect@@I@Z @ 4169 NONAME
 ?DrawBorders@CControlBar@@UAEXPAVCDC@@AAVCRect@@@Z @ 4170 NONAME
 ?DrawBottomText@CMFCRibbonButton@@QAE?AVCSize@@PAVCDC@@H@Z @ 4171 NONAME
 ?DrawButton@CMFCToolBar@@MAEHPAVCDC@@PAVCMFCToolBarButton@@PAVCMFCToolBarImages@@HH@Z @ 4172 NONAME
 ?DrawCaption@CDockablePane@@MAEXPAVCDC@@VCRect@@@Z @ 4173 NONAME
 ?DrawCaption@CMFCTasksPane@@MAEXPAVCDC@@VCRect@@@Z @ 4174 NONAME
 ?DrawCentralGroupGuides@CSmartDockingGroupGuidesManager@@IAEXAAVCDC@@AAVCBrush@@1VCRect@@@Z @ 4175 NONAME
 ?DrawCheckBox@CMFCBaseVisualManager@@UAEHPAVCDC@@VCRect@@HHHH@Z @ 4176 NONAME
 ?DrawCheckBox@CMFCCustomizeMenuButton@@MAEXPAVCDC@@ABVCRect@@H@Z @ 4177 NONAME
 ?DrawComboBorder@CMFCBaseVisualManager@@UAEHPAVCDC@@VCRect@@HHH@Z @ 4178 NONAME
 ?DrawComboDropButton@CMFCBaseVisualManager@@UAEHPAVCDC@@VCRect@@HHH@Z @ 4179 NONAME
 ?DrawContent@COleControl@@IAEXPAVCDC@@AAVCRect@@@Z @ 4180 NONAME
 ?DrawCursor@CMFCColorPickerCtrl@@MAEXPAVCDC@@ABVCRect@@@Z @ 4181 NONAME
 ?DrawCustomizeButton@CMFCVisualManagerOffice2003@@UAEXPAVCDC@@VCRect@@HW4AFX_BUTTON_STATE@CMFCVisualManager@@HH@Z @ 4182 NONAME
 ?DrawDocumentIcon@CMFCToolBarMenuButton@@IAEXPAVCDC@@ABVCRect@@PAUHICON__@@@Z @ 4183 NONAME
 ?DrawDragCursor@CMFCPopupMenuBar@@MAEXPAVCDC@@@Z @ 4184 NONAME
 ?DrawDragCursor@CMFCToolBar@@MAEXPAVCDC@@@Z @ 4185 NONAME
 ?DrawDragFrame@CMFCDragFrameImpl@@IAEXPBUtagRECT@@0HHH@Z @ 4186 NONAME
 ?DrawDragRect@CDC@@QAEXPBUtagRECT@@UtagSIZE@@01PAVCBrush@@2@Z @ 4187 NONAME
 ?DrawEllipse@CDrawingManager@@QAEXABVCRect@@KK@Z @ 4188 NONAME
 ?DrawEllipse@CRenderTarget@@QAEXABVCD2DEllipse@@PAVCD2DBrush@@MPAUID2D1StrokeStyle@@@Z @ 4189 NONAME
 ?DrawEx@CMFCToolBarImages@@QAEHPAVCDC@@VCRect@@HW4ImageAlignHorz@1@W4ImageAlignVert@1@1E@Z @ 4190 NONAME
 ?DrawFade@CMFCPopupMenu@@MAEXPAVCDC@@@Z @ 4191 NONAME
 ?DrawFlatTab@CMFCTabCtrl@@MAEXPAVCDC@@PAVCMFCTabInfo@@H@Z @ 4192 NONAME
 ?DrawFocusRect@CDockContext@@QAEXH@Z @ 4193 NONAME
 ?DrawFrame@CMFCControlRenderer@@UAEXPAVCDC@@VCRect@@IE@Z @ 4194 NONAME
 ?DrawFrame@CMFCShadowRenderer@@UAEXPAVCDC@@VCRect@@IE@Z @ 4195 NONAME
 ?DrawFrameTab@CMFCDragFrameImpl@@IAEXPAVCDockablePane@@H@Z @ 4196 NONAME
 ?DrawGeometry@CRenderTarget@@QAEXPAVCD2DGeometry@@PAVCD2DBrush@@MPAUID2D1StrokeStyle@@@Z @ 4197 NONAME
 ?DrawGlyphRun@CRenderTarget@@QAEXABVCD2DPointF@@ABUDWRITE_GLYPH_RUN@@PAVCD2DBrush@@W4DWRITE_MEASURING_MODE@@@Z @ 4198 NONAME
 ?DrawGradientRing@CDrawingManager@@QAEHVCRect@@KKKHHK@Z @ 4199 NONAME
 ?DrawGripper@CControlBar@@UAEXPAVCDC@@ABVCRect@@@Z @ 4200 NONAME
 ?DrawHex@CMFCColorPickerCtrl@@IAEXPAVCDC@@@Z @ 4201 NONAME
 ?DrawImage@CMFCRibbonApplicationButton@@MAEXPAVCDC@@W4RibbonImageType@CMFCRibbonBaseElement@@VCRect@@@Z @ 4202 NONAME
 ?DrawImage@CMFCRibbonButton@@UAEXPAVCDC@@W4RibbonImageType@CMFCRibbonBaseElement@@VCRect@@@Z @ 4203 NONAME
 ?DrawImage@CMFCRibbonColorButton@@MAEXPAVCDC@@W4RibbonImageType@CMFCRibbonBaseElement@@VCRect@@@Z @ 4204 NONAME
 ?DrawImage@CMFCRibbonDefaultPanelButton@@UAEXPAVCDC@@W4RibbonImageType@CMFCRibbonBaseElement@@VCRect@@@Z @ 4205 NONAME
 ?DrawIndirect@CImageList@@QAEHPAU_IMAGELISTDRAWPARAMS@@@Z @ 4206 NONAME
 ?DrawIndirect@CImageList@@QAEHPAVCDC@@HUtagPOINT@@UtagSIZE@@1IKKKKKK@Z @ 4207 NONAME
 ?DrawInsert@CDragListBox@@UAEXH@Z @ 4208 NONAME
 ?DrawItem@CBitmapButton@@MAEXPAUtagDRAWITEMSTRUCT@@@Z @ 4209 NONAME
 ?DrawItem@CButton@@UAEXPAUtagDRAWITEMSTRUCT@@@Z @ 4210 NONAME
 ?DrawItem@CCheckListBox@@UAEXPAUtagDRAWITEMSTRUCT@@@Z @ 4211 NONAME
 ?DrawItem@CChevronOwnerDrawMenu@@UAEXPAUtagDRAWITEMSTRUCT@@@Z @ 4212 NONAME
 ?DrawItem@CComboBox@@UAEXPAUtagDRAWITEMSTRUCT@@@Z @ 4213 NONAME
 ?DrawItem@CHeaderCtrl@@UAEXPAUtagDRAWITEMSTRUCT@@@Z @ 4214 NONAME
 ?DrawItem@CListBox@@UAEXPAUtagDRAWITEMSTRUCT@@@Z @ 4215 NONAME
 ?DrawItem@CListCtrl@@UAEXPAUtagDRAWITEMSTRUCT@@@Z @ 4216 NONAME
 ?DrawItem@CListView@@UAEXPAUtagDRAWITEMSTRUCT@@@Z @ 4217 NONAME
 ?DrawItem@CMenu@@UAEXPAUtagDRAWITEMSTRUCT@@@Z @ 4218 NONAME
 ?DrawItem@CMFCButton@@UAEXPAUtagDRAWITEMSTRUCT@@@Z @ 4219 NONAME
 ?DrawItem@CMFCColorPickerCtrl@@MAEXPAUtagDRAWITEMSTRUCT@@@Z @ 4220 NONAME
 ?DrawItem@CMFCFontComboBox@@UAEXPAUtagDRAWITEMSTRUCT@@@Z @ 4221 NONAME
 ?DrawItem@CMFCImagePaintArea@@MAEXPAUtagDRAWITEMSTRUCT@@@Z @ 4222 NONAME
 ?DrawItem@CMFCPropertySheetListBox@@EAEXPAUtagDRAWITEMSTRUCT@@@Z @ 4223 NONAME
 ?DrawItem@CMFCRibbonCommandsListBox@@MAEXPAUtagDRAWITEMSTRUCT@@@Z @ 4224 NONAME
 ?DrawItem@CMFCToolBarButtonsListButton@@UAEXPAUtagDRAWITEMSTRUCT@@@Z @ 4225 NONAME
 ?DrawItem@CMFCToolBarsCommandsListBox@@UAEXPAUtagDRAWITEMSTRUCT@@@Z @ 4226 NONAME
 ?DrawItem@CStatic@@UAEXPAUtagDRAWITEMSTRUCT@@@Z @ 4227 NONAME
 ?DrawItem@CStatusBar@@UAEXPAUtagDRAWITEMSTRUCT@@@Z @ 4228 NONAME
 ?DrawItem@CStatusBarCtrl@@UAEXPAUtagDRAWITEMSTRUCT@@@Z @ 4229 NONAME
 ?DrawItem@CTabCtrl@@UAEXPAUtagDRAWITEMSTRUCT@@@Z @ 4230 NONAME
 ?DrawLine@CDrawingManager@@QAEXHHHHK@Z @ 4231 NONAME
 ?DrawLine@CRenderTarget@@QAEXABVCD2DPointF@@0PAVCD2DBrush@@MPAUID2D1StrokeStyle@@@Z @ 4232 NONAME
 ?DrawLineA@CDrawingManager@@QAEXNNNNK@Z @ 4233 NONAME
 ?DrawLuminanceBar@CMFCColorPickerCtrl@@IAEXPAVCDC@@@Z @ 4234 NONAME
 ?DrawMenuImage@CMFCRibbonBar@@QAEHPAVCDC@@PBVCMFCToolBarMenuButton@@ABVCRect@@@Z @ 4235 NONAME
 ?DrawMenuItem@CMFCToolBarMenuButton@@IAEXPAVCDC@@ABVCRect@@PAVCMFCToolBarImages@@HHHH@Z @ 4236 NONAME
 ?DrawMetafile@COleControl@@IAEXPAVCDC@@AAVCRect@@@Z @ 4237 NONAME
 ?DrawNcArea@CMFCControlBarImpl@@IAEXXZ @ 4238 NONAME
 ?DrawNcBtn@CMFCVisualManagerOffice2007@@IAEXPAVCDC@@ABVCRect@@IW4AFX_BUTTON_STATE@CMFCVisualManager@@HHH@Z @ 4239 NONAME
 ?DrawNcBtn@CMFCVisualManagerWindows7@@UAEXPAVCDC@@ABVCRect@@IW4AFX_BUTTON_STATE@CMFCVisualManager@@HHH@Z @ 4240 NONAME
 ?DrawNcCaption@CMFCVisualManagerOffice2007@@IAEXPAVCDC@@VCRect@@KKABV?$CStringT@DV?$StrTraitMFC_DLL@DV?$ChTraitsCRT@D@ATL@@@@@ATL@@2PAUHICON__@@HHHABVCObList@@@Z @ 4241 NONAME
 ?DrawNCGripper@CControlBar@@UAEXPAVCDC@@ABVCRect@@@Z @ 4242 NONAME
 ?DrawNcText@CMFCVisualManagerOffice2007@@IAEXPAVCDC@@AAVCRect@@ABV?$CStringT@DV?$StrTraitMFC_DLL@DV?$ChTraitsCRT@D@ATL@@@@@ATL@@2HHHHHHK@Z @ 4243 NONAME
 ?DrawNcText@CMFCVisualManagerWindows7@@UAEXPAVCDC@@AAVCRect@@ABV?$CStringT@DV?$StrTraitMFC_DLL@DV?$ChTraitsCRT@D@ATL@@@@@ATL@@HHHHHK@Z @ 4244 NONAME
 ?DrawNewGroupRect@CMDIClientAreaWnd@@AAEXPBUtagRECT@@0@Z @ 4245 NONAME
 ?DrawNonThemedGripper@CControlBar@@UAEHPAVCDC@@ABVCRect@@@Z @ 4246 NONAME
 ?DrawParentBackground@AFX_GLOBAL_DATA@@QAEHPAVCWnd@@PAVCDC@@PAUtagRECT@@@Z @ 4247 NONAME
 ?DrawPicker@CMFCColorPickerCtrl@@IAEXPAVCDC@@@Z @ 4248 NONAME
 ?DrawPixel@CMFCImagePaintArea@@IAEXUtagPOINT@@@Z @ 4249 NONAME
 ?DrawPushButton@CMFCBaseVisualManager@@UAEHPAVCDC@@VCRect@@PAVCMFCButton@@I@Z @ 4250 NONAME
 ?DrawRadioButton@CMFCBaseVisualManager@@UAEHPAVCDC@@VCRect@@HHHH@Z @ 4251 NONAME
 ?DrawRect@CDrawingManager@@QAEXABVCRect@@KK@Z @ 4252 NONAME
 ?DrawRectangle@CRenderTarget@@QAEXABVCD2DRectF@@PAVCD2DBrush@@MPAUID2D1StrokeStyle@@@Z @ 4253 NONAME
 ?DrawResizeDragRect@CMFCTabCtrl@@MAEXAAVCRect@@0@Z @ 4254 NONAME
 ?DrawRibbonText@CMFCRibbonButton@@UAEHPAVCDC@@ABV?$CStringT@DV?$StrTraitMFC_DLL@DV?$ChTraitsCRT@D@ATL@@@@@ATL@@VCRect@@IK@Z @ 4255 NONAME
 ?DrawRibbonText@CMFCRibbonStatusBarPane@@MAEHPAVCDC@@ABV?$CStringT@DV?$StrTraitMFC_DLL@DV?$ChTraitsCRT@D@ATL@@@@@ATL@@VCRect@@IK@Z @ 4256 NONAME
 ?DrawRotated@CDrawingManager@@QAEXVCRect@@AAVCDC@@H@Z @ 4257 NONAME
 ?DrawRoundedRectangle@CRenderTarget@@QAEXABVCD2DRoundedRect@@PAVCD2DBrush@@MPAUID2D1StrokeStyle@@@Z @ 4258 NONAME
 ?DrawSeparator@CMFCPopupMenuBar@@MAEXPAVCDC@@ABVCRect@@H@Z @ 4259 NONAME
 ?DrawSeparator@CMFCToolBar@@MAEXPAVCDC@@ABVCRect@@H@Z @ 4260 NONAME
 ?DrawSeparator@CMFCVisualManagerOffice2007@@IAEXPAVCDC@@ABVCRect@@AAVCPen@@2H@Z @ 4261 NONAME
 ?DrawSeparator@CMFCVisualManagerOffice2007@@IAEXPAVCDC@@ABVCRect@@H@Z @ 4262 NONAME
 ?DrawSeparator@CMFCVisualManagerWindows7@@UAEXPAVCDC@@ABVCRect@@AAVCPen@@2H@Z @ 4263 NONAME
 ?DrawShadow@CDrawingManager@@QAEHVCRect@@HHHPAVCBitmap@@1KH@Z @ 4264 NONAME
 ?DrawSingle@CDragListBox@@QAEXH@Z @ 4265 NONAME
 ?DrawStatusBarProgress@CMFCBaseVisualManager@@UAEHPAVCDC@@PAVCMFCStatusBar@@VCRect@@HHKKKH@Z @ 4266 NONAME
 ?DrawTabButton@CMFCOutlookBarTabCtrl@@IAEXAAVCDC@@HH@Z @ 4267 NONAME
 ?DrawTextA@CMetaFileDC@@UAEHPBDHPAUtagRECT@@I@Z @ 4268 NONAME
 ?DrawTextA@CPreviewDC@@UAEHPBDHPAUtagRECT@@I@Z @ 4269 NONAME
 ?DrawTextA@CRenderTarget@@QAEXABV?$CStringT@DV?$StrTraitMFC_DLL@DV?$ChTraitsCRT@D@ATL@@@@@ATL@@ABVCD2DRectF@@PAVCD2DBrush@@PAVCD2DTextFormat@@W4D2D1_DRAW_TEXT_OPTIONS@@W4DWRITE_MEASURING_MODE@@@Z @ 4270 NONAME
 ?DrawTextExA@CMetaFileDC@@UAEHPADHPAUtagRECT@@IPAUtagDRAWTEXTPARAMS@@@Z @ 4271 NONAME
 ?DrawTextExA@CPreviewDC@@UAEHPADHPAUtagRECT@@IPAUtagDRAWTEXTPARAMS@@@Z @ 4272 NONAME
 ?DrawTextLayout@CRenderTarget@@QAEXABVCD2DPointF@@PAVCD2DTextLayout@@PAVCD2DBrush@@W4D2D1_DRAW_TEXT_OPTIONS@@@Z @ 4273 NONAME
 ?DrawTextOnGlass@AFX_GLOBAL_DATA@@QAEHPAXPAVCDC@@HHV?$CStringT@DV?$StrTraitMFC_DLL@DV?$ChTraitsCRT@D@ATL@@@@@ATL@@VCRect@@KHK@Z @ 4274 NONAME
 ?DrawTextOnGlass@CMFCVisualManager@@UAEHPAVCDC@@V?$CStringT@DV?$StrTraitMFC_DLL@DV?$ChTraitsCRT@D@ATL@@@@@ATL@@VCRect@@KHK@Z @ 4275 NONAME
 ?DrawThemedGripper@CControlBar@@UAEHPAVCDC@@ABVCRect@@H@Z @ 4276 NONAME
 ?DrawToolIcon@CUserTool@@QAEXPAVCDC@@ABVCRect@@@Z @ 4277 NONAME
 ?DrawTrackerRect@CRectTracker@@UAEXPBUtagRECT@@PAVCWnd@@PAVCDC@@1@Z @ 4278 NONAME
 ?DrawY@CMFCVisualManagerBitmapCacheItem@CMFCVisualManagerBitmapCache@@QAEXPAVCDC@@VCRect@@VCSize@@HE@Z @ 4279 NONAME
 ?Drop@XDropTarget@COleDropTarget@@UAGJPAUIDataObject@@KU_POINTL@@PAK@Z @ 4280 NONAME
 ?DropDownList@CMFCRibbonComboBox@@MAEXXZ @ 4281 NONAME
 ?DropDownList@CMFCRibbonFontComboBox@@MAEXXZ @ 4282 NONAME
 ?DropDownMenu@CMFCToolBar@@IAEHPAVCMFCToolBarButton@@@Z @ 4283 NONAME
 ?DropDownToolbar@CMFCDropDownToolbarButton@@QAEHPAVCWnd@@@Z @ 4284 NONAME
 ?Dropped@CDragListBox@@UAEXHVCPoint@@@Z @ 4285 NONAME
 ?DumpAsHex@CDumpContext@@QAEAAV1@_J@Z @ 4286 NONAME
 ?DumpAsHex@CDumpContext@@QAEAAV1@_K@Z @ 4287 NONAME
 ?DumpAsHex@CDumpContext@@QAEAAV1@E@Z @ 4288 NONAME
 ?DumpAsHex@CDumpContext@@QAEAAV1@G@Z @ 4289 NONAME
 ?DumpAsHex@CDumpContext@@QAEAAV1@H@Z @ 4290 NONAME
 ?DumpAsHex@CDumpContext@@QAEAAV1@I@Z @ 4291 NONAME
 ?DumpAsHex@CDumpContext@@QAEAAV1@J@Z @ 4292 NONAME
 ?DumpAsHex@CDumpContext@@QAEAAV1@K@Z @ 4293 NONAME
 ?DUnadvise@XDataObject@COleControl@@UAGJK@Z @ 4294 NONAME
 ?DUnadvise@XDataObject@COleDataSource@@UAGJK@Z @ 4295 NONAME
 ?DUnadvise@XDataObject@COleServerDoc@@UAGJK@Z @ 4296 NONAME
 ?DUnadvise@XDataObject@COleServerItem@@UAGJK@Z @ 4297 NONAME
 ?Duplicate@CFile@@UBEPAV1@XZ @ 4298 NONAME
 ?Duplicate@CInternetFile@@UBEPAVCFile@@XZ @ 4299 NONAME
 ?Duplicate@CMemFile@@UBEPAVCFile@@XZ @ 4300 NONAME
 ?Duplicate@COleStreamFile@@UBEPAVCFile@@XZ @ 4301 NONAME
 ?Duplicate@CSocketFile@@UBEPAVCFile@@XZ @ 4302 NONAME
 ?Duplicate@CStdioFile@@UBEPAVCFile@@XZ @ 4303 NONAME
 ?DWMCompositionChanged@CMFCRibbonBar@@UAEXXZ @ 4304 NONAME
 ?dwStyleDefault@CEditView@@2KB @ 4305 NONAME DATA
 ?Edit@CDaoRecordset@@UAEXXZ @ 4306 NONAME
 ?Edit@CRecordset@@UAEXXZ @ 4307 NONAME
 ?EditItem@CMFCPropertyGridCtrl@@UAEHPAVCMFCPropertyGridProperty@@PAUtagPOINT@@@Z @ 4308 NONAME
 ?EditItem@CVSListBox@@UAEHH@Z @ 4309 NONAME
 ?EditProperty@XPropertyPage@COlePropertyPage@@UAGJJ@Z @ 4310 NONAME
 ?EditStreamCallBack@CRichEditView@@SGKKPAEJPAJ@Z @ 4311 NONAME
 ?ElementNameFromType@CMFCRibbonInfo@@SGPBDW4XElementType@1@@Z @ 4312 NONAME
 ?ElementTypeFromName@CMFCRibbonInfo@@SG?AW4XElementType@1@ABV?$CStringT@DV?$StrTraitMFC_DLL@DV?$ChTraitsCRT@D@ATL@@@@@ATL@@@Z @ 4313 NONAME
 ?Empty@?$CSimpleStringT@_W$00@ATL@@QAEXXZ @ 4314 NONAME
 ?Empty@?$CSimpleStringT@D$00@ATL@@QAEXXZ @ 4315 NONAME
 ?Empty@CDBException@@QAEXXZ @ 4316 NONAME
 ?Empty@CMFCZoomKernel@@QAEXXZ @ 4317 NONAME
 ?Empty@COleDataSource@@QAEXXZ @ 4318 NONAME
 ?Empty@XInfoError@CMFCRibbonInfo@@QAEXXZ @ 4319 NONAME
 ?Enable@CCheckListBox@@QAEXHH@Z @ 4320 NONAME
 ?Enable@CCmdUI@@UAEXH@Z @ 4321 NONAME
 ?Enable@CMFCColorBarCmdUI@@UAEXH@Z @ 4322 NONAME
 ?Enable@CMFCPropertyGridProperty@@QAEXH@Z @ 4323 NONAME
 ?Enable@CMFCRibbonCmdUI@@UAEXH@Z @ 4324 NONAME
 ?Enable@CMFCStatusBarCmdUI@@UAEXH@Z @ 4325 NONAME
 ?Enable@CMFCTasksPaneToolBarCmdUI@@UAEXH@Z @ 4326 NONAME
 ?Enable@CMFCToolBarCmdUI@@UAEXH@Z @ 4327 NONAME
 ?Enable@COleCmdUI@@UAEXH@Z @ 4328 NONAME
 ?Enable@CStatusCmdUI@@UAEXH@Z @ 4329 NONAME
 ?Enable@CTestCmdUI@@UAEXH@Z @ 4330 NONAME
 ?Enable@CToolCmdUI@@UAEXH@Z @ 4331 NONAME
 ?EnableAccessibilitySupport@AFX_GLOBAL_DATA@@QAEXH@Z @ 4332 NONAME
 ?EnableActiveTabCloseButton@CMFCTabCtrl@@QAEXH@Z @ 4333 NONAME
 ?EnableAggregation@CCmdTarget@@QAEXXZ @ 4334 NONAME
 ?EnableAnimation@CMFCOutlookBarTabCtrl@@SGXH@Z @ 4335 NONAME
 ?EnableAnimationManagerEvent@CAnimationController@@UAEHH@Z @ 4336 NONAME
 ?EnableAnimationTimerEventHandler@CAnimationController@@UAEHHW4__MIDL___MIDL_itf_UIAnimation_0000_0012_0001@@@Z @ 4337 NONAME
 ?EnableAutoColor@CMFCBaseTabCtrl@@QAEXH@Z @ 4338 NONAME
 ?EnableAutoHidePanes@CDockingManager@@QAEHK@Z @ 4339 NONAME
 ?EnableAutoHidePanes@CFrameWndEx@@QAEHK@Z @ 4340 NONAME
 ?EnableAutoHidePanes@CMDIChildWndEx@@QAEHK@Z @ 4341 NONAME
 ?EnableAutoHidePanes@CMDIFrameWndEx@@QAEHK@Z @ 4342 NONAME
 ?EnableAutoHidePanes@COleCntrFrameWndEx@@QAEHK@Z @ 4343 NONAME
 ?EnableAutoHidePanes@COleDocIPFrameWndEx@@QAEHK@Z @ 4344 NONAME
 ?EnableAutoHidePanes@COleIPFrameWndEx@@QAEHK@Z @ 4345 NONAME
 ?EnableAutomaticButton@CMFCColorBar@@QAEXPBDKH@Z @ 4346 NONAME
 ?EnableAutomaticButton@CMFCColorButton@@QAEXPBDKH@Z @ 4347 NONAME
 ?EnableAutomaticButton@CMFCColorMenuButton@@QAEXPBDKH@Z @ 4348 NONAME
 ?EnableAutomaticButton@CMFCPropertyGridColorProperty@@QAEXPBDKH@Z @ 4349 NONAME
 ?EnableAutomaticButton@CMFCRibbonColorButton@@QAEXPBDKH0HH@Z @ 4350 NONAME
 ?EnableAutomation@CCmdTarget@@QAEXXZ @ 4351 NONAME
 ?EnableBookmarks@CRecordset@@IAEXXZ @ 4352 NONAME
 ?EnableBrowseButton@CMFCEditBrowseCtrl@@QAEXH@Z @ 4353 NONAME
 ?EnableBrowseButton@CVSListBoxBase@@QAEXH@Z @ 4354 NONAME
 ?EnableButton@CDockablePane@@IAEXIH@Z @ 4355 NONAME
 ?EnableButton@CMFCCaptionBar@@QAEXH@Z @ 4356 NONAME
 ?EnableButton@CVSListBoxBase@@QAEHHH@Z @ 4357 NONAME
 ?EnableCheck@CMFCToolBarsListCheckBox@@QAEXHH@Z @ 4358 NONAME
 ?EnableConnections@CCmdTarget@@QAEXXZ @ 4359 NONAME
 ?EnableContextMenuItems@CMFCOutlookBarPane@@MAEHPAVCMFCToolBarButton@@PAVCMenu@@@Z @ 4360 NONAME
 ?EnableContextMenuItems@CMFCPopupMenuBar@@MAEHPAVCMFCToolBarButton@@PAVCMenu@@@Z @ 4361 NONAME
 ?EnableContextMenuItems@CMFCToolBar@@MAEHPAVCMFCToolBarButton@@PAVCMenu@@@Z @ 4362 NONAME
 ?EnableControls@CMFCToolBarButtonCustomizeDialog@@IAEXXZ @ 4363 NONAME
 ?EnableControls@CMFCToolBarsToolsPropertyPage@@IAEXXZ @ 4364 NONAME
 ?EnableCustomizeButton@CMFCToolBar@@QAEXHHABV?$CStringT@DV?$StrTraitMFC_DLL@DV?$ChTraitsCRT@D@ATL@@@@@ATL@@H@Z @ 4365 NONAME
 ?EnableCustomizeButton@CMFCToolBar@@QAEXHHIH@Z @ 4366 NONAME
 ?EnableCustomToolTips@CMFCBaseTabCtrl@@QAEHH@Z @ 4367 NONAME
 ?EnableD2DSupport@CWinApp@@QAEHW4D2D1_FACTORY_TYPE@@W4DWRITE_FACTORY_TYPE@@@Z @ 4368 NONAME
 ?EnableDblClkControls@CMFCMousePropertyPage@@IAEXH@Z @ 4370 NONAME
 ?EnableDescriptionArea@CMFCPropertyGridCtrl@@QAEXH@Z @ 4371 NONAME
 ?EnableDocking@CControlBar@@QAEXK@Z @ 4372 NONAME
 ?EnableDocking@CDockingManager@@QAEHK@Z @ 4373 NONAME
 ?EnableDocking@CFrameWnd@@QAEXK@Z @ 4374 NONAME
 ?EnableDocking@CFrameWndEx@@QAEHK@Z @ 4375 NONAME
 ?EnableDocking@CMDIChildWndEx@@QAEHK@Z @ 4376 NONAME
 ?EnableDocking@CMDIFrameWndEx@@QAEHK@Z @ 4377 NONAME
 ?EnableDocking@CMFCToolBar@@UAEXK@Z @ 4378 NONAME
 ?EnableDocking@COleCntrFrameWndEx@@QAEHK@Z @ 4379 NONAME
 ?EnableDocking@COleDocIPFrameWndEx@@QAEHK@Z @ 4380 NONAME
 ?EnableDocking@COleIPFrameWndEx@@QAEHK@Z @ 4381 NONAME
 ?EnableDocumentColors@CMFCColorMenuButton@@QAEXPBDH@Z @ 4382 NONAME
 ?EnableDSC@COleControlSite@@UAEXXZ @ 4383 NONAME
 ?EnableFolderBrowseButton@CMFCEditBrowseCtrl@@QAEXPBDI@Z @ 4385 NONAME
 ?EnableFullTextTooltip@CMFCButton@@QAEXH@Z @ 4386 NONAME
 ?EnableGripper@CDockablePane@@UAEXH@Z @ 4387 NONAME
 ?EnableGrippers@CPaneContainerManager@@UAEXH@Z @ 4388 NONAME
 ?EnableHeaderCtrl@CMFCPropertyGridCtrl@@QAEXHPBD0@Z @ 4389 NONAME
 ?EnableHelpCombobox@CMFCMenuBar@@QAEXIPBDH@Z @ 4390 NONAME
 ?EnableHistoryMenuButtons@CMFCTasksPane@@QAEXH@Z @ 4391 NONAME
 ?EnableInPlaceEdit@CMFCTabCtrl@@UAEXH@Z @ 4392 NONAME
 ?EnableIntegerValueChangedEvent@CAnimationBaseObject@@UAEXPAVCAnimationController@@H@Z @ 4393 NONAME
 ?EnableIntegerValueChangedEvent@CAnimationVariable@@QAEXPAVCAnimationController@@H@Z @ 4394 NONAME
 ?EnableKeyTips@CMFCRibbonBar@@QAEXH@Z @ 4395 NONAME
 ?EnableLargeIcons@CMFCToolBar@@QAEXH@Z @ 4396 NONAME
 ?EnableLaunchButton@CMFCRibbonPanel@@QAEXIHPBD@Z @ 4397 NONAME
 ?EnableMarkSortedColumn@CMFCListCtrl@@QAEXHH@Z @ 4398 NONAME
 ?EnableMask@CMFCMaskedEdit@@QAEXPBD0D0@Z @ 4399 NONAME
 ?EnableMDITabbedGroups@CMDIClientAreaWnd@@QAEXHABVCMDITabInfo@@@Z @ 4400 NONAME
 ?EnableMDITabbedGroups@CMDIFrameWndEx@@QAEXHABVCMDITabInfo@@@Z @ 4401 NONAME
 ?EnableMDITabs@CMDIClientAreaWnd@@QAEXHABVCMDITabInfo@@@Z @ 4402 NONAME
 ?EnableMDITabs@CMDIFrameWndEx@@QAEXHHW4Location@CMFCBaseTabCtrl@@HW4Style@CMFCTabCtrl@@HH@Z @ 4403 NONAME
 ?EnableMDITabsLastActiveActivation@CMDIClientAreaWnd@@QAEXH@Z @ 4404 NONAME
 ?EnableMenuFont@CMFCButton@@QAEXHH@Z @ 4405 NONAME
 ?EnableMenuItemImage@CCommandManager@@QAEXIHH@Z @ 4406 NONAME
 ?EnableMenuLogo@CMFCPopupMenu@@QAEXHW4LOGO_LOCATION@1@@Z @ 4407 NONAME
 ?EnableModeless@CBrowserControlSite@@MAGJH@Z @ 4408 NONAME
 ?EnableModeless@CDHtmlDialog@@UAGJH@Z @ 4409 NONAME
 ?EnableModeless@CWinApp@@QAEXH@Z @ 4410 NONAME
 ?EnableModeless@XDocHostUIHandler@CHtmlControlSite@@UAGJH@Z @ 4411 NONAME
 ?EnableModeless@XOleInPlaceActiveObject@COleControl@@UAGJH@Z @ 4412 NONAME
 ?EnableModeless@XOleInPlaceActiveObject@COleServerDoc@@UAGJH@Z @ 4413 NONAME
 ?EnableModeless@XOleInPlaceFrame@COleFrameHook@@UAGJH@Z @ 4414 NONAME
 ?EnableModeless@XOleIPFrame@COleControlContainer@@UAGJH@Z @ 4415 NONAME
 ?EnableMultipleSort@CMFCHeaderCtrl@@QAEXH@Z @ 4416 NONAME
 ?EnableMultipleSort@CMFCListCtrl@@QAEXH@Z @ 4417 NONAME
 ?EnableNavigationToolbar@CMFCTasksPane@@QAEXHIVCSize@@0@Z @ 4418 NONAME
 ?EnableOpenDropDown@CFileDialog@@QAEJK@Z @ 4419 NONAME
 ?EnableOtherButton@CMFCColorBar@@QAEXPBDHH@Z @ 4420 NONAME
 ?EnableOtherButton@CMFCColorButton@@QAEXPBDHH@Z @ 4421 NONAME
 ?EnableOtherButton@CMFCColorMenuButton@@QAEXPBDHH@Z @ 4422 NONAME
 ?EnableOtherButton@CMFCPropertyGridColorProperty@@QAEXPBDHH@Z @ 4423 NONAME
 ?EnableOtherButton@CMFCRibbonColorButton@@QAEXPBD0@Z @ 4424 NONAME
 ?EnablePageHeader@CMFCPropertySheet@@QAEXH@Z @ 4425 NONAME
 ?EnablePan@CGestureConfig@@QAEXHK@Z @ 4426 NONAME
 ?EnablePaneContextMenu@CDockingManager@@QAEXHIABV?$CStringT@DV?$StrTraitMFC_DLL@DV?$ChTraitsCRT@D@ATL@@@@@ATL@@H@Z @ 4427 NONAME
 ?EnablePaneDoubleClick@CMFCStatusBar@@QAEXH@Z @ 4428 NONAME
 ?EnablePaneProgressBar@CMFCStatusBar@@QAEXHJHKKK@Z @ 4429 NONAME
 ?EnablePressAndTap@CGestureConfig@@QAEXH@Z @ 4430 NONAME
 ?EnablePrintPreview@CMFCRibbonBar@@QAEXH@Z @ 4431 NONAME
 ?EnablePriorityComparisonHandler@CAnimationController@@UAEHK@Z @ 4432 NONAME
 ?EnableResize@CMFCPopupMenu@@QAEXVCSize@@@Z @ 4433 NONAME
 ?EnableRotate@CGestureConfig@@QAEXH@Z @ 4434 NONAME
 ?EnableRTL@CMFCToolBarImages@@SGXH@Z @ 4435 NONAME
 ?EnableScrollBarCtrl@CWnd@@QAEXHH@Z @ 4436 NONAME
 ?EnableScrollButtons@CMFCOutlookBarTabCtrl@@QAEXHHH@Z @ 4437 NONAME
 ?EnableShellContextMenu@CMFCShellListCtrl@@QAEXH@Z @ 4438 NONAME
 ?EnableShellContextMenu@CMFCShellTreeCtrl@@QAEXH@Z @ 4439 NONAME
 ?EnableShellOpen@CWinApp@@IAEXXZ @ 4440 NONAME
 ?EnableSimpleFrame@COleControl@@QAEXXZ @ 4441 NONAME
 ?EnableSpinButtons@CMFCRibbonEdit@@QAEXHH@Z @ 4442 NONAME
 ?EnableSpinControl@CMFCPropertyGridProperty@@QAEXHHH@Z @ 4443 NONAME
 ?EnableStackedTabs@CPropertySheet@@QAEXH@Z @ 4444 NONAME
 ?EnableStatusCallback@CInternetSession@@QAEHH@Z @ 4445 NONAME
 ?EnableStoryboardEventHandler@CAnimationController@@UAEHIH@Z @ 4446 NONAME
 ?EnableTabAutoColor@CTabbedPane@@SGXH@Z @ 4447 NONAME
 ?EnableTabDetach@CMFCBaseTabCtrl@@UAEHHH@Z @ 4448 NONAME
 ?EnableTabDocumentsMenu@CMFCTabCtrl@@QAEXH@Z @ 4449 NONAME
 ?EnableTaskbarInteraction@CWinApp@@QAEHH@Z @ 4450 NONAME
 ?EnableTaskbarThumbnailClipRect@CMDIChildWndEx@@QAEXH@Z @ 4451 NONAME
 ?EnableTearOff@CMFCColorMenuButton@@QAEXIHH@Z @ 4452 NONAME
 ?EnableTearOffMenus@CWinAppEx@@QAEHPBDII@Z @ 4453 NONAME
 ?EnableTextLabels@CMFCToolBar@@QAEXH@Z @ 4454 NONAME
 ?EnableTooltipInfoShortcut@CMFCRibbonBaseElement@@QAEXH@Z @ 4455 NONAME
 ?EnableToolTips@CMFCRibbonBar@@QAEXHH@Z @ 4456 NONAME
 ?EnableToolTips@CWnd@@QAEHH@Z @ 4457 NONAME
 ?EnableTrackingToolTips@CWnd@@QAEHH@Z @ 4458 NONAME
 ?EnableTwoFingerTap@CGestureConfig@@QAEXH@Z @ 4459 NONAME
 ?EnableTypeLib@CCmdTarget@@QAEXXZ @ 4460 NONAME
 ?EnableUpdateTooltipInfo@CMFCRibbonBaseElement@@QAEXH@Z @ 4461 NONAME
 ?EnableUserDefinedToolbars@CMFCToolBarsCustomizeDialog@@QAEXH@Z @ 4462 NONAME
 ?EnableUserTools@CWinAppEx@@QAEHIIIPAUCRuntimeClass@@II@Z @ 4463 NONAME
 ?EnableValueChangedEvent@CAnimationBaseObject@@UAEXPAVCAnimationController@@H@Z @ 4464 NONAME
 ?EnableValueChangedEvent@CAnimationVariable@@QAEXPAVCAnimationController@@H@Z @ 4465 NONAME
 ?EnableVertResize@CMFCPopupMenu@@QAEXH@Z @ 4466 NONAME
 ?EnableWindow@COleControlSite@@UAEHH@Z @ 4467 NONAME
 ?EnableWindow@CWnd@@QAEHH@Z @ 4468 NONAME
 ?EnableWindowsDialog@CMDIFrameWndEx@@QAEXIIHH@Z @ 4469 NONAME
 ?EnableWindowsDialog@CMDIFrameWndEx@@QAEXIPBDHH@Z @ 4470 NONAME
 ?EnableWindowsTheming@CMFCButton@@SGXH@Z @ 4471 NONAME
 ?EnableZoom@CGestureConfig@@QAEXH@Z @ 4472 NONAME
 ?EndBusyState@COleMessageFilter@@UAEXXZ @ 4473 NONAME
 ?EndCallbacks@CAsyncMonikerFile@@IAEXXZ @ 4474 NONAME
 ?EndDeferErrors@COleLinkingDoc@@QAEJJ@Z @ 4475 NONAME
 ?EndDialog@CDialog@@QAEXH@Z @ 4476 NONAME
 ?EndDialog@CPropertyPage@@QAEXH@Z @ 4477 NONAME
 ?EndDialog@CPropertySheet@@QAEXH@Z @ 4478 NONAME
 ?EndDrag@CDockContext@@QAEXXZ @ 4479 NONAME
 ?EndDraw@CRenderTarget@@QAEJXZ @ 4480 NONAME
 ?EndDrawDragFrame@CMFCDragFrameImpl@@QAEXH@Z @ 4481 NONAME
 ?EndDrawImage@CMFCToolBarImages@@QAEXAAUtagAFXDrawState@@@Z @ 4482 NONAME
 ?EndEditItem@CMFCPropertyGridCtrl@@UAEHH@Z @ 4483 NONAME
 ?EndFigure@CD2DGeometrySink@@QAEXW4D2D1_FIGURE_END@@@Z @ 4484 NONAME
 ?EndModalLoop@CWnd@@UAEXH@Z @ 4485 NONAME
 ?EndModalState@CFrameWnd@@UAEXXZ @ 4486 NONAME
 ?EndRequest@CHttpFile@@QAEHKPAU_INTERNET_BUFFERSA@@K@Z @ 4487 NONAME
 ?EndResize@CDockContext@@QAEXXZ @ 4488 NONAME
 ?EndVisualGroup@CFileDialog@@QAEJXZ @ 4489 NONAME
 ?EndWaitCursor@CCmdTarget@@QAEXXZ @ 4490 NONAME
 ?EnsureClipboardObject@COleDataObject@@QAEXXZ @ 4491 NONAME
 ?EnsureSchemaMapExists@CArchive@@QAEXPAPAV?$CArray@W4LoadArrayObjType@CArchive@@ABW412@@@@Z @ 4492 NONAME
 ?EnsureStdObj@CWnd@@UAEJXZ @ 4493 NONAME
 ?EnsureVisible@CMFCOutlookBarPaneList@@AAEXH@Z @ 4494 NONAME
 ?EnsureVisible@CMFCPropertyGridCtrl@@QAEXPAVCMFCPropertyGridProperty@@H@Z @ 4495 NONAME
 ?EnsureVisible@CMFCRibbonCategory@@IAEXPAVCMFCRibbonButton@@@Z @ 4496 NONAME
 ?EnsureVisible@CMFCTabCtrl@@UAEHH@Z @ 4497 NONAME
 ?EnterDragMode@CDockablePane@@MAEXH@Z @ 4498 NONAME
 ?EnterDragMode@CMFCBaseTabCtrl@@QAEXXZ @ 4499 NONAME
 ?EnterDragMode@CPane@@MAEXH@Z @ 4500 NONAME
 ?EnterDragMode@CPaneFrameWnd@@MAEXPAUHWND__@@@Z @ 4501 NONAME
 ?EnumAdvise@XOleObject@CDocObjectServer@@UAGJPAPAUIEnumSTATDATA@@@Z @ 4502 NONAME
 ?EnumAdvise@XOleObject@COleControl@@UAGJPAPAUIEnumSTATDATA@@@Z @ 4503 NONAME
 ?EnumAdvise@XOleObject@COleServerDoc@@UAGJPAPAUIEnumSTATDATA@@@Z @ 4504 NONAME
 ?EnumAdvise@XOleObject@COleServerItem@@UAGJPAPAUIEnumSTATDATA@@@Z @ 4505 NONAME
 ?EnumCache@XOleCache@COleControl@@UAGJPAPAUIEnumSTATDATA@@@Z @ 4506 NONAME
 ?EnumChildProc@COlePropertyPage@@KGHPAUHWND__@@J@Z @ 4507 NONAME
 ?EnumConnectionPoints@COleConnPtContainer@@UAGJPAPAUIEnumConnectionPoints@@@Z @ 4508 NONAME
 ?EnumConnections@XConnPt@CConnectionPoint@@UAGJPAPAUIEnumConnections@@@Z @ 4509 NONAME
 ?EnumControls@COlePropertyPage@@KGHPAUHWND__@@J@Z @ 4510 NONAME
 ?EnumDAdvise@XDataObject@COleControl@@UAGJPAPAUIEnumSTATDATA@@@Z @ 4511 NONAME
 ?EnumDAdvise@XDataObject@COleDataSource@@UAGJPAPAUIEnumSTATDATA@@@Z @ 4512 NONAME
 ?EnumDAdvise@XDataObject@COleServerDoc@@UAGJPAPAUIEnumSTATDATA@@@Z @ 4513 NONAME
 ?EnumDAdvise@XDataObject@COleServerItem@@UAGJPAPAUIEnumSTATDATA@@@Z @ 4514 NONAME
 ?EnumFamPrinterCallBackEx@CMFCToolBarFontComboBox@@KGHPAUtagENUMLOGFONTEXA@@PAUtagNEWTEXTMETRICEXA@@HPAX@Z @ 4515 NONAME
 ?EnumFamScreenCallBackEx@CMFCToolBarFontComboBox@@KGHPAUtagENUMLOGFONTEXA@@PAUtagNEWTEXTMETRICEXA@@HPAX@Z @ 4516 NONAME
 ?EnumFormatEtc@XDataObject@COleControl@@UAGJKPAPAUIEnumFORMATETC@@@Z @ 4517 NONAME
 ?EnumFormatEtc@XDataObject@COleDataSource@@UAGJKPAPAUIEnumFORMATETC@@@Z @ 4518 NONAME
 ?EnumFormatEtc@XDataObject@COleServerDoc@@UAGJKPAPAUIEnumFORMATETC@@@Z @ 4519 NONAME
 ?EnumFormatEtc@XDataObject@COleServerItem@@UAGJKPAPAUIEnumFORMATETC@@@Z @ 4520 NONAME
 ?EnumObjects@CMFCShellListCtrl@@MAEJPAUIShellFolder@@PAU_ITEMIDLIST@@@Z @ 4521 NONAME
 ?EnumObjects@CMFCShellTreeCtrl@@MAEJPAU_TREEITEM@@PAUIShellFolder@@PAU_ITEMIDLIST@@@Z @ 4522 NONAME
 ?EnumObjects@XOleContainer@COleControlContainer@@UAGJKPAPAUIEnumUnknown@@@Z @ 4523 NONAME
 ?EnumObjects@XOleItemContainer@COleLinkingDoc@@UAGJKPAPAUIEnumUnknown@@@Z @ 4524 NONAME
 ?EnumOleVerbs@CCmdTarget@@QAEHPAPAUIEnumOLEVERB@@@Z @ 4525 NONAME
 ?EnumSizeCallBack@CMFCToolBarFontSizeComboBox@@KGHPAUtagLOGFONTA@@PAUtagNEWTEXTMETRICA@@HPAX@Z @ 4526 NONAME
 ?EnumVerbs@XOleObject@CDocObjectServer@@UAGJPAPAUIEnumOLEVERB@@@Z @ 4527 NONAME
 ?EnumVerbs@XOleObject@COleControl@@UAGJPAPAUIEnumOLEVERB@@@Z @ 4528 NONAME
 ?EnumVerbs@XOleObject@COleServerDoc@@UAGJPAPAUIEnumOLEVERB@@@Z @ 4529 NONAME
 ?EnumVerbs@XOleObject@COleServerItem@@UAGJPAPAUIEnumOLEVERB@@@Z @ 4530 NONAME
 ?EnumViews@XOleDocument@CDocObjectServer@@UAGJPAPAUIEnumOleDocumentViews@@PAPAUIOleDocumentView@@@Z @ 4531 NONAME
 ?EraseNonClient@CControlBar@@QAEXXZ @ 4532 NONAME
 ?ErrnoToException@CFileException@@SGHH@Z @ 4533 NONAME
 ?ErrorDlg@CHttpFile@@QAEKPAVCWnd@@KKPAPAX@Z @ 4534 NONAME
 ?Escape@CMetaFileDC@@UAEHHHPBDPAX@Z @ 4535 NONAME
 ?Escape@CPreviewDC@@UAEHHHPBDPAX@Z @ 4536 NONAME
 ?ExchangeBlobProp@CArchivePropExchange@@UAEHPBDPAPAXPAX@Z @ 4537 NONAME
 ?ExchangeBlobProp@CAsyncPropExchange@@UAEHPBDPAPAXPAX@Z @ 4538 NONAME
 ?ExchangeBlobProp@CPropbagPropExchange@@UAEHPBDPAPAXPAX@Z @ 4539 NONAME
 ?ExchangeBlobProp@CPropsetPropExchange@@UAEHPBDPAPAXPAX@Z @ 4540 NONAME
 ?ExchangeBlobProp@CResetPropExchange@@UAEHPBDPAPAXPAX@Z @ 4541 NONAME
 ?ExchangeExtent@COleControl@@QAEHPAVCPropExchange@@@Z @ 4542 NONAME
 ?ExchangeFontProp@CArchivePropExchange@@UAEHPBDAAVCFontHolder@@PBUtagFONTDESC@@PAUIFontDisp@@@Z @ 4543 NONAME
 ?ExchangeFontProp@CAsyncPropExchange@@UAEHPBDAAVCFontHolder@@PBUtagFONTDESC@@PAUIFontDisp@@@Z @ 4544 NONAME
 ?ExchangeFontProp@CPropbagPropExchange@@UAEHPBDAAVCFontHolder@@PBUtagFONTDESC@@PAUIFontDisp@@@Z @ 4545 NONAME
 ?ExchangeFontProp@CPropsetPropExchange@@UAEHPBDAAVCFontHolder@@PBUtagFONTDESC@@PAUIFontDisp@@@Z @ 4546 NONAME
 ?ExchangeFontProp@CResetPropExchange@@UAEHPBDAAVCFontHolder@@PBUtagFONTDESC@@PAUIFontDisp@@@Z @ 4547 NONAME
 ?ExchangePersistentProp@CArchivePropExchange@@UAEHPBDPAPAUIUnknown@@ABU_GUID@@PAU2@@Z @ 4548 NONAME
 ?ExchangePersistentProp@CAsyncPropExchange@@UAEHPBDPAPAUIUnknown@@ABU_GUID@@PAU2@@Z @ 4549 NONAME
 ?ExchangePersistentProp@CPropbagPropExchange@@UAEHPBDPAPAUIUnknown@@ABU_GUID@@PAU2@@Z @ 4550 NONAME
 ?ExchangePersistentProp@CPropsetPropExchange@@UAEHPBDPAPAUIUnknown@@ABU_GUID@@PAU2@@Z @ 4551 NONAME
 ?ExchangePersistentProp@CResetPropExchange@@UAEHPBDPAPAUIUnknown@@ABU_GUID@@PAU2@@Z @ 4552 NONAME
 ?ExchangeProp@CArchivePropExchange@@UAEHPBDGPAXPBX@Z @ 4553 NONAME
 ?ExchangeProp@CAsyncPropExchange@@UAEHPBDGPAXPBX@Z @ 4554 NONAME
 ?ExchangeProp@CPropbagPropExchange@@UAEHPBDGPAXPBX@Z @ 4555 NONAME
 ?ExchangeProp@CPropsetPropExchange@@UAEHPBDGPAXPBX@Z @ 4556 NONAME
 ?ExchangeProp@CResetPropExchange@@UAEHPBDGPAXPBX@Z @ 4557 NONAME
 ?ExchangeStockProps@COleControl@@QAEXPAVCPropExchange@@@Z @ 4558 NONAME
 ?ExchangeVersion@CAsyncPropExchange@@UAEHAAKKH@Z @ 4559 NONAME
 ?ExchangeVersion@CPropExchange@@UAEHAAKKH@Z @ 4560 NONAME
 ?ExcludeClipRect@CDC@@QAEHHHHH@Z @ 4561 NONAME
 ?ExcludeClipRect@CDC@@QAEHPBUtagRECT@@@Z @ 4562 NONAME
 ?ExcludeTag@AFX_GLOBAL_DATA@@QAEHAAV?$CStringT@DV?$StrTraitMFC_DLL@DV?$ChTraitsCRT@D@ATL@@@@@ATL@@PBD0H@Z @ 4563 NONAME
 ?ExcludeTag@CTagManager@@QAEHPBDAAV?$CStringT@DV?$StrTraitMFC_DLL@DV?$ChTraitsCRT@D@ATL@@@@@ATL@@H@Z @ 4564 NONAME
 ?Exec@XOleCommandTarget@CDocObjectServer@@UAGJPBU_GUID@@KKPAUtagVARIANT@@1@Z @ 4565 NONAME
 ?Exec@XOleCommandTarget@COleFrameHook@@UAGJPBU_GUID@@KKPAUtagVARIANT@@1@Z @ 4566 NONAME
 ?ExecCommand@COleDocObjectItem@@QAEJKKPBU_GUID@@@Z @ 4567 NONAME
 ?ExecFormsCommand@CHtmlView@@QAEJKPAUtagVARIANT@@0@Z @ 4568 NONAME
 ?ExecHandler@CHtmlEditView@@UAEHI@Z @ 4569 NONAME
 ?Execute@CDaoDatabase@@QAEXPBDH@Z @ 4570 NONAME
 ?Execute@CDaoQueryDef@@UAEXH@Z @ 4571 NONAME
 ?ExecuteDlgInit@CWnd@@QAEHPAX@Z @ 4572 NONAME
 ?ExecuteDlgInit@CWnd@@QAEHPBD@Z @ 4573 NONAME
 ?ExecuteSetPosUpdate@CRecordset@@IAEXXZ @ 4574 NONAME
 ?ExecuteSQL@CDatabase@@QAEXPBD@Z @ 4575 NONAME
 ?ExecuteUpdateSQL@CRecordset@@IAEXXZ @ 4576 NONAME
 ?ExecWB@CHtmlView@@QAEXW4OLECMDID@@W4OLECMDEXECOPT@@PAUtagVARIANT@@2@Z @ 4577 NONAME
 ?ExitHelpMode@CFrameWnd@@UAEXXZ @ 4578 NONAME
 ?ExitInstance@COleControlModule@@UAEHXZ @ 4579 NONAME
 ?ExitInstance@CWinApp@@UAEHXZ @ 4580 NONAME
 ?ExitInstance@CWinAppEx@@UAEHXZ @ 4581 NONAME
 ?ExitInstance@CWinThread@@UAEHXZ @ 4582 NONAME
 ?Expand@CMFCPropertyGridProperty@@QAEXH@Z @ 4583 NONAME
 ?ExpandAll@CMFCPropertyGridCtrl@@QAEXH@Z @ 4584 NONAME
 ?ExpandDeep@CMFCPropertyGridProperty@@IAEXH@Z @ 4585 NONAME
 ?ExpandStretchedPanes@CDockingPanesRow@@QAEXXZ @ 4586 NONAME
 ?ExpandStretchedPanesRect@CDockingPanesRow@@QAEXXZ @ 4587 NONAME
 ?ExportToMenu@CMFCPopupMenuBar@@UBEPAUHMENU__@@XZ @ 4588 NONAME
 ?ExportToMenuButton@CMFCDropDownToolbarButton@@UBEHAAVCMFCToolBarMenuButton@@@Z @ 4589 NONAME
 ?ExportToMenuButton@CMFCToolBarButton@@UBEHAAVCMFCToolBarMenuButton@@@Z @ 4590 NONAME
 ?ExportToMenuButton@CMFCToolBarComboBoxButton@@UBEHAAVCMFCToolBarMenuButton@@@Z @ 4591 NONAME
 ?ExportToMenuButton@CMFCToolBarDateTimeCtrl@@UBEHAAVCMFCToolBarMenuButton@@@Z @ 4592 NONAME
 ?ExtendMenuButton@CMFCVisualManagerOfficeXP@@MAEXPAVCMFCToolBarMenuButton@@AAVCRect@@@Z @ 4593 NONAME
 ?ExternalAddRef@CCmdTarget@@QAEKXZ @ 4594 NONAME
 ?ExternalDisconnect@CCmdTarget@@QAEXXZ @ 4595 NONAME
 ?ExternalQueryInterface@CCmdTarget@@QAEKPBXPAPAX@Z @ 4596 NONAME
 ?ExternalRelease@CCmdTarget@@QAEKXZ @ 4597 NONAME
 ?ExtractIconA@CMFCToolBarImages@@QAEPAUHICON__@@H@Z @ 4598 NONAME
 ?ExtTextOutA@CMetaFileDC@@UAEHHHIPBUtagRECT@@PBDIPAH@Z @ 4599 NONAME
 ?ExtTextOutA@CPreviewDC@@UAEHHHIPBUtagRECT@@PBDIPAH@Z @ 4600 NONAME
 ?Fail@CDataExchange@@QAEXXZ @ 4601 NONAME
 ?FailedToDo@XNotifyDBEvents@COleControlSite@@UAGJKKQAUtagDBNOTIFYREASON@@@Z @ 4602 NONAME
 ?FetchData@CRecordset@@QAEFGJPAK@Z @ 4603 NONAME
 ?Fill4ColorsGradient@CDrawingManager@@QAEXVCRect@@KKKKHH@Z @ 4604 NONAME
 ?FillAllCommandsList@CMFCToolBarsCustomizeDialog@@UBEXAAVCListBox@@@Z @ 4605 NONAME
 ?FillAlpha@CDrawingManager@@QAEXABVCRect@@E@Z @ 4606 NONAME
 ?FillBuffer@CArchive@@QAEXI@Z @ 4607 NONAME
 ?FillCache@CDaoRecordset@@QAEXPAJPAVCOleVariant@@@Z @ 4608 NONAME
 ?FillCategoriesComboBox@CMFCToolBarsCustomizeDialog@@QBEXAAVCComboBox@@H@Z @ 4609 NONAME
 ?FillCategoriesListBox@CMFCToolBarsCustomizeDialog@@QBEXAAVCListBox@@H@Z @ 4610 NONAME
 ?FillContainsPoint@CD2DGeometry@@QBEHVCD2DPointF@@ABUD2D_MATRIX_3X2_F@@PAHM@Z @ 4611 NONAME
 ?FillDatabaseInfo@CDaoWorkspace@@IAEXPAUDAODatabase@@AAUCDaoDatabaseInfo@@K@Z @ 4612 NONAME
 ?FillDefaultTabsOrderArray@CBaseTabbedPane@@QAEXXZ @ 4613 NONAME
 ?FillDitheredRect@CMFCToolBarImages@@SGXPAVCDC@@ABVCRect@@@Z @ 4614 NONAME
 ?FillEllipse@CRenderTarget@@QAEXABVCD2DEllipse@@PAVCD2DBrush@@@Z @ 4615 NONAME
 ?FillErrorInfo@CDaoException@@IAEXXZ @ 4616 NONAME
 ?FillFromArray@CMFCRibbonCommandsListBox@@QAEXABV?$CArray@PAVCMFCRibbonBaseElement@@PAV1@@@HH@Z @ 4617 NONAME
 ?FillFromCategory@CMFCRibbonCommandsListBox@@QAEXPAVCMFCRibbonCategory@@@Z @ 4618 NONAME
 ?FillFromIDs@CMFCRibbonCommandsListBox@@QAEXABV?$CList@II@@H@Z @ 4619 NONAME
 ?FillGeometry@CRenderTarget@@QAEXPAVCD2DGeometry@@PAVCD2DBrush@@1@Z @ 4620 NONAME
 ?FillGradient@CDrawingManager@@QAEXVCRect@@KKHHH@Z @ 4621 NONAME
 ?FillGradient2@CDrawingManager@@QAEXVCRect@@KKH@Z @ 4622 NONAME
 ?FillInLogFont@CFontDialog@@QAEKABU_charformat@@@Z @ 4623 NONAME
 ?FillInterior@CMFCControlRenderer@@UAEXPAVCDC@@VCRect@@IE@Z @ 4624 NONAME
 ?FillInterior@CMFCControlRenderer@@UAEXPAVCDC@@VCRect@@W4ImageAlignHorz@CMFCToolBarImages@@W4ImageAlignVert@5@IE@Z @ 4625 NONAME
 ?FillInterior@CMFCToolBarButton@@IAEXPAVCDC@@ABVCRect@@HH@Z @ 4626 NONAME
 ?FillInToolInfo@CToolTipCtrl@@QBEXAAUtagTOOLINFOA@@PAVCWnd@@I@Z @ 4627 NONAME
 ?FillList@CMFCRibbonRecentFilesList@@QAEXXZ @ 4628 NONAME
 ?FillListSitesOrWnds@COleControlContainer@@UAEHPAU_AFX_OCC_DIALOG_INFO@@@Z @ 4629 NONAME
 ?FillMesh@CRenderTarget@@QAEXPAVCD2DMesh@@PAVCD2DBrush@@@Z @ 4630 NONAME
 ?FillOpacityMask@CRenderTarget@@QAEXPAVCD2DBitmap@@PAVCD2DBrush@@W4D2D1_OPACITY_MASK_CONTENT@@ABVCD2DRectF@@3@Z @ 4631 NONAME
 ?FillOutsideRect@CScrollView@@QAEXPAVCDC@@PAVCBrush@@@Z @ 4632 NONAME
 ?FillParameterInfo@CDaoQueryDef@@IAEXPAUDAOParameter@@AAUCDaoParameterInfo@@K@Z @ 4633 NONAME
 ?FillQueryDefInfo@CDaoDatabase@@IAEXPAU_DAOQueryDef@@AAUCDaoQueryDefInfo@@K@Z @ 4634 NONAME
 ?FillReBarPane@CMFCBaseVisualManager@@UAEXPAVCDC@@PAVCBasePane@@VCRect@@@Z @ 4635 NONAME
 ?FillRectangle@CRenderTarget@@QAEXABVCD2DRectF@@PAVCD2DBrush@@@Z @ 4636 NONAME
 ?FillRelationInfo@CDaoDatabase@@IAEXPAU_DAORelation@@AAUCDaoRelationInfo@@K@Z @ 4637 NONAME
 ?FillRoundedRectangle@CRenderTarget@@QAEXABVCD2DRoundedRect@@PAVCD2DBrush@@@Z @ 4638 NONAME
 ?FillSolidRect@CDC@@QAEXHHHHK@Z @ 4639 NONAME
 ?FillSolidRect@CDC@@QAEXPBUtagRECT@@K@Z @ 4640 NONAME
 ?FillTableDefInfo@CDaoDatabase@@IAEXPAU_DAOTableDef@@AAUCDaoTableDefInfo@@K@Z @ 4641 NONAME
 ?FillVariant@CDaoFieldExchange@@SGXPAXKPAPAVCOleVariant@@@Z @ 4642 NONAME
 ?FillWindowList@CMFCRibbonButton@@IAEXXZ @ 4643 NONAME
 ?FillWindowList@CMFCWindowsManagerDialog@@IAEXXZ @ 4644 NONAME
 ?FillWorkspaceInfo@CDaoWorkspace@@IAEXPAUDAOWorkspace@@AAUCDaoWorkspaceInfo@@K@Z @ 4645 NONAME
 ?Filter@CMFCZoomKernel@@SANW4XFilterType@1@N@Z @ 4646 NONAME
 ?FilterDataObject@CBrowserControlSite@@MAGJPAUIDataObject@@PAPAU2@@Z @ 4647 NONAME
 ?FilterDataObject@CDHtmlDialog@@UAGJPAUIDataObject@@PAPAU2@@Z @ 4648 NONAME
 ?FilterDataObject@XDocHostUIHandler@CHtmlControlSite@@UAGJPAUIDataObject@@PAPAU3@@Z @ 4649 NONAME
 ?FilterProc@CMFCZoomKernel@@SAP6ANN@ZW4XFilterType@1@@Z @ 4650 NONAME
 ?FilterToolTipMessage@CWnd@@QAEXPAUtagMSG@@@Z @ 4651 NONAME
 ?FilterWidth@CMFCZoomKernel@@SANW4XFilterType@1@@Z @ 4652 NONAME
 ?Find@?$CStringT@_WV?$StrTraitMFC_DLL@_WV?$ChTraitsCRT@_W@ATL@@@@@ATL@@QBEH_WH@Z @ 4653 NONAME
 ?Find@?$CStringT@_WV?$StrTraitMFC_DLL@_WV?$ChTraitsCRT@_W@ATL@@@@@ATL@@QBEHPB_WH@Z @ 4654 NONAME
 ?Find@?$CStringT@DV?$StrTraitMFC_DLL@DV?$ChTraitsCRT@D@ATL@@@@@ATL@@QBEHDH@Z @ 4655 NONAME
 ?Find@?$CStringT@DV?$StrTraitMFC_DLL@DV?$ChTraitsCRT@D@ATL@@@@@ATL@@QBEHPBDH@Z @ 4656 NONAME
 ?Find@CDaoRecordset@@UAEHJPBD@Z @ 4657 NONAME
 ?Find@CMFCRibbonBaseElement@@UAEPAV1@PBV1@@Z @ 4658 NONAME
 ?Find@CMFCRibbonButtonsGroup@@MAEPAVCMFCRibbonBaseElement@@PBV2@@Z @ 4659 NONAME
 ?Find@CObList@@QBEPAU__POSITION@@PAVCObject@@PAU2@@Z @ 4660 NONAME
 ?Find@CPtrList@@QBEPAU__POSITION@@PAXPAU2@@Z @ 4661 NONAME
 ?Find@CStringList@@QBEPAU__POSITION@@PBDPAU2@@Z @ 4662 NONAME
 ?FindActiveTabWnd@CMDIClientAreaWnd@@QAEPAVCMFCTabCtrl@@XZ @ 4663 NONAME
 ?FindActiveTabWndByActiveChild@CMDIClientAreaWnd@@QAEPAVCMFCTabCtrl@@XZ @ 4664 NONAME
 ?FindAndSelect@CRichEditView@@QAEJKAAU_findtextexa@@@Z @ 4665 NONAME
 ?FindAnimationGroup@CAnimationController@@QAEPAVCAnimationGroup@@I@Z @ 4666 NONAME
 ?FindAnimationGroup@CAnimationController@@QAEPAVCAnimationGroup@@PAUIUIAnimationStoryboard@@@Z @ 4667 NONAME
 ?FindAnimationObject@CAnimationController@@QAEHPAUIUIAnimationVariable@@PAPAVCAnimationBaseObject@@PAPAVCAnimationGroup@@@Z @ 4668 NONAME
 ?FindAnimationObject@CAnimationGroup@@QAEPAVCAnimationBaseObject@@PAUIUIAnimationVariable@@@Z @ 4669 NONAME
 ?FindAvailablePageID@CMFCOutlookBar@@IAEIXZ @ 4670 NONAME
 ?FindBar@CDockBar@@QAEHPAVCControlBar@@H@Z @ 4671 NONAME
 ?FindBarByTabNumber@CBaseTabbedPane@@UAEPAVCWnd@@HH@Z @ 4672 NONAME
 ?FindButton@CDockablePane@@IBEPAVCMFCCaptionButton@@VCPoint@@@Z @ 4673 NONAME
 ?FindButton@CPaneFrameWnd@@IBEPAVCMFCCaptionButton@@I@Z @ 4674 NONAME
 ?FindButton@CPaneFrameWnd@@IBEPAVCMFCCaptionButton@@VCPoint@@@Z @ 4675 NONAME
 ?FindButtonByHit@CDockablePane@@IBEPAVCMFCCaptionButton@@I@Z @ 4676 NONAME
 ?FindByData@CMFCRibbonBar@@QBEPAVCMFCRibbonBaseElement@@KH@Z @ 4677 NONAME
 ?FindByData@CMFCRibbonBaseElement@@UAEPAV1@K@Z @ 4678 NONAME
 ?FindByData@CMFCRibbonButton@@MAEPAVCMFCRibbonBaseElement@@K@Z @ 4679 NONAME
 ?FindByData@CMFCRibbonButtonsGroup@@MAEPAVCMFCRibbonBaseElement@@K@Z @ 4680 NONAME
 ?FindByData@CMFCRibbonCategory@@QBEPAVCMFCRibbonBaseElement@@KH@Z @ 4681 NONAME
 ?FindByData@CMFCRibbonPanel@@QBEPAVCMFCRibbonBaseElement@@K@Z @ 4682 NONAME
 ?FindByID@CMFCRibbonBar@@QBEPAVCMFCRibbonBaseElement@@IHH@Z @ 4683 NONAME
 ?FindByID@CMFCRibbonBaseElement@@UAEPAV1@I@Z @ 4684 NONAME
 ?FindByID@CMFCRibbonButton@@MAEPAVCMFCRibbonBaseElement@@I@Z @ 4685 NONAME
 ?FindByID@CMFCRibbonButtonsGroup@@MAEPAVCMFCRibbonBaseElement@@I@Z @ 4686 NONAME
 ?FindByID@CMFCRibbonCategory@@QBEPAVCMFCRibbonBaseElement@@IH@Z @ 4687 NONAME
 ?FindByID@CMFCRibbonPanel@@QBEPAVCMFCRibbonBaseElement@@I@Z @ 4688 NONAME
 ?FindByOrigin@CMFCRibbonPanelMenuBar@@QBEPAVCMFCRibbonBaseElement@@PAV2@@Z @ 4689 NONAME
 ?FindByOriginal@CMFCRibbonBaseElement@@UAEPAV1@PAV1@@Z @ 4690 NONAME
 ?FindByOriginal@CMFCRibbonButtonsGroup@@MAEPAVCMFCRibbonBaseElement@@PAV2@@Z @ 4691 NONAME
 ?FindCategoryIndexByData@CMFCRibbonBar@@QBEHK@Z @ 4692 NONAME
 ?FindChunk@CDocument@@UAEPAU__POSITION@@ABU_GUID@@K@Z @ 4693 NONAME
 ?FindConnectionPoint@COleConnPtContainer@@UAGJABU_GUID@@PAPAUIConnectionPoint@@@Z @ 4694 NONAME
 ?FindContextCaption@CMFCRibbonBar@@IBEPAVCMFCRibbonContextCaption@@I@Z @ 4695 NONAME
 ?FindDefaultAccelerator@CKeyboardManager@@SGHIAAV?$CStringT@DV?$StrTraitMFC_DLL@DV?$ChTraitsCRT@D@ATL@@@@@ATL@@PAVCFrameWnd@@H@Z @ 4696 NONAME
 ?FindDestintationToolBar@CMFCPopupMenuBar@@QAEPAVCMFCToolBar@@VCPoint@@@Z @ 4697 NONAME
 ?FindDHtmlEventEntry@CDHtmlEventSink@@QAEHPBUDHtmlEventMapEntry@@JPAPAUIHTMLElement@@@Z @ 4698 NONAME
 ?FindDockSite@CDockingManager@@UAEPAVCDockSite@@KH@Z @ 4699 NONAME
 ?FindDockSiteByPane@CDockingManager@@UAEPAVCDockSite@@PAVCPane@@@Z @ 4700 NONAME
 ?FindDropIndex@CMFCMenuBar@@MBEHVCPoint@@AAVCRect@@@Z @ 4701 NONAME
 ?FindDropIndex@CMFCPopupMenuBar@@MBEHVCPoint@@AAVCRect@@@Z @ 4702 NONAME
 ?FindDropIndex@CMFCToolBar@@MBEHVCPoint@@AAVCRect@@@Z @ 4703 NONAME
 ?FindElement@CMFCRibbonStatusBar@@QAEPAVCMFCRibbonBaseElement@@I@Z @ 4704 NONAME
 ?FindFile@CFileFind@@UAEHPBDK@Z @ 4705 NONAME
 ?FindFile@CFtpFileFind@@UAEHPBDK@Z @ 4706 NONAME
 ?FindFile@CGopherFileFind@@UAEHAAVCGopherLocator@@PBDK@Z @ 4707 NONAME
 ?FindFile@CGopherFileFind@@UAEHPBDK@Z @ 4708 NONAME
 ?FindFirst@CDaoRecordset@@QAEHPBD@Z @ 4709 NONAME
 ?FindFirstVisiblePane@CDockingPanesRow@@IAEPAVCPane@@H@Z @ 4710 NONAME
 ?FindFloatingPaneByID@CPaneFrameWnd@@SGPAVCBasePane@@I@Z @ 4711 NONAME
 ?FindIndex@CMFCVisualManagerBitmapCache@@QBEHABVCSize@@@Z @ 4712 NONAME
 ?FindIndex@CObList@@QBEPAU__POSITION@@H@Z @ 4713 NONAME
 ?FindIndex@CPtrList@@QBEPAU__POSITION@@H@Z @ 4714 NONAME
 ?FindIndex@CStringList@@QBEPAU__POSITION@@H@Z @ 4715 NONAME
 ?FindItem@CMFCRibbonComboBox@@QBEHPBD@Z @ 4716 NONAME
 ?FindItem@CMFCToolBarComboBoxButton@@QBEHPBD@Z @ 4717 NONAME
 ?FindItem@COleControlContainer@@UBEPAVCOleControlSite@@I@Z @ 4718 NONAME
 ?FindItemByData@CMFCPropertyGridCtrl@@QBEPAVCMFCPropertyGridProperty@@KH@Z @ 4719 NONAME
 ?FindLast@CDaoRecordset@@QAEHPBD@Z @ 4720 NONAME
 ?FindMenuItemText@CMFCMenuBar@@KGHPAUHMENU__@@IAAV?$CStringT@DV?$StrTraitMFC_DLL@DV?$ChTraitsCRT@D@ATL@@@@@ATL@@@Z @ 4721 NONAME
 ?FindMenuWithConnectedFloaty@CMFCPopupMenu@@KGPAV1@XZ @ 4722 NONAME
 ?FindNearest@CMFCRibbonBar@@KGPAVCMFCRibbonBaseElement@@VCPoint@@ABV?$CArray@PAVCMFCRibbonBaseElement@@PAV1@@@@Z @ 4723 NONAME
 ?FindNext@CDaoRecordset@@QAEHPBD@Z @ 4724 NONAME
 ?FindNextFileA@CFileFind@@UAEHXZ @ 4725 NONAME
 ?FindNextFileA@CFtpFileFind@@UAEHXZ @ 4726 NONAME
 ?FindNextFileA@CGopherFileFind@@UAEHXZ @ 4727 NONAME
 ?FindNextFocusedElement@CMFCRibbonBar@@KGPAVCMFCRibbonBaseElement@@HABV?$CArray@PAVCMFCRibbonBaseElement@@PAV1@@@VCRect@@PAV2@HHAAH@Z @ 4728 NONAME
 ?FindNextRegisteredWithTaskbarMDIChild@CMDIClientAreaWnd@@QAEPAVCMDIChildWndEx@@PAV2@@Z @ 4729 NONAME
 ?FindNextRegisteredWithTaskbarMDIChild@CMDIClientAreaWnd@@QAEPAVCMDIChildWndEx@@PAVCMFCTabCtrl@@H@Z @ 4730 NONAME
 ?FindNextVisibleRow@CDockSite@@IAEPAVCDockingPanesRow@@AAPAU__POSITION@@H@Z @ 4731 NONAME
 ?FindOneOf@?$CStringT@_WV?$StrTraitMFC_DLL@_WV?$ChTraitsCRT@_W@ATL@@@@@ATL@@QBEHPB_W@Z @ 4732 NONAME
 ?FindOneOf@?$CStringT@DV?$StrTraitMFC_DLL@DV?$ChTraitsCRT@D@ATL@@@@@ATL@@QBEHPBD@Z @ 4733 NONAME
 ?FindPageIndexInList@CMFCPropertySheet@@IAEHPAVCPropertyPage@@@Z @ 4734 NONAME
 ?FindPageRect@CPreviewView@@IAEHAAVCPoint@@AAI@Z @ 4735 NONAME
 ?FindPane@CPaneContainerManager@@IAEIVCPoint@@PAPAVCPane@@AAPAU__POSITION@@@Z @ 4736 NONAME
 ?FindPane@CPaneContainerManager@@IAEIVCRect@@PAPAVCPane@@AAPAU__POSITION@@@Z @ 4737 NONAME
 ?FindPaneByID@CBaseTabbedPane@@UAEPAVCWnd@@I@Z @ 4738 NONAME
 ?FindPaneByID@CDockingManager@@UAEPAVCBasePane@@IH@Z @ 4739 NONAME
 ?FindPaneByID@CDockSite@@QAEPAVCPane@@I@Z @ 4740 NONAME
 ?FindPaneContainer@CPaneContainerManager@@UAEPAVCPaneContainer@@PAVCDockablePane@@AAH@Z @ 4741 NONAME
 ?FindPaneContainer@CPaneDivider@@QAEPAVCPaneContainer@@PAVCDockablePane@@AAH@Z @ 4742 NONAME
 ?FindPanelWithElem@CMFCRibbonCategory@@QAEPAVCMFCRibbonPanel@@PBVCMFCRibbonBaseElement@@@Z @ 4743 NONAME
 ?FindPrev@CDaoRecordset@@QAEHPBD@Z @ 4744 NONAME
 ?FindRowByRect@CDockSite@@IAEPAVCDockingPanesRow@@VCRect@@@Z @ 4745 NONAME
 ?FindRowIndex@CDockSite@@QAEHPAVCDockingPanesRow@@@Z @ 4746 NONAME
 ?FindSinkForObject@CDHtmlDialog@@IAEHPBD@Z @ 4747 NONAME
 ?FindSiteOrWnd@CWnd@@QBEPAU__POSITION@@PBUCOleControlSiteOrWnd@@@Z @ 4748 NONAME
 ?FindSiteOrWndWithFocus@CWnd@@QBEPAU__POSITION@@XZ @ 4749 NONAME
 ?FindSQLToken@CRecordset@@SGPBDPBD0@Z @ 4750 NONAME
 ?FindSubItemByCommand@CMFCPopupMenu@@QBEPAVCMFCToolBarMenuButton@@I@Z @ 4751 NONAME
 ?FindSubItemByData@CMFCPropertyGridProperty@@IBEPAV1@K@Z @ 4752 NONAME
 ?FindSubItemIndexByID@CMFCRibbonButton@@QBEHI@Z @ 4753 NONAME
 ?FindSubPaneContainer@CPaneContainer@@QAEPAV1@PBVCObject@@W4BC_FIND_CRITERIA@1@@Z @ 4754 NONAME
 ?FindTab@CTabView@@QBEHPAUHWND__@@@Z @ 4755 NONAME
 ?FindTabbedPane@CPaneContainer@@QAEPAVCDockablePane@@I@Z @ 4756 NONAME
 ?FindTabbedPane@CPaneContainerManager@@QAEPAVCDockablePane@@I@Z @ 4757 NONAME
 ?FindTabbedPane@CPaneDivider@@QAEPAVCDockablePane@@I@Z @ 4758 NONAME
 ?FindTabInfo@CMFCBaseTabCtrl@@IAEHHPAPAVCMFCTabInfo@@@Z @ 4759 NONAME
 ?FindTabWndByChild@CMDIClientAreaWnd@@QAEPAVCMFCTabCtrl@@PAUHWND__@@AAH@Z @ 4760 NONAME
 ?FindTargetWnd@CMFCOutlookBarTabCtrl@@UAEPAVCWnd@@ABVCPoint@@@Z @ 4761 NONAME
 ?FindTargetWnd@CMFCTabCtrl@@MAEPAVCWnd@@ABVCPoint@@@Z @ 4762 NONAME
 ?FindTextA@CEditView@@QAEHPBDHH@Z @ 4763 NONAME
 ?FindTextA@CRichEditView@@QAEHPBDHHH@Z @ 4764 NONAME
 ?FindTextSimple@CRichEditView@@QAEHPBDHHH@Z @ 4765 NONAME
 ?FindTool@CUserToolsManager@@QBEPAVCUserTool@@I@Z @ 4766 NONAME
 ?FinishCreate@COleClientItem@@MAEHJ@Z @ 4767 NONAME
 ?FireChangeActiveTab@CMFCBaseTabCtrl@@UAEXH@Z @ 4768 NONAME
 ?FireChangingActiveTab@CMFCBaseTabCtrl@@UAEHH@Z @ 4769 NONAME
 ?FireError@COleControl@@QAEXJPBDI@Z @ 4770 NONAME
 ?FireEvent@COleControl@@QAAXJPAEZZ @ 4771 NONAME
 ?FireEvent@XNotifyDBEvents@COleControlSite@@QAEJKKQAUtagDBNOTIFYREASON@@W4DSCSTATE@@@Z @ 4772 NONAME
 ?FireEventV@COleControl@@IAEXJPAEPAD@Z @ 4773 NONAME
 ?Fixup@CDaoRecordset@@IAEXXZ @ 4774 NONAME
 ?Fixups@CRecordset@@QAEXXZ @ 4775 NONAME
 ?FixupVirtualRects@CDockingManager@@UAEXXZ @ 4776 NONAME
 ?FixupVirtualRects@CDockingPanesRow@@QAEX_NPAVCPane@@@Z @ 4777 NONAME
 ?FixupVirtualRects@CDockSite@@UAEXXZ @ 4778 NONAME
 ?FlipRect@CGlobalUtils@@QAEXAAVCRect@@H@Z @ 4779 NONAME
 ?FloatControlBar@CFrameWnd@@QAEXPAVCControlBar@@VCPoint@@K@Z @ 4780 NONAME
 ?FloatPane@CBaseTabbedPane@@MAEHVCRect@@W4AFX_DOCK_METHOD@@_N@Z @ 4781 NONAME
 ?FloatPane@CPane@@UAEHVCRect@@W4AFX_DOCK_METHOD@@_N@Z @ 4782 NONAME
 ?FloatTab@CBaseTabbedPane@@UAEHPAVCWnd@@HW4AFX_DOCK_METHOD@@H@Z @ 4783 NONAME
 ?FloatTab@CMFCOutlookBar@@UAEHPAVCWnd@@HW4AFX_DOCK_METHOD@@H@Z @ 4784 NONAME
 ?FloatTab@CTabbedPane@@UAEHPAVCWnd@@HW4AFX_DOCK_METHOD@@H@Z @ 4785 NONAME
 ?FloodFill@CMFCImagePaintArea@@IAEXABVCPoint@@@Z @ 4786 NONAME
 ?Flush@CArchive@@QAEXXZ @ 4787 NONAME
 ?Flush@CDumpContext@@QAEXXZ @ 4788 NONAME
 ?Flush@CFile@@UAEXXZ @ 4789 NONAME
 ?Flush@CInternetFile@@UAEXXZ @ 4790 NONAME
 ?Flush@CMemFile@@UAEXXZ @ 4791 NONAME
 ?Flush@CMonikerFile@@UAEXXZ @ 4792 NONAME
 ?Flush@COleStreamFile@@UAEXXZ @ 4793 NONAME
 ?Flush@CRenderTarget@@QAEXPA_K0@Z @ 4794 NONAME
 ?Flush@CSocketFile@@UAEXXZ @ 4795 NONAME
 ?Flush@CStdioFile@@UAEXXZ @ 4796 NONAME
 ?FlushClipboard@COleDataSource@@SGXXZ @ 4797 NONAME
 ?FlushResultSet@CRecordset@@QAEHXZ @ 4798 NONAME
 ?Focus@CMFCPreviewCtrlImpl@@UAEXXZ @ 4799 NONAME
 ?ForceAdjustLayout@CGlobalUtils@@QAEXPAVCDockingManager@@HH@Z @ 4800 NONAME
 ?ForceRecalcLayout@CMFCRibbonBar@@QAEXXZ @ 4801 NONAME
 ?Fork@?$CSimpleStringT@_W$00@ATL@@AAEXH@Z @ 4802 NONAME
 ?Fork@?$CSimpleStringT@D$00@ATL@@AAEXH@Z @ 4803 NONAME
 ?Format@?$CStringT@_WV?$StrTraitMFC_DLL@_WV?$ChTraitsCRT@_W@ATL@@@@@ATL@@QAAXIZZ @ 4804 NONAME
 ?Format@?$CStringT@_WV?$StrTraitMFC_DLL@_WV?$ChTraitsCRT@_W@ATL@@@@@ATL@@QAAXPB_WZZ @ 4805 NONAME
 ?Format@?$CStringT@DV?$StrTraitMFC_DLL@DV?$ChTraitsCRT@D@ATL@@@@@ATL@@QAAXIZZ @ 4806 NONAME
 ?Format@?$CStringT@DV?$StrTraitMFC_DLL@DV?$ChTraitsCRT@D@ATL@@@@@ATL@@QAAXPBDZZ @ 4807 NONAME
 ?Format@CMFCAcceleratorKey@@QBEXAAV?$CStringT@DV?$StrTraitMFC_DLL@DV?$ChTraitsCRT@D@ATL@@@@@ATL@@@Z @ 4808 NONAME
 ?Format@COleCurrency@@QBE?AV?$CStringT@DV?$StrTraitMFC_DLL@DV?$ChTraitsCRT@D@ATL@@@@@ATL@@KK@Z @ 4809 NONAME
 ?FormatItem@CMFCKeyMapDialog@@MBE?AV?$CStringT@DV?$StrTraitMFC_DLL@DV?$ChTraitsCRT@D@ATL@@@@@ATL@@H@Z @ 4810 NONAME
 ?FormatMessage@?$CStringT@DV?$StrTraitMFC_DLL@DV?$ChTraitsCRT@D@ATL@@@@@ATL@@QAAXIZZ @ 4811 NONAME
 ?FormatMessage@?$CStringT@DV?$StrTraitMFC_DLL@DV?$ChTraitsCRT@D@ATL@@@@@ATL@@QAAXPBDZZ @ 4812 NONAME
 ?FormatMessageA@?$CStringT@DV?$StrTraitMFC_DLL@DV?$ChTraitsCRT@D@ATL@@@@@ATL@@QAAXIZZ @ 4813 NONAME
 ?FormatMessageA@?$CStringT@DV?$StrTraitMFC_DLL@DV?$ChTraitsCRT@D@ATL@@@@@ATL@@QAAXPBDZZ @ 4814 NONAME
 ?FormatMessageV@?$CStringT@DV?$StrTraitMFC_DLL@DV?$ChTraitsCRT@D@ATL@@@@@ATL@@QAEXPBDPAPAD@Z @ 4815 NONAME
 ?FormatProperty@CMFCPropertyGridColorProperty@@UAE?AV?$CStringT@DV?$StrTraitMFC_DLL@DV?$ChTraitsCRT@D@ATL@@@@@ATL@@XZ @ 4816 NONAME
 ?FormatProperty@CMFCPropertyGridFontProperty@@UAE?AV?$CStringT@DV?$StrTraitMFC_DLL@DV?$ChTraitsCRT@D@ATL@@@@@ATL@@XZ @ 4817 NONAME
 ?FormatProperty@CMFCPropertyGridProperty@@UAE?AV?$CStringT@DV?$StrTraitMFC_DLL@DV?$ChTraitsCRT@D@ATL@@@@@ATL@@XZ @ 4818 NONAME
 ?FormatV@?$CStringT@_WV?$StrTraitMFC_DLL@_WV?$ChTraitsCRT@_W@ATL@@@@@ATL@@QAEXPB_WPAD@Z @ 4819 NONAME
 ?FormatV@?$CStringT@DV?$StrTraitMFC_DLL@DV?$ChTraitsCRT@D@ATL@@@@@ATL@@QAEXPBDPAD@Z @ 4820 NONAME
 ?ForwardActivationMsg@COleControl@@IAEXPAUtagMSG@@@Z @ 4821 NONAME
 ?FrameFromPoint@CDockingManager@@UBEPAVCPaneFrameWnd@@VCPoint@@PAV2@H@Z @ 4822 NONAME
 ?FrameFromPoint@CPaneFrameWnd@@SGPAV1@VCPoint@@HPAV1@H@Z @ 4823 NONAME
 ?Free@CAfxStringMgr@@UAEXPAUCStringData@ATL@@@Z @ 4824 NONAME
 ?Free@CDatabase@@IAEXXZ @ 4825 NONAME
 ?Free@CFixedAlloc@@QAEXPAX@Z @ 4826 NONAME
 ?Free@CFixedAllocNoSync@@QAEXPAX@Z @ 4827 NONAME
 ?Free@CMemFile@@MAEXPAE@Z @ 4828 NONAME
 ?Free@CSharedFile@@MAEXPAE@Z @ 4829 NONAME
 ?FreeAll@CFixedAlloc@@QAEXXZ @ 4830 NONAME
 ?FreeAll@CFixedAllocNoSync@@QAEXXZ @ 4831 NONAME
 ?FreeAssoc@CMapPtrToPtr@@IAEXPAUCAssoc@1@@Z @ 4832 NONAME
 ?FreeAssoc@CMapPtrToWord@@IAEXPAUCAssoc@1@@Z @ 4833 NONAME
 ?FreeAssoc@CMapStringToOb@@IAEXPAUCAssoc@1@@Z @ 4834 NONAME
 ?FreeAssoc@CMapStringToPtr@@IAEXPAUCAssoc@1@@Z @ 4835 NONAME
 ?FreeAssoc@CMapStringToString@@IAEXPAVCAssoc@1@@Z @ 4836 NONAME
 ?FreeAssoc@CMapWordToOb@@IAEXPAUCAssoc@1@@Z @ 4837 NONAME
 ?FreeAssoc@CMapWordToPtr@@IAEXPAUCAssoc@1@@Z @ 4838 NONAME
 ?FreeCache@CDaoRecordset@@IAEXXZ @ 4839 NONAME
 ?FreeDataCache@CRecordset@@QAEXXZ @ 4840 NONAME
 ?FreeDataChain@CPlex@@QAEXXZ @ 4841 NONAME
 ?FreeExtra@?$CSimpleStringT@_W$00@ATL@@QAEXXZ @ 4842 NONAME
 ?FreeExtra@?$CSimpleStringT@D$00@ATL@@QAEXXZ @ 4843 NONAME
 ?FreeExtra@CByteArray@@QAEXXZ @ 4844 NONAME
 ?FreeExtra@CDWordArray@@QAEXXZ @ 4845 NONAME
 ?FreeExtra@CObArray@@QAEXXZ @ 4846 NONAME
 ?FreeExtra@CPtrArray@@QAEXXZ @ 4847 NONAME
 ?FreeExtra@CStringArray@@QAEXXZ @ 4848 NONAME
 ?FreeExtra@CUIntArray@@QAEXXZ @ 4849 NONAME
 ?FreeExtra@CWordArray@@QAEXXZ @ 4850 NONAME
 ?FreeItem@CShellManager@@QAEXPAU_ITEMIDLIST@@@Z @ 4851 NONAME
 ?FreeNode@CObList@@IAEXPAUCNode@1@@Z @ 4852 NONAME
 ?FreeNode@CPtrList@@IAEXPAUCNode@1@@Z @ 4853 NONAME
 ?FreeNode@CStringList@@IAEXPAUCNode@1@@Z @ 4854 NONAME
 ?FreeReleasedPaneContainer@CPaneContainer@@IAEXXZ @ 4855 NONAME
 ?FreeRowset@CRecordset@@IAEXXZ @ 4856 NONAME
 ?FreeSlot@CThreadSlotData@@QAEXH@Z @ 4857 NONAME
 ?FreeSubclassedControls@CMFCControlContainer@@QAEXXZ @ 4858 NONAME
 ?FreeValue@CProperty@@AAEXXZ @ 4859 NONAME
 ?Freeze@XViewObject@COleControl@@UAGJKJPAXPAK@Z @ 4860 NONAME
 ?FreezeAllEvents@COleControlContainer@@QAEXH@Z @ 4861 NONAME
 ?FreezeEvents@COleControlSite@@QAEXH@Z @ 4862 NONAME
 ?FreezeEvents@XOleControl@COleControl@@UAGJH@Z @ 4863 NONAME
 ?FreezeLink@COleClientItem@@UAEHXZ @ 4864 NONAME
 ?FromHandle@CDC@@SGPAV1@PAUHDC__@@@Z @ 4865 NONAME
 ?FromHandle@CGdiObject@@SGPAV1@PAX@Z @ 4866 NONAME
 ?FromHandle@CHandleMap@@QAEPAVCObject@@PAX@Z @ 4867 NONAME
 ?FromHandle@CImageList@@SGPAV1@PAU_IMAGELIST@@@Z @ 4868 NONAME
 ?FromHandle@CMenu@@SGPAV1@PAUHMENU__@@@Z @ 4869 NONAME
 ?FromHandle@CWnd@@SGPAV1@PAUHWND__@@@Z @ 4870 NONAME
 ?FromHandlePermanent@CImageList@@SGPAV1@PAU_IMAGELIST@@@Z @ 4871 NONAME
 ?FromHandlePermanent@CMenu@@SGPAV1@PAUHMENU__@@@Z @ 4872 NONAME
 ?FromHandlePermanent@CMFCToolBar@@SGPAV1@PAUHWND__@@@Z @ 4873 NONAME
 ?FromHandlePermanent@CWnd@@SGPAV1@PAUHWND__@@@Z @ 4874 NONAME
 ?FromIDispatch@CCmdTarget@@SGPAV1@PAUIDispatch@@@Z @ 4875 NONAME
 ?FromName@CRuntimeClass@@SGPAU1@PB_W@Z @ 4876 NONAME
 ?FromName@CRuntimeClass@@SGPAU1@PBD@Z @ 4877 NONAME
 ?g_pTopLevelFrame@@3PAVCFrameWnd@@A @ 4878 NONAME DATA
 ?GenerateAutosaveFileName@CDataRecoveryHandler@@UBE?AV?$CStringT@DV?$StrTraitMFC_DLL@DV?$ChTraitsCRT@D@ATL@@@@@ATL@@ABV23@@Z @ 4879 NONAME
 ?Get@CGestureConfig@@QBEKKH@Z @ 4880 NONAME
 ?Get@CMFCVisualManagerBitmapCache@@QAEPAVCMFCVisualManagerBitmapCacheItem@1@ABVCSize@@@Z @ 4881 NONAME
 ?Get@CMFCVisualManagerBitmapCache@@QAEPAVCMFCVisualManagerBitmapCacheItem@1@H@Z @ 4882 NONAME
 ?Get@CProperty@@QAEPAXPAK@Z @ 4883 NONAME
 ?Get@CProperty@@QAEPAXXZ @ 4884 NONAME
 ?Get@CPropertySection@@QAEPAXK@Z @ 4885 NONAME
 ?Get@CPropertySection@@QAEPAXKPAK@Z @ 4886 NONAME
 ?Get@CPropertySet@@QAEPAXU_GUID@@K@Z @ 4887 NONAME
 ?Get@CPropertySet@@QAEPAXU_GUID@@KPAK@Z @ 4888 NONAME
 ?get_accChild@CBasePane@@UAEJUtagVARIANT@@PAPAUIDispatch@@@Z @ 4889 NONAME
 ?get_accChild@CMFCBaseAccessibleObject@@UAEJUtagVARIANT@@PAPAUIDispatch@@@Z @ 4890 NONAME
 ?get_accChild@CMFCPopupMenu@@MAEJUtagVARIANT@@PAPAUIDispatch@@@Z @ 4891 NONAME
 ?get_accChild@CMFCPropertyGridCtrl@@UAEJUtagVARIANT@@PAPAUIDispatch@@@Z @ 4892 NONAME
 ?get_accChild@CMFCRibbonBar@@UAEJUtagVARIANT@@PAPAUIDispatch@@@Z @ 4893 NONAME
 ?get_accChild@CMFCRibbonCategory@@UAEJUtagVARIANT@@PAPAUIDispatch@@@Z @ 4894 NONAME
 ?get_accChild@CMFCToolBar@@MAEJUtagVARIANT@@PAPAUIDispatch@@@Z @ 4895 NONAME
 ?get_accChild@CWnd@@UAEJUtagVARIANT@@PAPAUIDispatch@@@Z @ 4896 NONAME
 ?get_accChild@XAccessible@CMFCBaseAccessibleObject@@UAGJUtagVARIANT@@PAPAUIDispatch@@@Z @ 4897 NONAME
 ?get_accChild@XAccessible@CWnd@@UAGJUtagVARIANT@@PAPAUIDispatch@@@Z @ 4898 NONAME
 ?get_accChildCount@CBasePane@@UAEJPAJ@Z @ 4899 NONAME
 ?get_accChildCount@CMFCBaseAccessibleObject@@UAEJPAJ@Z @ 4900 NONAME
 ?get_accChildCount@CMFCPopupMenu@@MAEJPAJ@Z @ 4901 NONAME
 ?get_accChildCount@CMFCPropertyGridCtrl@@UAEJPAJ@Z @ 4902 NONAME
 ?get_accChildCount@CMFCRibbonBar@@UAEJPAJ@Z @ 4903 NONAME
 ?get_accChildCount@CMFCRibbonCategory@@UAEJPAJ@Z @ 4904 NONAME
 ?get_accChildCount@CMFCRibbonContextCaption@@MAEJPAJ@Z @ 4905 NONAME
 ?get_accChildCount@CMFCRibbonPanel@@MAEJPAJ@Z @ 4906 NONAME
 ?get_accChildCount@CMFCRibbonQuickAccessToolBar@@MAEJPAJ@Z @ 4907 NONAME
 ?get_accChildCount@CMFCRibbonStatusBar@@MAEJPAJ@Z @ 4908 NONAME
 ?get_accChildCount@CMFCRibbonTabsGroup@@MAEJPAJ@Z @ 4909 NONAME
 ?get_accChildCount@CMFCToolBar@@MAEJPAJ@Z @ 4910 NONAME
 ?get_accChildCount@CWnd@@UAEJPAJ@Z @ 4911 NONAME
 ?get_accChildCount@XAccessible@CMFCBaseAccessibleObject@@UAGJPAJ@Z @ 4912 NONAME
 ?get_accChildCount@XAccessible@CWnd@@UAGJPAJ@Z @ 4913 NONAME
 ?get_accDefaultAction@CBasePane@@UAEJUtagVARIANT@@PAPA_W@Z @ 4914 NONAME
 ?get_accDefaultAction@CCheckListBox@@MAEJUtagVARIANT@@PAPA_W@Z @ 4915 NONAME
 ?get_accDefaultAction@CMFCBaseAccessibleObject@@UAEJUtagVARIANT@@PAPA_W@Z @ 4916 NONAME
 ?get_accDefaultAction@CMFCPropertyGridCtrl@@UAEJUtagVARIANT@@PAPA_W@Z @ 4917 NONAME
 ?get_accDefaultAction@CMFCRibbonTab@@UAEJUtagVARIANT@@PAPA_W@Z @ 4918 NONAME
 ?get_accDefaultAction@CMFCRibbonTabsGroup@@MAEJUtagVARIANT@@PAPA_W@Z @ 4919 NONAME
 ?get_accDefaultAction@CWnd@@UAEJUtagVARIANT@@PAPA_W@Z @ 4920 NONAME
 ?get_accDefaultAction@XAccessible@CMFCBaseAccessibleObject@@UAGJUtagVARIANT@@PAPA_W@Z @ 4921 NONAME
 ?get_accDefaultAction@XAccessible@CWnd@@UAGJUtagVARIANT@@PAPA_W@Z @ 4922 NONAME
 ?get_accDescription@CBasePane@@UAEJUtagVARIANT@@PAPA_W@Z @ 4923 NONAME
 ?get_accDescription@CMFCBaseAccessibleObject@@UAEJUtagVARIANT@@PAPA_W@Z @ 4924 NONAME
 ?get_accDescription@CMFCPropertyGridCtrl@@UAEJUtagVARIANT@@PAPA_W@Z @ 4925 NONAME
 ?get_accDescription@CWnd@@UAEJUtagVARIANT@@PAPA_W@Z @ 4926 NONAME
 ?get_accDescription@XAccessible@CMFCBaseAccessibleObject@@UAGJUtagVARIANT@@PAPA_W@Z @ 4927 NONAME
 ?get_accDescription@XAccessible@CWnd@@UAGJUtagVARIANT@@PAPA_W@Z @ 4928 NONAME
 ?get_accFocus@CBasePane@@UAEJPAUtagVARIANT@@@Z @ 4929 NONAME
 ?get_accFocus@CMFCBaseAccessibleObject@@UAEJPAUtagVARIANT@@@Z @ 4930 NONAME
 ?get_accFocus@CMFCPropertyGridCtrl@@UAEJPAUtagVARIANT@@@Z @ 4931 NONAME
 ?get_accFocus@CWnd@@UAEJPAUtagVARIANT@@@Z @ 4932 NONAME
 ?get_accFocus@XAccessible@CMFCBaseAccessibleObject@@UAGJPAUtagVARIANT@@@Z @ 4933 NONAME
 ?get_accFocus@XAccessible@CWnd@@UAGJPAUtagVARIANT@@@Z @ 4934 NONAME
 ?get_accHelp@CBasePane@@UAEJUtagVARIANT@@PAPA_W@Z @ 4935 NONAME
 ?get_accHelp@CMFCBaseAccessibleObject@@UAEJUtagVARIANT@@PAPA_W@Z @ 4936 NONAME
 ?get_accHelp@CMFCPropertyGridCtrl@@UAEJUtagVARIANT@@PAPA_W@Z @ 4937 NONAME
 ?get_accHelp@CWnd@@UAEJUtagVARIANT@@PAPA_W@Z @ 4938 NONAME
 ?get_accHelp@XAccessible@CMFCBaseAccessibleObject@@UAGJUtagVARIANT@@PAPA_W@Z @ 4939 NONAME
 ?get_accHelp@XAccessible@CWnd@@UAGJUtagVARIANT@@PAPA_W@Z @ 4940 NONAME
 ?get_accHelpTopic@CBasePane@@UAEJPAPA_WUtagVARIANT@@PAJ@Z @ 4941 NONAME
 ?get_accHelpTopic@CMFCBaseAccessibleObject@@UAEJPAPA_WUtagVARIANT@@PAJ@Z @ 4942 NONAME
 ?get_accHelpTopic@CMFCPropertyGridCtrl@@UAEJPAPA_WUtagVARIANT@@PAJ@Z @ 4943 NONAME
 ?get_accHelpTopic@CWnd@@UAEJPAPA_WUtagVARIANT@@PAJ@Z @ 4944 NONAME
 ?get_accHelpTopic@XAccessible@CMFCBaseAccessibleObject@@UAGJPAPA_WUtagVARIANT@@PAJ@Z @ 4945 NONAME
 ?get_accHelpTopic@XAccessible@CWnd@@UAGJPAPA_WUtagVARIANT@@PAJ@Z @ 4946 NONAME
 ?get_accKeyboardShortcut@CBasePane@@UAEJUtagVARIANT@@PAPA_W@Z @ 4947 NONAME
 ?get_accKeyboardShortcut@CMFCBaseAccessibleObject@@UAEJUtagVARIANT@@PAPA_W@Z @ 4948 NONAME
 ?get_accKeyboardShortcut@CMFCPropertyGridCtrl@@UAEJUtagVARIANT@@PAPA_W@Z @ 4949 NONAME
 ?get_accKeyboardShortcut@CWnd@@UAEJUtagVARIANT@@PAPA_W@Z @ 4950 NONAME
 ?get_accKeyboardShortcut@XAccessible@CMFCBaseAccessibleObject@@UAGJUtagVARIANT@@PAPA_W@Z @ 4951 NONAME
 ?get_accKeyboardShortcut@XAccessible@CWnd@@UAGJUtagVARIANT@@PAPA_W@Z @ 4952 NONAME
 ?get_accName@CBasePane@@UAEJUtagVARIANT@@PAPA_W@Z @ 4953 NONAME
 ?get_accName@CMFCBaseAccessibleObject@@UAEJUtagVARIANT@@PAPA_W@Z @ 4954 NONAME
 ?get_accName@CMFCPopupMenu@@MAEJUtagVARIANT@@PAPA_W@Z @ 4955 NONAME
 ?get_accName@CMFCPropertyGridCtrl@@UAEJUtagVARIANT@@PAPA_W@Z @ 4956 NONAME
 ?get_accName@CToolBar@@UAEJUtagVARIANT@@PAPA_W@Z @ 4957 NONAME
 ?get_accName@CWnd@@UAEJUtagVARIANT@@PAPA_W@Z @ 4958 NONAME
 ?get_accName@XAccessible@CMFCBaseAccessibleObject@@UAGJUtagVARIANT@@PAPA_W@Z @ 4959 NONAME
 ?get_accName@XAccessible@CWnd@@UAGJUtagVARIANT@@PAPA_W@Z @ 4960 NONAME
 ?get_accParent@CBasePane@@UAEJPAPAUIDispatch@@@Z @ 4961 NONAME
 ?get_accParent@CMFCBaseAccessibleObject@@UAEJPAPAUIDispatch@@@Z @ 4962 NONAME
 ?get_accParent@CMFCPopupMenu@@MAEJPAPAUIDispatch@@@Z @ 4963 NONAME
 ?get_accParent@CMFCRibbonApplicationButton@@MAEJPAPAUIDispatch@@@Z @ 4964 NONAME
 ?get_accParent@CMFCRibbonBaseElement@@UAEJPAPAUIDispatch@@@Z @ 4965 NONAME
 ?get_accParent@CMFCRibbonCategory@@UAEJPAPAUIDispatch@@@Z @ 4966 NONAME
 ?get_accParent@CMFCRibbonContextCaption@@MAEJPAPAUIDispatch@@@Z @ 4967 NONAME
 ?get_accParent@CMFCRibbonPanel@@MAEJPAPAUIDispatch@@@Z @ 4968 NONAME
 ?get_accParent@CMFCRibbonQuickAccessToolBar@@MAEJPAPAUIDispatch@@@Z @ 4969 NONAME
 ?get_accParent@CMFCRibbonTab@@UAEJPAPAUIDispatch@@@Z @ 4970 NONAME
 ?get_accParent@CMFCRibbonTabsGroup@@MAEJPAPAUIDispatch@@@Z @ 4971 NONAME
 ?get_accParent@CWnd@@UAEJPAPAUIDispatch@@@Z @ 4972 NONAME
 ?get_accParent@XAccessible@CMFCBaseAccessibleObject@@UAGJPAPAUIDispatch@@@Z @ 4973 NONAME
 ?get_accParent@XAccessible@CWnd@@UAGJPAPAUIDispatch@@@Z @ 4974 NONAME
 ?get_accRole@CBasePane@@UAEJUtagVARIANT@@PAU2@@Z @ 4975 NONAME
 ?get_accRole@CCheckListBox@@MAEJUtagVARIANT@@PAU2@@Z @ 4976 NONAME
 ?get_accRole@CMFCBaseAccessibleObject@@UAEJUtagVARIANT@@PAU2@@Z @ 4977 NONAME
 ?get_accRole@CMFCPopupMenu@@MAEJUtagVARIANT@@PAU2@@Z @ 4978 NONAME
 ?get_accRole@CMFCPopupMenuBar@@UAEJUtagVARIANT@@PAU2@@Z @ 4979 NONAME
 ?get_accRole@CMFCPropertyGridCtrl@@UAEJUtagVARIANT@@PAU2@@Z @ 4980 NONAME
 ?get_accRole@CWnd@@UAEJUtagVARIANT@@PAU2@@Z @ 4981 NONAME
 ?get_accRole@XAccessible@CMFCBaseAccessibleObject@@UAGJUtagVARIANT@@PAU3@@Z @ 4982 NONAME
 ?get_accRole@XAccessible@CWnd@@UAGJUtagVARIANT@@PAU3@@Z @ 4983 NONAME
 ?get_accSelection@CBasePane@@UAEJPAUtagVARIANT@@@Z @ 4984 NONAME
 ?get_accSelection@CMFCBaseAccessibleObject@@UAEJPAUtagVARIANT@@@Z @ 4985 NONAME
 ?get_accSelection@CMFCPropertyGridCtrl@@UAEJPAUtagVARIANT@@@Z @ 4986 NONAME
 ?get_accSelection@CWnd@@UAEJPAUtagVARIANT@@@Z @ 4987 NONAME
 ?get_accSelection@XAccessible@CMFCBaseAccessibleObject@@UAGJPAUtagVARIANT@@@Z @ 4988 NONAME
 ?get_accSelection@XAccessible@CWnd@@UAGJPAUtagVARIANT@@@Z @ 4989 NONAME
 ?get_accState@CBasePane@@UAEJUtagVARIANT@@PAU2@@Z @ 4990 NONAME
 ?get_accState@CCheckListBox@@MAEJUtagVARIANT@@PAU2@@Z @ 4991 NONAME
 ?get_accState@CMFCBaseAccessibleObject@@UAEJUtagVARIANT@@PAU2@@Z @ 4992 NONAME
 ?get_accState@CMFCButton@@UAEJUtagVARIANT@@PAU2@@Z @ 4993 NONAME
 ?get_accState@CMFCPopupMenu@@MAEJUtagVARIANT@@PAU2@@Z @ 4994 NONAME
 ?get_accState@CMFCPopupMenuBar@@UAEJUtagVARIANT@@PAU2@@Z @ 4995 NONAME
 ?get_accState@CMFCPropertyGridCtrl@@UAEJUtagVARIANT@@PAU2@@Z @ 4996 NONAME
 ?get_accState@CWnd@@UAEJUtagVARIANT@@PAU2@@Z @ 4997 NONAME
 ?get_accState@XAccessible@CMFCBaseAccessibleObject@@UAGJUtagVARIANT@@PAU3@@Z @ 4998 NONAME
 ?get_accState@XAccessible@CWnd@@UAGJUtagVARIANT@@PAU3@@Z @ 4999 NONAME
 ?get_accValue@CBasePane@@UAEJUtagVARIANT@@PAPA_W@Z @ 5000 NONAME
 ?get_accValue@CMFCBaseAccessibleObject@@UAEJUtagVARIANT@@PAPA_W@Z @ 5001 NONAME
 ?get_accValue@CMFCPropertyGridCtrl@@UAEJUtagVARIANT@@PAPA_W@Z @ 5002 NONAME
 ?get_accValue@CWnd@@UAEJUtagVARIANT@@PAPA_W@Z @ 5003 NONAME
 ?get_accValue@XAccessible@CMFCBaseAccessibleObject@@UAGJUtagVARIANT@@PAPA_W@Z @ 5004 NONAME
 ?get_accValue@XAccessible@CWnd@@UAGJUtagVARIANT@@PAPA_W@Z @ 5005 NONAME
 ?GetAbsolutePosition@CDaoRecordset@@QAEJXZ @ 5006 NONAME
 ?GetAccCount@CMFCToolBarButton@@UAEHXZ @ 5007 NONAME
 ?GetAccessibilityHitTest@CWnd@@QAEJJJPAUtagVARIANT@@@Z @ 5008 NONAME
 ?GetAccessibilityLocation@CWnd@@QAEJUtagVARIANT@@PAJ111@Z @ 5009 NONAME
 ?GetAccessibleChild@CWnd@@QAEJUtagVARIANT@@PAPAUIDispatch@@@Z @ 5010 NONAME
 ?GetAccessibleChildCount@CWnd@@QAEJXZ @ 5011 NONAME
 ?GetAccessibleDispatch@CMFCRibbonBar@@QAEPAUIDispatch@@XZ @ 5012 NONAME
 ?GetAccessibleName@CWnd@@QAEJUtagVARIANT@@PAPA_W@Z @ 5013 NONAME
 ?GetAccObjectCount@CMFCRibbonBar@@QAEHXZ @ 5014 NONAME
 ?GetActivationPolicy@COleControl@@UAEKXZ @ 5015 NONAME
 ?GetActivationPolicy@XPointerInactive@COleControl@@UAGJPAK@Z @ 5016 NONAME
 ?GetActiveDocument@CFrameWnd@@UAEPAVCDocument@@XZ @ 5017 NONAME
 ?GetActiveFrame@CFrameWnd@@UAEPAV1@XZ @ 5018 NONAME
 ?GetActiveFrame@CMDIFrameWnd@@UAEPAVCFrameWnd@@XZ @ 5019 NONAME
 ?GetActiveIndex@CPropertySheet@@QBEHXZ @ 5020 NONAME
 ?GetActivePage@CPropertySheet@@QBEPAVCPropertyPage@@XZ @ 5021 NONAME
 ?GetActivePane@CSplitterWnd@@UAEPAVCWnd@@PAH0@Z @ 5022 NONAME
 ?GetActiveView@CFrameWnd@@QBEPAVCView@@XZ @ 5023 NONAME
 ?GetActiveView@COleDocObjectItem@@QBEPAUIOleDocumentView@@XZ @ 5024 NONAME
 ?GetActiveView@CTabView@@QBEPAVCView@@XZ @ 5025 NONAME
 ?GetActiveWnd@CMFCBaseTabCtrl@@UBEPAVCWnd@@XZ @ 5026 NONAME
 ?GetActualWidth@CMFCRibbonQuickAccessToolBar@@IBEHXZ @ 5027 NONAME
 ?GetAddress@CIPAddressCtrl@@QBEHAAE000@Z @ 5028 NONAME
 ?GetAddressBar@CHtmlView@@QBEHXZ @ 5029 NONAME
 ?GetAdvise@XViewObject@COleControl@@UAGJPAK0PAPAUIAdviseSink@@@Z @ 5030 NONAME
 ?GetAlignment@CMFCCaptionBar@@QAE?AW4BarElementAlignment@1@W4BarElement@1@@Z @ 5031 NONAME
 ?GetAlignRect@CAutoHideDockSite@@QBEXAAVCRect@@@Z @ 5032 NONAME
 ?GetAllocLength@?$CSimpleStringT@_W$00@ATL@@QBEHXZ @ 5033 NONAME
 ?GetAllocLength@?$CSimpleStringT@D$00@ATL@@QBEHXZ @ 5034 NONAME
 ?GetAllToolbars@CMFCToolBar@@SGABVCObList@@XZ @ 5035 NONAME
 ?GetAmbientDispatchDriver@COleControl@@IAEPAVCOleDispatchDriver@@XZ @ 5036 NONAME
 ?GetAmbientProp@COleControlContainer@@UAEHPAVCOleControlSite@@JPAUtagVARIANT@@@Z @ 5037 NONAME
 ?GetAmbientProperty@COleControl@@QAEHJGPAX@Z @ 5038 NONAME
 ?GetAngleFromPoint@CMFCColorPickerCtrl@@IAEHHH@Z @ 5039 NONAME
 ?GetAnimationVariableList@CAnimationColor@@MAEXAAV?$CList@PAVCAnimationVariable@@PAV1@@@@Z @ 5040 NONAME
 ?GetAnimationVariableList@CAnimationPoint@@MAEXAAV?$CList@PAVCAnimationVariable@@PAV1@@@@Z @ 5041 NONAME
 ?GetAnimationVariableList@CAnimationRect@@MAEXAAV?$CList@PAVCAnimationVariable@@PAV1@@@@Z @ 5042 NONAME
 ?GetAnimationVariableList@CAnimationSize@@MAEXAAV?$CList@PAVCAnimationVariable@@PAV1@@@@Z @ 5043 NONAME
 ?GetAnimationVariableList@CAnimationValue@@MAEXAAV?$CList@PAVCAnimationVariable@@PAV1@@@@Z @ 5044 NONAME
 ?GetAntialiasMode@CRenderTarget@@QBE?AW4D2D1_ANTIALIAS_MODE@@XZ @ 5045 NONAME
 ?GetAppearance@COleControl@@QAEFXZ @ 5046 NONAME
 ?GetApplication@CHtmlView@@QBEPAUIDispatch@@XZ @ 5047 NONAME
 ?GetAppRegistryKey@CWinApp@@QAEPAUHKEY__@@PAVCAtlTransactionManager@ATL@@@Z @ 5048 NONAME
 ?GetArrayImages@CMFCRibbonInfo@@QAEXAAV?$CArray@PAVXImage@CMFCRibbonInfo@@PAV12@@@@Z @ 5049 NONAME
 ?GetAssocAt@CMapPtrToPtr@@IBEPAUCAssoc@1@PAXAAI1@Z @ 5050 NONAME
 ?GetAssocAt@CMapPtrToWord@@IBEPAUCAssoc@1@PAXAAI1@Z @ 5051 NONAME
 ?GetAssocAt@CMapStringToOb@@IBEPAUCAssoc@1@PBDAAI1@Z @ 5052 NONAME
 ?GetAssocAt@CMapStringToPtr@@IBEPAUCAssoc@1@PBDAAI1@Z @ 5053 NONAME
 ?GetAssocAt@CMapStringToString@@IBEPAVCAssoc@1@PBDAAI1@Z @ 5054 NONAME
 ?GetAssocAt@CMapWordToOb@@IBEPAUCAssoc@1@GAAI0@Z @ 5055 NONAME
 ?GetAssocAt@CMapWordToPtr@@IBEPAUCAssoc@1@GAAI0@Z @ 5056 NONAME
 ?GetAssociatedSiblingPaneIDs@CPaneContainer@@QAEPAV?$CList@II@@PAVCDockablePane@@@Z @ 5057 NONAME
 ?GetAt@?$CSimpleStringT@_W$00@ATL@@QBE_WH@Z @ 5058 NONAME
 ?GetAt@?$CSimpleStringT@D$00@ATL@@QBEDH@Z @ 5059 NONAME
 ?GetAttribute@CGopherConnection@@QAEHAAVCGopherLocator@@V?$CStringT@DV?$StrTraitMFC_DLL@DV?$ChTraitsCRT@D@ATL@@@@@ATL@@AAV34@@Z @ 5060 NONAME
 ?GetAttributes@CDaoTableDef@@QAEJXZ @ 5061 NONAME
 ?GetAutoHideButtonTextColor@CMFCVisualManager@@UAEKPAVCMFCAutoHideButton@@@Z @ 5062 NONAME
 ?GetAutoHideButtonTextColor@CMFCVisualManagerOfficeXP@@MAEKPAVCMFCAutoHideButton@@@Z @ 5063 NONAME
 ?GetAvailableExpandSize@CPane@@UBEHXZ @ 5064 NONAME
 ?GetAvailableLength@CDockingPanesRow@@UBEHH@Z @ 5065 NONAME
 ?GetAvailableLengthRect@CDockingPanesRow@@IAEHXZ @ 5066 NONAME
 ?GetAvailableSpace@CDockingPanesRow@@UAEXAAVCRect@@@Z @ 5067 NONAME
 ?GetAvailableSpace@CPaneContainerManager@@UBEXAAVCRect@@@Z @ 5068 NONAME
 ?GetAvailableStretchSize@CPane@@UBEHXZ @ 5069 NONAME
 ?GetBackColor@COleControl@@QAEKXZ @ 5070 NONAME
 ?GetBackgroundFromParent@CMFCControlBarImpl@@IAEHPAVCDC@@@Z @ 5071 NONAME
 ?GetBarInfo@CControlBar@@QAEXPAVCControlBarInfo@@@Z @ 5072 NONAME
 ?GetBarInfo@CDockBar@@QAEXPAVCControlBarInfo@@@Z @ 5073 NONAME
 ?GetBaseThemeColor@CMFCVisualManagerOffice2003@@UAEKXZ @ 5074 NONAME
 ?GetBestTemplate@CDocManager@@UAEPAVCDocTemplate@@PBD@Z @ 5075 NONAME
 ?GetBinary@CWinAppEx@@QAEHPBDPAPAEPAI@Z @ 5076 NONAME
 ?GetBindInfo@CAsyncMonikerFile@@MBEKXZ @ 5077 NONAME
 ?GetBitmap@CBitmapRenderTarget@@QAEHAAVCD2DBitmap@@@Z @ 5078 NONAME
 ?GetBlob@CBlobProperty@@QAEPAXXZ @ 5079 NONAME
 ?GetBookmark@CDaoRecordset@@QAE?AVCOleVariant@@XZ @ 5080 NONAME
 ?GetBookmark@CRecordset@@QAEXAAVCDBVariant@@@Z @ 5081 NONAME
 ?GetBorder@XOleInPlaceFrame@COleFrameHook@@UAGJPAUtagRECT@@@Z @ 5082 NONAME
 ?GetBorder@XOleIPFrame@COleControlContainer@@UAGJPAUtagRECT@@@Z @ 5083 NONAME
 ?GetBorders@CPane@@QBE?AVCRect@@XZ @ 5084 NONAME
 ?GetBorders@CStatusBarCtrl@@QBEHAAH00@Z @ 5085 NONAME
 ?GetBorderSize@CMFCPopupMenu@@MBEHXZ @ 5086 NONAME
 ?GetBorderSize@CMFCRibbonPanelMenu@@MBEHXZ @ 5087 NONAME
 ?GetBorderStyle@COleControl@@QAEFXZ @ 5088 NONAME
 ?GetBoundClientRow@CDataSourceControl@@QAEJXZ @ 5089 NONAME
 ?GetBoundFieldIndex@CRecordset@@QAEHPAX@Z @ 5090 NONAME
 ?GetBoundParamIndex@CRecordset@@QAEHPAX@Z @ 5091 NONAME
 ?GetBounds@CD2DGeometry@@QBEHABUD2D_MATRIX_3X2_F@@AAVCD2DRectF@@@Z @ 5092 NONAME
 ?GetBuffer@?$CSimpleStringT@_W$00@ATL@@QAEPA_WH@Z @ 5093 NONAME
 ?GetBuffer@?$CSimpleStringT@_W$00@ATL@@QAEPA_WXZ @ 5094 NONAME
 ?GetBuffer@?$CSimpleStringT@D$00@ATL@@QAEPADH@Z @ 5095 NONAME
 ?GetBuffer@?$CSimpleStringT@D$00@ATL@@QAEPADXZ @ 5096 NONAME
 ?GetBufferLength@CEditView@@QBEIXZ @ 5097 NONAME
 ?GetBufferPtr@CFile@@UAEIIIPAPAX0@Z @ 5098 NONAME
 ?GetBufferPtr@CMemFile@@UAEIIIPAPAX0@Z @ 5099 NONAME
 ?GetBufferPtr@CSocketFile@@UAEIIIPAPAX0@Z @ 5100 NONAME
 ?GetBufferSetLength@?$CSimpleStringT@_W$00@ATL@@QAEPA_WH@Z @ 5101 NONAME
 ?GetBufferSetLength@?$CSimpleStringT@D$00@ATL@@QAEPADH@Z @ 5102 NONAME
 ?GetBusy@CHtmlView@@QBEHXZ @ 5103 NONAME
 ?GetButton@CMFCToolBar@@QBEPAVCMFCToolBarButton@@H@Z @ 5104 NONAME
 ?GetButtonExtraBorder@CMFCVisualManagerWindows@@UBE?AVCSize@@XZ @ 5105 NONAME
 ?GetButtonID@CVSListBoxBase@@QBEIH@Z @ 5106 NONAME
 ?GetButtonIndex@CMFCRibbonButtonsGroup@@QBEHPBVCMFCRibbonBaseElement@@@Z @ 5107 NONAME
 ?GetButtonInfo@CMFCToolBar@@QBEXHAAI0AAH@Z @ 5108 NONAME
 ?GetButtonInfo@CToolBar@@QBEXHAAI0AAH@Z @ 5109 NONAME
 ?GetButtonNum@CVSListBoxBase@@QBEHI@Z @ 5110 NONAME
 ?GetButtonStyle@CMFCToolBar@@QBEIH@Z @ 5111 NONAME
 ?GetButtonStyle@CToolBar@@QBEIH@Z @ 5112 NONAME
 ?GetButtonText@CMFCToolBar@@QBE?AV?$CStringT@DV?$StrTraitMFC_DLL@DV?$ChTraitsCRT@D@ATL@@@@@ATL@@H@Z @ 5113 NONAME
 ?GetButtonText@CMFCToolBar@@QBEXHAAV?$CStringT@DV?$StrTraitMFC_DLL@DV?$ChTraitsCRT@D@ATL@@@@@ATL@@@Z @ 5114 NONAME
 ?GetButtonText@CToolBar@@QBE?AV?$CStringT@DV?$StrTraitMFC_DLL@DV?$ChTraitsCRT@D@ATL@@@@@ATL@@H@Z @ 5115 NONAME
 ?GetButtonText@CToolBar@@QBEXHAAV?$CStringT@DV?$StrTraitMFC_DLL@DV?$ChTraitsCRT@D@ATL@@@@@ATL@@@Z @ 5116 NONAME
 ?GetByCmd@CMFCToolBarComboBoxButton@@SGPAV1@IH@Z @ 5117 NONAME
 ?GetByCmd@CMFCToolBarDateTimeCtrl@@SGPAV1@I@Z @ 5118 NONAME
 ?GetByCmd@CMFCToolBarEditBoxButton@@SGPAV1@I@Z @ 5119 NONAME
 ?GetByteArray@COleSafeArray@@QAEXAAVCByteArray@@@Z @ 5120 NONAME
 ?GetByteArrayFromVariantArray@COleVariant@@QAEXAAVCByteArray@@@Z @ 5121 NONAME
 ?GetByteOrder@CPropertySet@@QAEGXZ @ 5122 NONAME
 ?GetCachedExtent@COleClientItem@@QAEHPAUtagSIZE@@W4tagDVASPECT@@@Z @ 5123 NONAME
 ?GetCacheEntry@COleDataSource@@IAEPAUAFX_DATACACHE_ENTRY@@PAUtagFORMATETC@@W4tagDATADIR@@@Z @ 5124 NONAME
 ?GetCacheSize@CDaoRecordset@@QAEJXZ @ 5125 NONAME
 ?GetCacheStart@CDaoRecordset@@QAE?AVCOleVariant@@XZ @ 5126 NONAME
 ?GetCacheValue@CDaoFieldExchange@@SGPAUCDaoFieldCache@@PAVCDaoRecordset@@PAX@Z @ 5127 NONAME
 ?GetCanonicalFormatEtc@XDataObject@COleControl@@UAGJPAUtagFORMATETC@@0@Z @ 5128 NONAME
 ?GetCanonicalFormatEtc@XDataObject@COleDataSource@@UAGJPAUtagFORMATETC@@0@Z @ 5129 NONAME
 ?GetCanonicalFormatEtc@XDataObject@COleServerDoc@@UAGJPAUtagFORMATETC@@0@Z @ 5130 NONAME
 ?GetCanonicalFormatEtc@XDataObject@COleServerItem@@UAGJPAUtagFORMATETC@@0@Z @ 5131 NONAME
 ?GetCaptionBarTextColor@CMFCVisualManager@@UAEKPAVCMFCCaptionBar@@@Z @ 5132 NONAME
 ?GetCaptionBarTextColor@CMFCVisualManagerOffice2007@@UAEKPAVCMFCCaptionBar@@@Z @ 5133 NONAME
 ?GetCaptionButtonExtraBorder@CMFCVisualManagerWindows@@UBE?AVCSize@@XZ @ 5134 NONAME
 ?GetCaptionButtonTotalWidth@CPaneFrameWnd@@IBEHXZ @ 5135 NONAME
 ?GetCaptionHeight@CDockablePane@@UBEHXZ @ 5136 NONAME
 ?GetCaptionHeight@CMFCDesktopAlertWnd@@UAEHXZ @ 5137 NONAME
 ?GetCaptionRect@CFrameImpl@@IAE?AVCRect@@XZ @ 5138 NONAME
 ?GetCaptionRect@CMFCDesktopAlertWnd@@IAE?AVCRect@@XZ @ 5139 NONAME
 ?GetCaptionRect@CPaneFrameWnd@@UBEXAAVCRect@@@Z @ 5140 NONAME
 ?GetCaptionSize@CMFCRibbonPanel@@IBE?AVCSize@@PAVCDC@@@Z @ 5141 NONAME
 ?GetCaptionText@CMultiPaneFrameWnd@@UAE?AV?$CStringT@DV?$StrTraitMFC_DLL@DV?$ChTraitsCRT@D@ATL@@@@@ATL@@XZ @ 5142 NONAME
 ?GetCaptionText@CPaneFrameWnd@@UAE?AV?$CStringT@DV?$StrTraitMFC_DLL@DV?$ChTraitsCRT@D@ATL@@@@@ATL@@XZ @ 5143 NONAME
 ?GetCapture@COleControl@@QAEPAVCWnd@@XZ @ 5144 NONAME
 ?GetCapture@XOleIPSite@COleControlSite@@UAGJXZ @ 5145 NONAME
 ?GetCategory@CMFCRibbonBar@@QBEPAVCMFCRibbonCategory@@H@Z @ 5146 NONAME
 ?GetCategoryCount@CMFCRibbonBar@@QBEHXZ @ 5147 NONAME
 ?GetCategoryImages@CMFCRibbonCollector@@MAEXABVCMFCRibbonCategory@@AAVXCategory@CMFCRibbonInfo@@@Z @ 5148 NONAME
 ?GetCategoryImages@CMFCRibbonCollector@@MAEXABVCMFCRibbonCategory@@AAVXImage@CMFCRibbonInfo@@1@Z @ 5149 NONAME
 ?GetCategoryIndex@CMFCRibbonBar@@QBEHPAVCMFCRibbonCategory@@@Z @ 5150 NONAME
 ?GetCenter@CD2DRadialGradientBrush@@QBE?AVCD2DPointF@@XZ @ 5151 NONAME
 ?GetCharFormat@CFontDialog@@QBEXAAU_charformat@@@Z @ 5152 NONAME
 ?GetCharFormatSelection@CRichEditView@@QAEAAUCHARFORMAT2A@@XZ @ 5153 NONAME
 ?GetCheck@CCheckListBox@@QAEHH@Z @ 5154 NONAME
 ?GetCheck@CListCtrl@@QBEHH@Z @ 5155 NONAME
 ?GetCheck@CTreeCtrl@@QBEHPAU_TREEITEM@@@Z @ 5156 NONAME
 ?GetCheckButtonState@CFileDialog@@QAEJKAAH@Z @ 5157 NONAME
 ?GetCheckedRadioButton@CWnd@@QBEHHH@Z @ 5158 NONAME
 ?GetChildItems@CMFCShellTreeCtrl@@IAEHPAU_TREEITEM@@@Z @ 5159 NONAME
 ?GetClassID@CBlobProperty@@UAGJPAU_GUID@@@Z @ 5160 NONAME
 ?GetClassID@COleClientItem@@QBEXPAU_GUID@@@Z @ 5161 NONAME
 ?GetClassID@CPropertySet@@QAE?AU_GUID@@XZ @ 5162 NONAME
 ?GetClassID@XPersistFile@COleLinkingDoc@@UAGJPAU_GUID@@@Z @ 5163 NONAME
 ?GetClassID@XPersistMemory@COleControl@@UAGJPAU_GUID@@@Z @ 5164 NONAME
 ?GetClassID@XPersistPropertyBag@COleControl@@UAGJPAU_GUID@@@Z @ 5165 NONAME
 ?GetClassID@XPersistStorage@COleControl@@UAGJPAU_GUID@@@Z @ 5166 NONAME
 ?GetClassID@XPersistStorage@COleServerDoc@@UAGJPAU_GUID@@@Z @ 5167 NONAME
 ?GetClassID@XPersistStreamInit@COleControl@@UAGJPAU_GUID@@@Z @ 5168 NONAME
 ?GetClassInfoA@XProvideClassInfo@COleControl@@UAGJPAPAUITypeInfo@@@Z @ 5169 NONAME
 ?GetClassObject@AFX_COM@@QAEJABU_GUID@@0PAPAX@Z @ 5170 NONAME
 ?GetClientBitmap@CMDITabProxyWnd@@QAEPAUHBITMAP__@@HHH@Z @ 5171 NONAME
 ?GetClientOffset@COleControl@@UBEXPAJ0@Z @ 5172 NONAME
 ?GetClientRect@CDockingPanesRow@@QBEXAAVCRect@@@Z @ 5173 NONAME
 ?GetClientRect@COleControl@@UBEXPAUtagRECT@@@Z @ 5174 NONAME
 ?GetClientSite@COleClientItem@@MAEPAUIOleClientSite@@XZ @ 5175 NONAME
 ?GetClientSite@COleControl@@QAEPAUIOleClientSite@@XZ @ 5176 NONAME
 ?GetClientSite@CRichEditCntrItem@@UAEPAUIOleClientSite@@XZ @ 5177 NONAME
 ?GetClientSite@XOleObject@CDocObjectServer@@UAGJPAPAUIOleClientSite@@@Z @ 5178 NONAME
 ?GetClientSite@XOleObject@COleControl@@UAGJPAPAUIOleClientSite@@@Z @ 5179 NONAME
 ?GetClientSite@XOleObject@COleServerDoc@@UAGJPAPAUIOleClientSite@@@Z @ 5180 NONAME
 ?GetClientSite@XOleObject@COleServerItem@@UAGJPAPAUIOleClientSite@@@Z @ 5181 NONAME
 ?GetClipboardData@COleClientItem@@QAEXPAVCOleDataSource@@HPAUtagPOINT@@PAUtagSIZE@@@Z @ 5182 NONAME
 ?GetClipboardData@COleServerItem@@QAEXPAVCOleDataSource@@HPAUtagPOINT@@PAUtagSIZE@@@Z @ 5183 NONAME
 ?GetClipboardData@CRichEditView@@MAEJPAU_charrange@@KPAUIDataObject@@PAPAU3@@Z @ 5184 NONAME
 ?GetClipboardData@XOleObject@CDocObjectServer@@UAGJKPAPAUIDataObject@@@Z @ 5185 NONAME
 ?GetClipboardData@XOleObject@COleControl@@UAGJKPAPAUIDataObject@@@Z @ 5186 NONAME
 ?GetClipboardData@XOleObject@COleServerDoc@@UAGJKPAPAUIDataObject@@@Z @ 5187 NONAME
 ?GetClipboardData@XOleObject@COleServerItem@@UAGJKPAPAUIDataObject@@@Z @ 5188 NONAME
 ?GetClipboardData@XRichEditOleCallback@CRichEditView@@UAGJPAU_charrange@@KPAPAUIDataObject@@@Z @ 5189 NONAME
 ?GetClipboardFormat@CMFCToolBarButton@@SGGXZ @ 5190 NONAME
 ?GetClipboardOwner@COleDataSource@@SGPAV1@XZ @ 5191 NONAME
 ?GetClipBox@CDC@@UBEHPAUtagRECT@@@Z @ 5192 NONAME
 ?GetClipBox@CMetaFileDC@@UBEHPAUtagRECT@@@Z @ 5193 NONAME
 ?GetCmdImage@CCommandManager@@QBEHIH@Z @ 5194 NONAME
 ?GetCmdMgr@@YAPAVCCommandManager@@XZ @ 5195 NONAME
 ?GetColor@AFX_GLOBAL_DATA@@QAEKH@Z @ 5196 NONAME
 ?GetColor@CD2DSolidColorBrush@@QBE?AU_D3DCOLORVALUE@@XZ @ 5197 NONAME
 ?GetColorByCmdID@CMFCColorMenuButton@@SGKI@Z @ 5198 NONAME
 ?GetColorByIndex@CMFCRibbonColorButton@@IBEKH@Z @ 5199 NONAME
 ?GetColorGridSize@CMFCColorBar@@IBE?AVCSize@@H@Z @ 5200 NONAME
 ?GetColorScheme@CReBarCtrl@@QBEHPAUtagCOLORSCHEME@@@Z @ 5201 NONAME
 ?GetColorSet@XViewObject@COleControl@@UAGJKJPAXPAUtagDVTARGETDEVICE@@PAUHDC__@@PAPAUtagLOGPALETTE@@@Z @ 5202 NONAME
 ?GetColumnInfo@CSplitterWnd@@QBEXHAAH0@Z @ 5203 NONAME
 ?GetColumnOrderArray@CListCtrl@@QBEHPAHH@Z @ 5204 NONAME
 ?GetColumnState@CMFCHeaderCtrl@@QBEHH@Z @ 5205 NONAME
 ?GetCommand@CMFCRibbonCommandsListBox@@QBEPAVCMFCRibbonBaseElement@@H@Z @ 5206 NONAME
 ?GetCommandButtons@CMFCToolBar@@SGHIAAVCObList@@@Z @ 5207 NONAME
 ?GetCommandIndex@CMFCRibbonCommandsListBox@@QBEHI@Z @ 5208 NONAME
 ?GetCommandKeys@CMFCKeyMapDialog@@MBE?AV?$CStringT@DV?$StrTraitMFC_DLL@DV?$ChTraitsCRT@D@ATL@@@@@ATL@@I@Z @ 5209 NONAME
 ?GetCommandMap@CCmdTarget@@MBEPBUAFX_OLECMDMAP@@XZ @ 5210 NONAME
 ?GetCommandMap@COleDocObjectItem@@MBEPBUAFX_OLECMDMAP@@XZ @ 5211 NONAME
 ?GetCommandName@CMFCToolBarsCustomizeDialog@@QBEPBDI@Z @ 5212 NONAME
 ?GetCommands@CMFCRibbonQuickAccessToolBar@@IAEXAAV?$CList@II@@@Z @ 5213 NONAME
 ?GetCommandsFrame@CMFCRibbonMainPanel@@QBE?AVCRect@@XZ @ 5214 NONAME
 ?GetCommandTarget@CMFCPopupMenuBar@@MBEPAVCWnd@@XZ @ 5215 NONAME
 ?GetCommCtrlVersion@@YAJPAK0@Z @ 5216 NONAME
 ?GetCompactSize@CMFCRibbonButton@@UAE?AVCSize@@PAVCDC@@@Z @ 5217 NONAME
 ?GetCompactSize@CMFCRibbonEdit@@UAE?AVCSize@@PAVCDC@@@Z @ 5218 NONAME
 ?GetCompactSize@CMFCRibbonGallery@@UAE?AVCSize@@PAVCDC@@@Z @ 5219 NONAME
 ?GetCompactSize@CMFCRibbonGalleryIcon@@MAE?AVCSize@@PAVCDC@@@Z @ 5220 NONAME
 ?GetCompactSize@CMFCRibbonLinkCtrl@@UAE?AVCSize@@PAVCDC@@@Z @ 5221 NONAME
 ?GetConnect@CDaoDatabase@@QAE?AV?$CStringT@DV?$StrTraitMFC_DLL@DV?$ChTraitsCRT@D@ATL@@@@@ATL@@XZ @ 5222 NONAME
 ?GetConnect@CDaoQueryDef@@QAE?AV?$CStringT@DV?$StrTraitMFC_DLL@DV?$ChTraitsCRT@D@ATL@@@@@ATL@@XZ @ 5223 NONAME
 ?GetConnect@CDaoTableDef@@QAE?AV?$CStringT@DV?$StrTraitMFC_DLL@DV?$ChTraitsCRT@D@ATL@@@@@ATL@@XZ @ 5224 NONAME
 ?GetConnect@CDatabase@@QBE?AV?$CStringT@DV?$StrTraitMFC_DLL@DV?$ChTraitsCRT@D@ATL@@@@@ATL@@XZ @ 5225 NONAME
 ?GetConnectInfo@CDatabase@@IAEXXZ @ 5226 NONAME
 ?GetConnectionCount@CConnectionPoint@@QAEHXZ @ 5227 NONAME
 ?GetConnectionHook@CCmdTarget@@MAEPAUIConnectionPoint@@ABU_GUID@@@Z @ 5228 NONAME
 ?GetConnectionHook@COleControl@@MAEPAUIConnectionPoint@@ABU_GUID@@@Z @ 5229 NONAME
 ?GetConnectionInterface@XConnPt@CConnectionPoint@@UAGJPAU_GUID@@@Z @ 5230 NONAME
 ?GetConnectionMap@CCmdTarget@@MBEPBUAFX_CONNECTIONMAP@@XZ @ 5231 NONAME
 ?GetConnectionMap@COleControl@@MBEPBUAFX_CONNECTIONMAP@@XZ @ 5232 NONAME
 ?GetConnectionPointContainer@XConnPt@CConnectionPoint@@UAGJPAPAUIConnectionPointContainer@@@Z @ 5233 NONAME
 ?GetConnections@CConnectionPoint@@QAEPBVCPtrArray@@XZ @ 5234 NONAME
 ?GetContainer@CConnectionPoint@@UAEPAUIConnectionPointContainer@@XZ @ 5235 NONAME
 ?GetContainer@CHtmlView@@QBEPAUIDispatch@@XZ @ 5236 NONAME
 ?GetContainer@COleDocument@@UAEPAUIOleItemContainer@@XZ @ 5237 NONAME
 ?GetContainer@COleLinkingDoc@@UAEPAUIOleItemContainer@@XZ @ 5238 NONAME
 ?GetContainer@XOleClientSite@COleClientItem@@UAGJPAPAUIOleContainer@@@Z @ 5239 NONAME
 ?GetContainer@XOleClientSite@COleControlSite@@UAGJPAPAUIOleContainer@@@Z @ 5240 NONAME
 ?GetContainerFrameWindow@COleDocIPFrameWndEx@@QAEPAVCOleCntrFrameWndEx@@XZ @ 5241 NONAME
 ?GetContainerFrameWindow@COleIPFrameWndEx@@QAEPAVCOleCntrFrameWndEx@@XZ @ 5242 NONAME
 ?GetContentExtent@XQuickActivate@COleControl@@UAGJPAUtagSIZE@@@Z @ 5243 NONAME
 ?GetContentsAll@CMFCToolBarEditBoxButton@@SG?AV?$CStringT@DV?$StrTraitMFC_DLL@DV?$ChTraitsCRT@D@ATL@@@@@ATL@@I@Z @ 5244 NONAME
 ?GetContextCaptionIndex@CMFCRibbonContextCaption@@QAEHPAV1@@Z @ 5245 NONAME
 ?GetContextCategories@CMFCRibbonContextCaption@@QAEXAAV?$CArray@PAVCMFCRibbonCategory@@PAV1@@@@Z @ 5246 NONAME
 ?GetContextCategoryCount@CMFCRibbonContextCaption@@QAEHXZ @ 5247 NONAME
 ?GetContextMenu@CRichEditView@@MAEPAUHMENU__@@GPAUIOleObject@@PAU_charrange@@@Z @ 5248 NONAME
 ?GetContextMenu@XRichEditOleCallback@CRichEditView@@UAGJGPAUIOleObject@@PAU_charrange@@PAPAUHMENU__@@@Z @ 5249 NONAME
 ?GetContextMenuManager@CWinAppEx@@QAEPAVCContextMenuManager@@XZ @ 5250 NONAME
 ?GetContextName@CMFCRibbonBar@@QBEHIAAV?$CStringT@DV?$StrTraitMFC_DLL@DV?$ChTraitsCRT@D@ATL@@@@@ATL@@@Z @ 5251 NONAME
 ?GetControlBar@CFrameWnd@@QAEPAVCControlBar@@I@Z @ 5252 NONAME
 ?GetControlContainer@CWnd@@QAEPAVCOleControlContainer@@XZ @ 5253 NONAME
 ?GetControlData@CMFCControlContainer@@QAEHGAAKAAPAE@Z @ 5254 NONAME
 ?GetControlDispatch@CDHtmlDialog@@QAEJPBDPAPAUIDispatch@@@Z @ 5255 NONAME
 ?GetControlFlags@COleControl@@UAEKXZ @ 5256 NONAME
 ?GetControlInfo@COleControlSite@@IAEXXZ @ 5257 NONAME
 ?GetControlInfo@XOleControl@COleControl@@UAGJPAUtagCONTROLINFO@@@Z @ 5258 NONAME
 ?GetControlItemState@CFileDialog@@QAEJKKAAW4CDCONTROLSTATEF@@@Z @ 5259 NONAME
 ?GetControllingFrame@CDocObjectServer@@QBEPAVCOleDocIPFrameWnd@@XZ @ 5260 NONAME
 ?GetControllingUnknown@CCmdTarget@@QAEPAUIUnknown@@XZ @ 5261 NONAME
 ?GetControlProperty@CDHtmlDialog@@QAE?AUtagVARIANT@@PAUIDispatch@@J@Z @ 5262 NONAME
 ?GetControlProperty@CDHtmlDialog@@QAE?AUtagVARIANT@@PBD0@Z @ 5263 NONAME
 ?GetControlProperty@CDHtmlDialog@@QAE?AUtagVARIANT@@PBDJ@Z @ 5264 NONAME
 ?GetControlSize@COleControl@@QAEXPAH0@Z @ 5265 NONAME
 ?GetControlState@CFileDialog@@QAEJKAAW4CDCONTROLSTATEF@@@Z @ 5266 NONAME
 ?GetControlStatus@COlePropertyPage@@QAEHI@Z @ 5267 NONAME
 ?GetControlUnknown@CWnd@@QAEPAUIUnknown@@XZ @ 5268 NONAME
 ?GetConvertInfo@XOleUIObjInfo@COlePropertiesDialog@@UAGJKPAU_GUID@@PAG0PAPAU3@PAI@Z @ 5269 NONAME
 ?GetCookie@CInternetSession@@SAHPBD0AAV?$CStringT@DV?$StrTraitMFC_DLL@DV?$ChTraitsCRT@D@ATL@@@@@ATL@@@Z @ 5270 NONAME
 ?GetCookie@CInternetSession@@SAHPBD0PADK@Z @ 5271 NONAME
 ?GetCookieLength@CInternetSession@@SAKPBD0@Z @ 5272 NONAME
 ?GetCopies@CPrintDialog@@QBEHXZ @ 5273 NONAME
 ?GetCopies@CPrintDialogEx@@QBEHXZ @ 5274 NONAME
 ?GetCount@CMFCCmdUsageCount@@QBEII@Z @ 5275 NONAME
 ?GetCount@CMFCDropDownListBox@@QBEHXZ @ 5276 NONAME
 ?GetCount@CMFCRibbonPanel@@QBEHXZ @ 5277 NONAME
 ?GetCount@CMFCRibbonStatusBar@@QBEHXZ @ 5278 NONAME
 ?GetCount@CMFCToolBar@@QBEHXZ @ 5279 NONAME
 ?GetCount@CMFCToolBarComboBoxButton@@QBEHXZ @ 5280 NONAME
 ?GetCount@CPropertySection@@QAEKXZ @ 5281 NONAME
 ?GetCount@CPropertySet@@QAEKXZ @ 5282 NONAME
 ?GetCount@CVSListBox@@UBEHXZ @ 5283 NONAME
 ?GetCountAll@CMFCToolBarComboBoxButton@@SGHI@Z @ 5284 NONAME
 ?GetCountInCategory@CMFCToolBarsCustomizeDialog@@QBEHPBDABVCObList@@@Z @ 5285 NONAME
 ?GetCreationTime@CFileFind@@UBEHAAVCTime@ATL@@@Z @ 5286 NONAME
 ?GetCreationTime@CFileFind@@UBEHPAU_FILETIME@@@Z @ 5287 NONAME
 ?GetCreationTime@CGopherFileFind@@UBEHAAVCTime@ATL@@@Z @ 5288 NONAME
 ?GetCreationTime@CGopherFileFind@@UBEHPAU_FILETIME@@@Z @ 5289 NONAME
 ?GetCurFile@XPersistFile@COleLinkingDoc@@UAGJPAPA_W@Z @ 5290 NONAME
 ?GetCurrentAlignment@CBasePane@@UBEKXZ @ 5291 NONAME
 ?GetCurrentDirectoryA@CFtpConnection@@QBEHAAV?$CStringT@DV?$StrTraitMFC_DLL@DV?$ChTraitsCRT@D@ATL@@@@@ATL@@@Z @ 5292 NONAME
 ?GetCurrentDirectoryA@CFtpConnection@@QBEHPADPAK@Z @ 5293 NONAME
 ?GetCurrentDirectoryAsURL@CFtpConnection@@QBEHAAV?$CStringT@DV?$StrTraitMFC_DLL@DV?$ChTraitsCRT@D@ATL@@@@@ATL@@@Z @ 5294 NONAME
 ?GetCurrentDirectoryAsURL@CFtpConnection@@QBEHPADPAK@Z @ 5295 NONAME
 ?GetCurrentFolder@CMFCShellListCtrl@@QBEHAAV?$CStringT@DV?$StrTraitMFC_DLL@DV?$ChTraitsCRT@D@ATL@@@@@ATL@@@Z @ 5296 NONAME
 ?GetCurrentFolderName@CMFCShellListCtrl@@QBEHAAV?$CStringT@DV?$StrTraitMFC_DLL@DV?$ChTraitsCRT@D@ATL@@@@@ATL@@@Z @ 5297 NONAME
 ?GetCurrentFont@CFontDialog@@QAEXPAUtagLOGFONTA@@@Z @ 5298 NONAME
 ?GetCurrentFont@CMFCStatusBar@@IBEPAUHFONT__@@XZ @ 5299 NONAME
 ?GetCurrentIndex@CDaoRecordset@@QAE?AV?$CStringT@DV?$StrTraitMFC_DLL@DV?$ChTraitsCRT@D@ATL@@@@@ATL@@XZ @ 5300 NONAME
 ?GetCurrentMessage@CWnd@@KGPBUtagMSG@@XZ @ 5301 NONAME
 ?GetCurrentUrl@CDHtmlDialog@@QAEXAAV?$CStringT@DV?$StrTraitMFC_DLL@DV?$ChTraitsCRT@D@ATL@@@@@ATL@@@Z @ 5302 NONAME
 ?GetCurSel@CMFCDropDownListBox@@QAEHXZ @ 5303 NONAME
 ?GetCurSel@CMonthCalCtrl@@QBEHAAVCOleDateTime@ATL@@@Z @ 5304 NONAME
 ?GetCurSel@CMonthCalCtrl@@QBEHAAVCTime@ATL@@@Z @ 5305 NONAME
 ?GetCurSelAll@CMFCToolBarComboBoxButton@@SGHI@Z @ 5306 NONAME
 ?GetCursor@CDataBoundProperty@@QAEPAUIUnknown@@XZ @ 5307 NONAME
 ?GetCursor@CDataSourceControl@@UAEPAUIUnknown@@XZ @ 5308 NONAME
 ?GetCursor@COleControlSite@@IAEJJPAPAUIUnknown@@PAPAX@Z @ 5309 NONAME
 ?GetCursor@XBoundObjectSite@COleControlSite@@UAGJJPAPAUICursor@@PAPAX@Z @ 5310 NONAME
 ?GetCursorPos@CMFCColorPickerCtrl@@IAE?AVCPoint@@XZ @ 5311 NONAME
 ?GetCursorRect@CMFCColorPickerCtrl@@IAE?AVCRect@@XZ @ 5312 NONAME
 ?GetCustomColors@CMFCPropertyGridCtrl@@QAEXAAK000000@Z @ 5313 NONAME
 ?GetData@?$CSimpleStringT@_W$00@ATL@@ABEPAUCStringData@2@XZ @ 5314 NONAME
 ?GetData@?$CSimpleStringT@D$00@ATL@@ABEPAUCStringData@2@XZ @ 5315 NONAME
 ?GetData@COleDataObject@@QAEHGPAUtagSTGMEDIUM@@PAUtagFORMATETC@@@Z @ 5316 NONAME
 ?GetData@CProcessLocalObject@@QAEPAVCNoTrackObject@@P6GPAV2@XZ@Z @ 5317 NONAME
 ?GetData@CRecordset@@SGJPAVCDatabase@@PAXFF1JF@Z @ 5318 NONAME
 ?GetData@CThreadLocalObject@@QAEPAVCNoTrackObject@@P6GPAV2@XZ@Z @ 5319 NONAME
 ?GetData@XDataObject@COleControl@@UAGJPAUtagFORMATETC@@PAUtagSTGMEDIUM@@@Z @ 5320 NONAME
 ?GetData@XDataObject@COleDataSource@@UAGJPAUtagFORMATETC@@PAUtagSTGMEDIUM@@@Z @ 5321 NONAME
 ?GetData@XDataObject@COleServerDoc@@UAGJPAUtagFORMATETC@@PAUtagSTGMEDIUM@@@Z @ 5322 NONAME
 ?GetData@XDataObject@COleServerItem@@UAGJPAUtagFORMATETC@@PAUtagSTGMEDIUM@@@Z @ 5323 NONAME
 ?GetDataAndFixupNulls@CDaoRecordset@@QAEXXZ @ 5324 NONAME
 ?GetDatabaseCount@CDaoWorkspace@@QAEFXZ @ 5325 NONAME
 ?GetDatabaseInfo@CDaoWorkspace@@QAEXHAAUCDaoDatabaseInfo@@K@Z @ 5326 NONAME
 ?GetDatabaseInfo@CDaoWorkspace@@QAEXPBDAAUCDaoDatabaseInfo@@K@Z @ 5327 NONAME
 ?GetDatabaseName@CDatabase@@QBE?AV?$CStringT@DV?$StrTraitMFC_DLL@DV?$ChTraitsCRT@D@ATL@@@@@ATL@@XZ @ 5328 NONAME
 ?GetDataBuffer@CRecordset@@SGPAXAAVCDBVariant@@FPAJFK@Z @ 5329 NONAME
 ?GetDataHere@XDataObject@COleControl@@UAGJPAUtagFORMATETC@@PAUtagSTGMEDIUM@@@Z @ 5330 NONAME
 ?GetDataHere@XDataObject@COleDataSource@@UAGJPAUtagFORMATETC@@PAUtagSTGMEDIUM@@@Z @ 5331 NONAME
 ?GetDataHere@XDataObject@COleServerDoc@@UAGJPAUtagFORMATETC@@PAUtagSTGMEDIUM@@@Z @ 5332 NONAME
 ?GetDataHere@XDataObject@COleServerItem@@UAGJPAUtagFORMATETC@@PAUtagSTGMEDIUM@@@Z @ 5333 NONAME
 ?GetDataNA@CThreadLocalObject@@QAEPAVCNoTrackObject@@XZ @ 5334 NONAME
 ?GetDataObject@COleServerItem@@QAEPAUIDataObject@@XZ @ 5335 NONAME
 ?GetDataRecoveryHandler@CWinApp@@UAEPAVCDataRecoveryHandler@@XZ @ 5336 NONAME
 ?GetDataSource@COleControl@@IAEPAVCControlDataSource@1@XZ @ 5337 NONAME
 ?GetDataVersion@CWinAppEx@@QBEHXZ @ 5338 NONAME
 ?GetDateCreated@CDaoQueryDef@@QAE?AVCOleDateTime@ATL@@XZ @ 5339 NONAME
 ?GetDateCreated@CDaoRecordset@@QAE?AVCOleDateTime@ATL@@XZ @ 5340 NONAME
 ?GetDateCreated@CDaoTableDef@@QAE?AVCOleDateTime@ATL@@XZ @ 5341 NONAME
 ?GetDateLastUpdated@CDaoQueryDef@@QAE?AVCOleDateTime@ATL@@XZ @ 5342 NONAME
 ?GetDateLastUpdated@CDaoRecordset@@QAE?AVCOleDateTime@ATL@@XZ @ 5343 NONAME
 ?GetDateLastUpdated@CDaoTableDef@@QAE?AVCOleDateTime@ATL@@XZ @ 5344 NONAME
 ?GetDC@COleControl@@QAEPAVCDC@@PBUtagRECT@@K@Z @ 5345 NONAME
 ?GetDC@XOleIPSite@COleControlSite@@UAGJPBUtagRECT@@KPAPAUHDC__@@@Z @ 5346 NONAME
 ?GetDefaultAccelerator@CDocument@@UAEPAUHACCEL__@@XZ @ 5347 NONAME
 ?GetDefaultAccelerator@CFrameWnd@@UAEPAUHACCEL__@@XZ @ 5348 NONAME
 ?GetDefaultAccelerator@COleServerDoc@@MAEPAUHACCEL__@@XZ @ 5349 NONAME
 ?GetDefaultCharFormat@CRichEditCtrl@@QBEKAAU_charformat@@@Z @ 5350 NONAME
 ?GetDefaultCharFormat@CRichEditCtrl@@QBEKAAUCHARFORMAT2A@@@Z @ 5351 NONAME
 ?GetDefaultCommands@CMFCRibbonQuickAccessToolBar@@IAEXAAV?$CList@II@@@Z @ 5352 NONAME
 ?GetDefaultConnect@CRecordset@@UAE?AV?$CStringT@DV?$StrTraitMFC_DLL@DV?$ChTraitsCRT@D@ATL@@@@@ATL@@XZ @ 5353 NONAME
 ?GetDefaultDBName@CDaoRecordset@@UAE?AV?$CStringT@DV?$StrTraitMFC_DLL@DV?$ChTraitsCRT@D@ATL@@@@@ATL@@XZ @ 5354 NONAME
 ?GetDefaultFieldType@CRecordset@@SGFF@Z @ 5355 NONAME
 ?GetDefaultMenu@CDocument@@UAEPAUHMENU__@@XZ @ 5356 NONAME
 ?GetDefaultMenu@COleServerDoc@@MAEPAUHMENU__@@XZ @ 5357 NONAME
 ?GetDefaultPaneDivider@CDockablePane@@QBEPAVCPaneDivider@@XZ @ 5358 NONAME
 ?GetDefaults@CPrintDialog@@QAEHXZ @ 5359 NONAME
 ?GetDefaults@CPrintDialogEx@@QAEHXZ @ 5360 NONAME
 ?GetDefaultSQL@CDaoRecordset@@UAE?AV?$CStringT@DV?$StrTraitMFC_DLL@DV?$ChTraitsCRT@D@ATL@@@@@ATL@@XZ @ 5361 NONAME
 ?GetDefaultSQL@CRecordset@@UAE?AV?$CStringT@DV?$StrTraitMFC_DLL@DV?$ChTraitsCRT@D@ATL@@@@@ATL@@XZ @ 5362 NONAME
 ?GetDefaultValue@CAnimationColor@@QAEKXZ @ 5363 NONAME
 ?GetDefaultValue@CAnimationPoint@@QAE?AVCPoint@@XZ @ 5364 NONAME
 ?GetDefaultValue@CAnimationRect@@QAE?AVCRect@@XZ @ 5365 NONAME
 ?GetDefaultValue@CAnimationSize@@QAE?AVCSize@@XZ @ 5366 NONAME
 ?GetDefBtnCode@COccManager@@SAKPAVCWnd@@@Z @ 5367 NONAME
 ?GetDefBtnCode@COleControlSite@@QAEKXZ @ 5368 NONAME
 ?GetDescendantWindow@CWnd@@SGPAV1@PAUHWND__@@HH@Z @ 5369 NONAME
 ?GetDescription@CMFCRibbonBaseElement@@UBE?AV?$CStringT@DV?$StrTraitMFC_DLL@DV?$ChTraitsCRT@D@ATL@@@@@ATL@@XZ @ 5370 NONAME
 ?GetDescription@CMFCRibbonGalleryIcon@@MBE?AV?$CStringT@DV?$StrTraitMFC_DLL@DV?$ChTraitsCRT@D@ATL@@@@@ATL@@XZ @ 5371 NONAME
 ?GetDeviceName@CPageSetupDialog@@QBE?AV?$CStringT@DV?$StrTraitMFC_DLL@DV?$ChTraitsCRT@D@ATL@@@@@ATL@@XZ @ 5372 NONAME
 ?GetDeviceName@CPrintDialog@@QBE?AV?$CStringT@DV?$StrTraitMFC_DLL@DV?$ChTraitsCRT@D@ATL@@@@@ATL@@XZ @ 5373 NONAME
 ?GetDeviceName@CPrintDialogEx@@QBE?AV?$CStringT@DV?$StrTraitMFC_DLL@DV?$ChTraitsCRT@D@ATL@@@@@ATL@@XZ @ 5374 NONAME
 ?GetDeviceScrollPosition@CScrollView@@QBE?AVCPoint@@XZ @ 5375 NONAME
 ?GetDeviceScrollSizes@CScrollView@@QBEXAAHAAUtagSIZE@@11@Z @ 5376 NONAME
 ?GetDevMode@CPageSetupDialog@@QBEPAU_devicemodeA@@XZ @ 5377 NONAME
 ?GetDevMode@CPrintDialog@@QBEPAU_devicemodeA@@XZ @ 5378 NONAME
 ?GetDevMode@CPrintDialogEx@@QBEPAU_devicemodeA@@XZ @ 5379 NONAME
 ?GetDHtmlCommandMapping@CHtmlEditView@@UAEIIAAHAAI@Z @ 5380 NONAME
 ?GetDHtmlDocument@CDHtmlDialog@@UAEJPAPAUIHTMLDocument2@@@Z @ 5381 NONAME
 ?GetDHtmlDocument@CHtmlEditCtrl@@QBEHPAPAUIHTMLDocument2@@@Z @ 5382 NONAME
 ?GetDHtmlDocument@CHtmlEditView@@QBEHPAPAUIHTMLDocument2@@@Z @ 5383 NONAME
 ?GetDHtmlEventMap@@YAPBUDHtmlEventMapEntry@@XZ @ 5384 NONAME
 ?GetDHtmlEventMap@CDHtmlDialog@@MAEPBUDHtmlEventMapEntry@@XZ @ 5385 NONAME
 ?GetDHtmlEventMap@CMultiPageDHtmlDialog@@MAEPBUDHtmlEventMapEntry@@XZ @ 5386 NONAME
 ?GetDialogSize@CMFCDesktopAlertWnd@@UAE?AVCSize@@XZ @ 5387 NONAME
 ?GetDispatchIID@CCmdTarget@@UAEHPAU_GUID@@@Z @ 5388 NONAME
 ?GetDispatchIID@COleControl@@MAEHPAU_GUID@@@Z @ 5389 NONAME
 ?GetDispatchMap@CCmdTarget@@MBEPBUAFX_DISPMAP@@XZ @ 5390 NONAME
 ?GetDispatchMap@COleControlContainer@@MBEPBUAFX_DISPMAP@@XZ @ 5391 NONAME
 ?GetDispEntry@CCmdTarget@@IAGPBUAFX_DISPMAP_ENTRY@@J@Z @ 5392 NONAME
 ?GetDisplayName@CRecentFileList@@UBEHAAV?$CStringT@DV?$StrTraitMFC_DLL@DV?$ChTraitsCRT@D@ATL@@@@@ATL@@HPBDHH@Z @ 5393 NONAME
 ?GetDisplayString@CFontHolder@@QAEHAAV?$CStringT@DV?$StrTraitMFC_DLL@DV?$ChTraitsCRT@D@ATL@@@@@ATL@@@Z @ 5394 NONAME
 ?GetDisplayString@CPictureHolder@@QAEHAAV?$CStringT@DV?$StrTraitMFC_DLL@DV?$ChTraitsCRT@D@ATL@@@@@ATL@@@Z @ 5395 NONAME
 ?GetDisplayString@XPerPropertyBrowsing@COleControl@@UAGJJPAPA_W@Z @ 5396 NONAME
 ?GetDlgCtrlID@COleControlSite@@UBEHXZ @ 5397 NONAME
 ?GetDlgCtrlID@CWnd@@QBEHXZ @ 5398 NONAME
 ?GetDlgItem@COleControlContainer@@UBEPAVCWnd@@H@Z @ 5399 NONAME
 ?GetDlgItem@COleControlContainer@@UBEXHPAPAUHWND__@@@Z @ 5400 NONAME
 ?GetDlgItem@CWnd@@QBEPAV1@H@Z @ 5401 NONAME
 ?GetDlgItem@CWnd@@QBEXHPAPAUHWND__@@@Z @ 5402 NONAME
 ?GetDlgItemInt@COleControlContainer@@UBEIHPAHH@Z @ 5403 NONAME
 ?GetDlgItemInt@CWnd@@QBEIHPAHH@Z @ 5404 NONAME
 ?GetDlgItemTextA@COleControlContainer@@UBEHHPADH@Z @ 5405 NONAME
 ?GetDlgItemTextA@CWnd@@QBEHHAAV?$CStringT@DV?$StrTraitMFC_DLL@DV?$ChTraitsCRT@D@ATL@@@@@ATL@@@Z @ 5406 NONAME
 ?GetDlgItemTextA@CWnd@@QBEHHPADH@Z @ 5407 NONAME
 ?GetDlgSize@CMFCDesktopAlertDialog@@QAE?AVCSize@@XZ @ 5408 NONAME
 ?GetDockBar@CDockContext@@QAEPAVCDockBar@@K@Z @ 5409 NONAME
 ?GetDockedControlBar@CDockBar@@IBEPAVCControlBar@@H@Z @ 5410 NONAME
 ?GetDockedCount@CDockBar@@QBEHXZ @ 5411 NONAME
 ?GetDockedVisibleCount@CDockBar@@UBEHXZ @ 5412 NONAME
 ?GetDockingFrame@CControlBar@@QBEPAVCFrameWnd@@XZ @ 5413 NONAME
 ?GetDockingManager@CGlobalUtils@@QAEPAVCDockingManager@@PAVCWnd@@@Z @ 5414 NONAME
 ?GetDockingMode@CBasePane@@UBE?AW4AFX_DOCK_TYPE@@XZ @ 5415 NONAME
 ?GetDockingMode@CPaneFrameWnd@@UBE?AW4AFX_DOCK_TYPE@@XZ @ 5416 NONAME
 ?GetDockingStatus@CDockablePane@@UAE?AW4AFX_CS_STATUS@@VCPoint@@H@Z @ 5417 NONAME
 ?GetDockingStatus@CMFCOutlookBar@@UAE?AW4AFX_CS_STATUS@@VCPoint@@H@Z @ 5418 NONAME
 ?GetDockingTabsBordersSize@CMFCVisualManagerVS2005@@UAEHXZ @ 5419 NONAME
 ?GetDockSiteFrameWnd@CBasePane@@UBEPAVCWnd@@XZ @ 5420 NONAME
 ?GetDockState@CFrameWnd@@QBEXAAVCDockState@@@Z @ 5421 NONAME
 ?GetDocMiscStatus@XOleDocument@CDocObjectServer@@UAGJPAK@Z @ 5422 NONAME
 ?GetDocObjectServer@COleServerDoc@@MAEPAVCDocObjectServer@@PAUIOleDocumentSite@@@Z @ 5423 NONAME
 ?GetDocString@CDocTemplate@@UBEHAAV?$CStringT@DV?$StrTraitMFC_DLL@DV?$ChTraitsCRT@D@ATL@@@@@ATL@@W4DocStringIndex@1@@Z @ 5424 NONAME
 ?GetDocument@XOleDocumentView@CDocObjectServer@@UAGJPAPAUIUnknown@@@Z @ 5425 NONAME
 ?GetDocumentCount@CDocManager@@IAEHXZ @ 5426 NONAME
 ?GetDocumentIcon@CMFCTabCtrl@@SGPAUHICON__@@I@Z @ 5427 NONAME
 ?GetDocumentListName@CDataRecoveryHandler@@UBE?AV?$CStringT@DV?$StrTraitMFC_DLL@DV?$ChTraitsCRT@D@ATL@@@@@ATL@@PAVCDocument@@@Z @ 5428 NONAME
 ?GetDocumentName@CMDIChildWndEx@@UAEPBDPAPAVCObject@@@Z @ 5429 NONAME
 ?GetDPI@CD2DBitmap@@QBE?AVCD2DSizeF@@XZ @ 5430 NONAME
 ?GetDpi@CRenderTarget@@QBE?AVCD2DSizeF@@XZ @ 5431 NONAME
 ?GetDragDropEffect@XRichEditOleCallback@CRichEditView@@UAGJHKPAK@Z @ 5432 NONAME
 ?GetDriverName@CPageSetupDialog@@QBE?AV?$CStringT@DV?$StrTraitMFC_DLL@DV?$ChTraitsCRT@D@ATL@@@@@ATL@@XZ @ 5433 NONAME
 ?GetDriverName@CPrintDialog@@QBE?AV?$CStringT@DV?$StrTraitMFC_DLL@DV?$ChTraitsCRT@D@ATL@@@@@ATL@@XZ @ 5434 NONAME
 ?GetDriverName@CPrintDialogEx@@QBE?AV?$CStringT@DV?$StrTraitMFC_DLL@DV?$ChTraitsCRT@D@ATL@@@@@ATL@@XZ @ 5435 NONAME
 ?GetDropDownImageWidth@CMFCRibbonBaseElement@@MBEHXZ @ 5436 NONAME
 ?GetDroppedDown@CMFCRibbonBar@@UAEPAVCMFCRibbonBaseElement@@XZ @ 5437 NONAME
 ?GetDroppedDown@CMFCRibbonBaseElement@@UAEPAV1@XZ @ 5438 NONAME
 ?GetDroppedDown@CMFCRibbonButtonsGroup@@MAEPAVCMFCRibbonBaseElement@@XZ @ 5439 NONAME
 ?GetDroppedDown@CMFCRibbonCategory@@QAEPAVCMFCRibbonBaseElement@@XZ @ 5440 NONAME
 ?GetDroppedDown@CMFCRibbonGallery@@UAEPAVCMFCRibbonBaseElement@@XZ @ 5441 NONAME
 ?GetDroppedDown@CMFCRibbonPanel@@QBEPAVCMFCRibbonBaseElement@@XZ @ 5442 NONAME
 ?GetDroppedDown@CMFCRibbonPanelMenuBar@@QBEPAVCMFCRibbonButton@@XZ @ 5443 NONAME
 ?GetDroppedDown@CMFCRibbonStatusBar@@MAEPAVCMFCRibbonBaseElement@@XZ @ 5444 NONAME
 ?GetDroppedDownMenu@CMFCToolBar@@QBEPAVCMFCToolBarMenuButton@@PAH@Z @ 5445 NONAME
 ?GetDropTarget@CBrowserControlSite@@MAGJPAUIDropTarget@@PAPAU2@@Z @ 5446 NONAME
 ?GetDropTarget@CDHtmlDialog@@UAGJPAUIDropTarget@@PAPAU2@@Z @ 5447 NONAME
 ?GetDropTarget@CToolBarCtrl@@QBEJPAPAUIDropTarget@@@Z @ 5448 NONAME
 ?GetDropTarget@XDocHostUIHandler@CHtmlControlSite@@UAGJPAUIDropTarget@@PAPAU3@@Z @ 5449 NONAME
 ?GetDropTarget@XOleInPlaceObject@COleControl@@UAGJPAPAUIDropTarget@@@Z @ 5450 NONAME
 ?GetDSCCursor@CWnd@@QAEPAUIUnknown@@XZ @ 5451 NONAME
 ?GetEditBorder@CMFCToolBarEditBoxButton@@UAEXAAVCRect@@@Z @ 5452 NONAME
 ?GetEditBorder@CMFCToolBarSpinEditBoxButton@@MAEXAAVCRect@@@Z @ 5453 NONAME
 ?GetEditBoxText@CFileDialog@@QAEJKAAV?$CStringT@DV?$StrTraitMFC_DLL@DV?$ChTraitsCRT@D@ATL@@@@@ATL@@@Z @ 5454 NONAME
 ?GetEditMode@CDaoRecordset@@QAEFXZ @ 5455 NONAME
 ?GetElement@CDHtmlDialog@@QAEJPBDPAPAUIDispatch@@PAH@Z @ 5456 NONAME
 ?GetElement@CDHtmlDialog@@QAEJPBDPAPAUIHTMLElement@@@Z @ 5457 NONAME
 ?GetElement@CMFCRibbonPanel@@QBEPAVCMFCRibbonBaseElement@@H@Z @ 5458 NONAME
 ?GetElement@CMFCRibbonStatusBar@@QAEPAVCMFCRibbonBaseElement@@H@Z @ 5459 NONAME
 ?GetElement@COleSafeArray@@QAEXPAJPAX@Z @ 5460 NONAME
 ?GetElementHtml@CDHtmlDialog@@QAEPA_WPBD@Z @ 5461 NONAME
 ?GetElementImages@CMFCRibbonCollector@@MAEXABVCMFCRibbonBaseElement@@AAVXImage@CMFCRibbonInfo@@@Z @ 5462 NONAME
 ?GetElementInterface@CDHtmlDialog@@QAEJPBDABU_GUID@@PAPAX@Z @ 5463 NONAME
 ?GetElementProperty@CDHtmlDialog@@QAE?AUtagVARIANT@@PBDJ@Z @ 5464 NONAME
 ?GetElements@CMFCRibbonButton@@MAEXAAV?$CArray@PAVCMFCRibbonBaseElement@@PAV1@@@@Z @ 5465 NONAME
 ?GetElements@CMFCRibbonCategory@@QAEXAAV?$CArray@PAVCMFCRibbonBaseElement@@PAV1@@@@Z @ 5466 NONAME
 ?GetElements@CMFCRibbonPanel@@QAEXAAV?$CArray@PAVCMFCRibbonBaseElement@@PAV1@@@@Z @ 5467 NONAME
 ?GetElementsByID@CMFCRibbonBar@@QAEXIAAV?$CArray@PAVCMFCRibbonBaseElement@@PAV1@@@@Z @ 5468 NONAME
 ?GetElementsByID@CMFCRibbonBaseElement@@UAEXIAAV?$CArray@PAVCMFCRibbonBaseElement@@PAV1@@@@Z @ 5469 NONAME
 ?GetElementsByID@CMFCRibbonButton@@MAEXIAAV?$CArray@PAVCMFCRibbonBaseElement@@PAV1@@@@Z @ 5470 NONAME
 ?GetElementsByID@CMFCRibbonButtonsGroup@@MAEXIAAV?$CArray@PAVCMFCRibbonBaseElement@@PAV1@@@@Z @ 5471 NONAME
 ?GetElementsByID@CMFCRibbonCategory@@QAEXIAAV?$CArray@PAVCMFCRibbonBaseElement@@PAV1@@@@Z @ 5472 NONAME
 ?GetElementsByID@CMFCRibbonPanel@@QAEXIAAV?$CArray@PAVCMFCRibbonBaseElement@@PAV1@@@@Z @ 5473 NONAME
 ?GetElementText@CDHtmlDialog@@QAEPA_WPBD@Z @ 5474 NONAME
 ?GetEmbeddedItem@COleServerDoc@@QAEPAVCOleServerItem@@XZ @ 5475 NONAME
 ?GetEmbeddedItemData@COleClientItem@@IAEXPAUtagSTGMEDIUM@@@Z @ 5476 NONAME
 ?GetEmbedSourceData@COleServerItem@@QAEXPAUtagSTGMEDIUM@@@Z @ 5477 NONAME
 ?GetEnabled@COleControl@@QAEHXZ @ 5478 NONAME
 ?GetEndPoint@CD2DLinearGradientBrush@@QBE?AVCD2DPointF@@XZ @ 5479 NONAME
 ?GetEntryCount@CCmdTarget@@KGIPBUAFX_DISPMAP@@@Z @ 5480 NONAME
 ?GetEnumVariant@XAccessibleServer@CWnd@@UAGJPAPAUIEnumVARIANT@@@Z @ 5481 NONAME
 ?GetEnvironmentVariable@?$CStringT@_WV?$StrTraitMFC_DLL@_WV?$ChTraitsCRT@_W@ATL@@@@@ATL@@QAEHPB_W@Z @ 5482 NONAME
 ?GetEnvironmentVariable@?$CStringT@DV?$StrTraitMFC_DLL@DV?$ChTraitsCRT@D@ATL@@@@@ATL@@QAEHPBD@Z @ 5483 NONAME
 ?GetEnvironmentVariableA@?$CStringT@_WV?$StrTraitMFC_DLL@_WV?$ChTraitsCRT@_W@ATL@@@@@ATL@@QAEHPB_W@Z @ 5484 NONAME
 ?GetEnvironmentVariableA@?$CStringT@DV?$StrTraitMFC_DLL@DV?$ChTraitsCRT@D@ATL@@@@@ATL@@QAEHPBD@Z @ 5485 NONAME
 ?GetErrorCount@CDaoException@@QAEFXZ @ 5486 NONAME
 ?GetErrorInfo@CDaoException@@QAEXH@Z @ 5487 NONAME
 ?GetErrorMessage@CArchiveException@@UBEHPADIPAI@Z @ 5488 NONAME
 ?GetErrorMessage@CDaoException@@UBEHPADIPAI@Z @ 5489 NONAME
 ?GetErrorMessage@CDBException@@UBEHPADIPAI@Z @ 5490 NONAME
 ?GetErrorMessage@CException@@UAEHPADIPAI@Z @ 5491 NONAME
 ?GetErrorMessage@CException@@UBEHPADIPAI@Z @ 5492 NONAME
 ?GetErrorMessage@CFileException@@UBEHPADIPAI@Z @ 5493 NONAME
 ?GetErrorMessage@CInternetException@@UBEHPADIPAI@Z @ 5494 NONAME
 ?GetErrorMessage@COleDispatchException@@UBEHPADIPAI@Z @ 5495 NONAME
 ?GetErrorMessage@COleException@@UBEHPADIPAI@Z @ 5496 NONAME
 ?GetErrorMessage@CSimpleException@@UBEHPADIPAI@Z @ 5497 NONAME
 ?GetEvent@CDHtmlDialog@@QAEJPAPAUIHTMLEventObj@@@Z @ 5498 NONAME
 ?GetEventIID@COleControlSite@@QAEHPAU_GUID@@@Z @ 5499 NONAME
 ?GetEventMap@COleControl@@MBEPBUAFX_EVENTMAP@@XZ @ 5500 NONAME
 ?GetEventMapEntry@COleControl@@IBEPBUAFX_EVENTMAP_ENTRY@@PBDPAJ@Z @ 5501 NONAME
 ?GetEventMapForUrl@CMultiPageDHtmlDialog@@MAEPBUDHtmlEventMapEntry@@PBD@Z @ 5502 NONAME
 ?GetEventSinkEntry@CCmdTarget@@IAGPBUAFX_EVENTSINKMAP_ENTRY@@IPAUAFX_EVENT@@@Z @ 5503 NONAME
 ?GetEventSinkMap@CCmdTarget@@MBEPBUAFX_EVENTSINKMAP@@XZ @ 5504 NONAME
 ?GetEventSinkMap@CDHtmlDialog@@MBEPBUAFX_EVENTSINKMAP@@XZ @ 5505 NONAME
 ?GetEventSinkMap@CHtmlEditCtrl@@MBEPBUAFX_EVENTSINKMAP@@XZ @ 5506 NONAME
 ?GetEventSinkMap@CHtmlView@@MBEPBUAFX_EVENTSINKMAP@@XZ @ 5507 NONAME
 ?GetExCount@CMFCRibbonStatusBar@@QBEHXZ @ 5508 NONAME
 ?GetExElement@CMFCRibbonStatusBar@@QAEPAVCMFCRibbonBaseElement@@H@Z @ 5509 NONAME
 ?GetExpandedSubItems@CMFCPropertyGridProperty@@QBEHH@Z @ 5510 NONAME
 ?GetExStyle@COleControlSite@@UBEKXZ @ 5511 NONAME
 ?GetExStyle@CWnd@@QBEKXZ @ 5512 NONAME
 ?GetExtendedArea@CMFCRibbonStatusBar@@UBEHAAVCRect@@@Z @ 5513 NONAME
 ?GetExtendedArea@CMFCStatusBar@@UBEHAAVCRect@@@Z @ 5514 NONAME
 ?GetExtendedControl@COleControl@@QAEPAUIDispatch@@XZ @ 5515 NONAME
 ?GetExtendedControl@XOleControlSite@COleControlSite@@UAGJPAPAUIDispatch@@@Z @ 5516 NONAME
 ?GetExtendModeX@CD2DBitmapBrush@@QBE?AW4D2D1_EXTEND_MODE@@XZ @ 5517 NONAME
 ?GetExtendModeY@CD2DBitmapBrush@@QBE?AW4D2D1_EXTEND_MODE@@XZ @ 5518 NONAME
 ?GetExtent@COleClientItem@@QAEHPAUtagSIZE@@W4tagDVASPECT@@@Z @ 5519 NONAME
 ?GetExtent@XOleObject@CDocObjectServer@@UAGJKPAUtagSIZE@@@Z @ 5520 NONAME
 ?GetExtent@XOleObject@COleControl@@UAGJKPAUtagSIZE@@@Z @ 5521 NONAME
 ?GetExtent@XOleObject@COleServerDoc@@UAGJKPAUtagSIZE@@@Z @ 5522 NONAME
 ?GetExtent@XOleObject@COleServerItem@@UAGJKPAUtagSIZE@@@Z @ 5523 NONAME
 ?GetExtent@XViewObject@COleControl@@UAGJKJPAUtagDVTARGETDEVICE@@PAUtagSIZE@@@Z @ 5524 NONAME
 ?GetExternal@CBrowserControlSite@@MAGJPAPAUIDispatch@@@Z @ 5525 NONAME
 ?GetExternal@CDHtmlDialog@@UAGJPAPAUIDispatch@@@Z @ 5526 NONAME
 ?GetExternal@XDocHostUIHandler@CHtmlControlSite@@UAGJPAPAUIDispatch@@@Z @ 5527 NONAME
 ?GetExtraConnectionPoints@CCmdTarget@@MAEHPAVCPtrArray@@@Z @ 5528 NONAME
 ?GetExtraConnectionPoints@COleControl@@MAEHPAVCPtrArray@@@Z @ 5529 NONAME
 ?GetExtraHeight@CMFCColorBar@@IBEHH@Z @ 5530 NONAME
 ?GetFieldCount@CDaoQueryDef@@QAEFXZ @ 5531 NONAME
 ?GetFieldCount@CDaoRecordset@@QAEFXZ @ 5532 NONAME
 ?GetFieldCount@CDaoTableDef@@QAEFXZ @ 5533 NONAME
 ?GetFieldIndex@CDaoRecordset@@IAEHPAX@Z @ 5534 NONAME
 ?GetFieldIndexByName@CRecordset@@QAEFPBD@Z @ 5535 NONAME
 ?GetFieldInfo@CDaoQueryDef@@QAEXHAAUCDaoFieldInfo@@K@Z @ 5536 NONAME
 ?GetFieldInfo@CDaoQueryDef@@QAEXPBDAAUCDaoFieldInfo@@K@Z @ 5537 NONAME
 ?GetFieldInfo@CDaoRecordset@@QAEXHAAUCDaoFieldInfo@@K@Z @ 5538 NONAME
 ?GetFieldInfo@CDaoRecordset@@QAEXPBDAAUCDaoFieldInfo@@K@Z @ 5539 NONAME
 ?GetFieldInfo@CDaoTableDef@@QAEXHAAUCDaoFieldInfo@@K@Z @ 5540 NONAME
 ?GetFieldInfo@CDaoTableDef@@QAEXPBDAAUCDaoFieldInfo@@K@Z @ 5541 NONAME
 ?GetFieldLength@CDaoRecordset@@QAEKH@Z @ 5542 NONAME
 ?GetFieldLengthBuffer@CRecordset@@QAEPAJKH@Z @ 5543 NONAME
 ?GetFieldStatus@CRecordset@@QAEEK@Z @ 5544 NONAME
 ?GetFieldValue@CDaoRecordset@@UAE?AVCOleVariant@@H@Z @ 5545 NONAME
 ?GetFieldValue@CDaoRecordset@@UAE?AVCOleVariant@@PBD@Z @ 5546 NONAME
 ?GetFieldValue@CDaoRecordset@@UAEXHAAVCOleVariant@@@Z @ 5547 NONAME
 ?GetFieldValue@CDaoRecordset@@UAEXPBDAAVCOleVariant@@@Z @ 5548 NONAME
 ?GetFieldValue@CRecordset@@QAEXFAAV?$CStringT@_WV?$StrTraitMFC_DLL@_WV?$ChTraitsCRT@_W@ATL@@@@@ATL@@@Z @ 5549 NONAME
 ?GetFieldValue@CRecordset@@QAEXFAAV?$CStringT@DV?$StrTraitMFC_DLL@DV?$ChTraitsCRT@D@ATL@@@@@ATL@@@Z @ 5550 NONAME
 ?GetFieldValue@CRecordset@@QAEXFAAVCDBVariant@@F@Z @ 5551 NONAME
 ?GetFieldValue@CRecordset@@QAEXPBDAAV?$CStringT@_WV?$StrTraitMFC_DLL@_WV?$ChTraitsCRT@_W@ATL@@@@@ATL@@@Z @ 5552 NONAME
 ?GetFieldValue@CRecordset@@QAEXPBDAAV?$CStringT@DV?$StrTraitMFC_DLL@DV?$ChTraitsCRT@D@ATL@@@@@ATL@@@Z @ 5553 NONAME
 ?GetFieldValue@CRecordset@@QAEXPBDAAVCDBVariant@@F@Z @ 5554 NONAME
 ?GetFigureCount@CD2DPathGeometry@@QBEHXZ @ 5555 NONAME
 ?GetFile@CDocument@@UAEPAVCFile@@PBDIPAVCFileException@@@Z @ 5556 NONAME
 ?GetFile@CFtpConnection@@QAEHPBD0HKKK@Z @ 5557 NONAME
 ?GetFileData@COleDataObject@@QAEPAVCFile@@GPAUtagFORMATETC@@@Z @ 5558 NONAME
 ?GetFileExt@CFileDialog@@QBE?AV?$CStringT@DV?$StrTraitMFC_DLL@DV?$ChTraitsCRT@D@ATL@@@@@ATL@@XZ @ 5559 NONAME
 ?GetFileName@CFile@@UBE?AV?$CStringT@DV?$StrTraitMFC_DLL@DV?$ChTraitsCRT@D@ATL@@@@@ATL@@XZ @ 5560 NONAME
 ?GetFileName@CFileDialog@@QBE?AV?$CStringT@DV?$StrTraitMFC_DLL@DV?$ChTraitsCRT@D@ATL@@@@@ATL@@XZ @ 5561 NONAME
 ?GetFileName@CFileFind@@UBE?AV?$CStringT@DV?$StrTraitMFC_DLL@DV?$ChTraitsCRT@D@ATL@@@@@ATL@@XZ @ 5562 NONAME
 ?GetFileName@CGopherFileFind@@UBE?AV?$CStringT@DV?$StrTraitMFC_DLL@DV?$ChTraitsCRT@D@ATL@@@@@ATL@@XZ @ 5563 NONAME
 ?GetFilePath@CFile@@UBE?AV?$CStringT@DV?$StrTraitMFC_DLL@DV?$ChTraitsCRT@D@ATL@@@@@ATL@@XZ @ 5564 NONAME
 ?GetFilePath@CFileFind@@UBE?AV?$CStringT@DV?$StrTraitMFC_DLL@DV?$ChTraitsCRT@D@ATL@@@@@ATL@@XZ @ 5565 NONAME
 ?GetFilePath@CGopherFileFind@@UBE?AV?$CStringT@DV?$StrTraitMFC_DLL@DV?$ChTraitsCRT@D@ATL@@@@@ATL@@XZ @ 5566 NONAME
 ?GetFileTitle@CFile@@UBE?AV?$CStringT@DV?$StrTraitMFC_DLL@DV?$ChTraitsCRT@D@ATL@@@@@ATL@@XZ @ 5567 NONAME
 ?GetFileTitle@CFileDialog@@QBE?AV?$CStringT@DV?$StrTraitMFC_DLL@DV?$ChTraitsCRT@D@ATL@@@@@ATL@@XZ @ 5568 NONAME
 ?GetFileTitle@CFileFind@@UBE?AV?$CStringT@DV?$StrTraitMFC_DLL@DV?$ChTraitsCRT@D@ATL@@@@@ATL@@XZ @ 5569 NONAME
 ?GetFileTitle@CGopherFileFind@@UBE?AV?$CStringT@DV?$StrTraitMFC_DLL@DV?$ChTraitsCRT@D@ATL@@@@@ATL@@XZ @ 5570 NONAME
 ?GetFileTypeString@COleServerDoc@@MAEHAAV?$CStringT@DV?$StrTraitMFC_DLL@DV?$ChTraitsCRT@D@ATL@@@@@ATL@@@Z @ 5571 NONAME
 ?GetFileURL@CFileFind@@UBE?AV?$CStringT@DV?$StrTraitMFC_DLL@DV?$ChTraitsCRT@D@ATL@@@@@ATL@@XZ @ 5572 NONAME
 ?GetFileURL@CFtpFileFind@@UBE?AV?$CStringT@DV?$StrTraitMFC_DLL@DV?$ChTraitsCRT@D@ATL@@@@@ATL@@XZ @ 5573 NONAME
 ?GetFileURL@CGopherFileFind@@UBE?AV?$CStringT@DV?$StrTraitMFC_DLL@DV?$ChTraitsCRT@D@ATL@@@@@ATL@@XZ @ 5574 NONAME
 ?GetFileURL@CHttpFile@@UBE?AV?$CStringT@DV?$StrTraitMFC_DLL@DV?$ChTraitsCRT@D@ATL@@@@@ATL@@XZ @ 5575 NONAME
 ?GetFirstAHWindow@CMFCAutoHideBar@@QAEPAVCDockablePane@@XZ @ 5576 NONAME
 ?GetFirstDayOfWeek@CMonthCalCtrl@@QBEHPAH@Z @ 5577 NONAME
 ?GetFirstDocPosition@CMultiDocTemplate@@UBEPAU__POSITION@@XZ @ 5578 NONAME
 ?GetFirstDocPosition@CSingleDocTemplate@@UBEPAU__POSITION@@XZ @ 5579 NONAME
 ?GetFirstDocTemplatePosition@CDocManager@@UBEPAU__POSITION@@XZ @ 5580 NONAME
 ?GetFirstDocTemplatePosition@CWinApp@@QBEPAU__POSITION@@XZ @ 5581 NONAME
 ?GetFirstFrame@COleDocument@@QAEPAVCFrameWnd@@XZ @ 5582 NONAME
 ?GetFirstPane@CPaneContainerManager@@UBEPAVCBasePane@@XZ @ 5583 NONAME
 ?GetFirstPane@CPaneDivider@@QBEPBVCBasePane@@XZ @ 5584 NONAME
 ?GetFirstTabStop@CMFCRibbonButtonsGroup@@MAEPAVCMFCRibbonBaseElement@@XZ @ 5585 NONAME
 ?GetFirstTabStop@CMFCRibbonPanel@@IBEPAVCMFCRibbonBaseElement@@XZ @ 5586 NONAME
 ?GetFirstTabWnd@CMDIClientAreaWnd@@QAEPAVCMFCTabCtrl@@XZ @ 5587 NONAME
 ?GetFirstViewPosition@CDocument@@UBEPAU__POSITION@@XZ @ 5588 NONAME
 ?GetFirstVisibleElement@CMFCRibbonCategory@@QBEPAVCMFCRibbonBaseElement@@XZ @ 5589 NONAME
 ?GetFirstVisiblePane@CPaneContainerManager@@UBEPAVCWnd@@XZ @ 5590 NONAME
 ?GetFirstVisiblePane@CPaneFrameWnd@@UBEPAVCWnd@@XZ @ 5591 NONAME
 ?GetFirstVisibleTab@CBaseTabbedPane@@UAEPAVCWnd@@AAH@Z @ 5592 NONAME
 ?GetFirstVisibleTab@CMFCBaseTabCtrl@@UAEPAVCWnd@@AAH@Z @ 5593 NONAME
 ?GetFirstVisibleTab@CMFCBaseTabCtrl@@UAEPAVCWnd@@HAAH@Z @ 5594 NONAME
 ?GetFixedWidth@CMFCToolTipCtrl@@IAEHXZ @ 5595 NONAME
 ?GetFloatPopupDirection@CMFCMenuBar@@QAEHPAVCMFCToolBarMenuButton@@@Z @ 5596 NONAME
 ?GetFocus@COleControl@@QAEPAVCWnd@@XZ @ 5597 NONAME
 ?GetFocus@XOleIPSite@COleControlSite@@UAGJXZ @ 5598 NONAME
 ?GetFocused@CMFCRibbonBar@@UAEPAVCMFCRibbonBaseElement@@XZ @ 5599 NONAME
 ?GetFocused@CMFCRibbonBaseElement@@UAEPAV1@XZ @ 5600 NONAME
 ?GetFocused@CMFCRibbonButtonsGroup@@MAEPAVCMFCRibbonBaseElement@@XZ @ 5601 NONAME
 ?GetFocused@CMFCRibbonCategory@@QAEPAVCMFCRibbonBaseElement@@XZ @ 5602 NONAME
 ?GetFocused@CMFCRibbonPanel@@QBEPAVCMFCRibbonBaseElement@@XZ @ 5603 NONAME
 ?GetFocused@CMFCRibbonPanelMenuBar@@QBEPAVCMFCRibbonBaseElement@@XZ @ 5604 NONAME
 ?GetFolderPath@CFileDialog@@QBE?AV?$CStringT@DV?$StrTraitMFC_DLL@DV?$ChTraitsCRT@D@ATL@@@@@ATL@@XZ @ 5605 NONAME
 ?GetFont@CDialogTemplate@@QBEHAAV?$CStringT@DV?$StrTraitMFC_DLL@DV?$ChTraitsCRT@D@ATL@@@@@ATL@@AAG@Z @ 5606 NONAME
 ?GetFont@CDialogTemplate@@SAHPBUDLGTEMPLATE@@AAV?$CStringT@DV?$StrTraitMFC_DLL@DV?$ChTraitsCRT@D@ATL@@@@@ATL@@AAG@Z @ 5607 NONAME
 ?GetFont@COleControl@@QAEPAUIFontDisp@@XZ @ 5608 NONAME
 ?GetFontDispatch@CFontHolder@@QAEPAUIFontDisp@@XZ @ 5609 NONAME
 ?GetFontFamilyName@CD2DTextFormat@@QBE?AV?$CStringT@DV?$StrTraitMFC_DLL@DV?$ChTraitsCRT@D@ATL@@@@@ATL@@XZ @ 5610 NONAME
 ?GetFontFamilyName@CD2DTextLayout@@QBE?AV?$CStringT@DV?$StrTraitMFC_DLL@DV?$ChTraitsCRT@D@ATL@@@@@ATL@@IPAUDWRITE_TEXT_RANGE@@@Z @ 5611 NONAME
 ?GetFontHandle@CFontHolder@@QAEPAUHFONT__@@JJ@Z @ 5612 NONAME
 ?GetFontHandle@CFontHolder@@QAEPAUHFONT__@@XZ @ 5613 NONAME
 ?GetFontsCount@CMFCRibbonFontComboBox@@IAEHPBDABVCObList@@@Z @ 5614 NONAME
 ?GetFontsCount@CMFCToolBarFontComboBox@@KGHPBD@Z @ 5615 NONAME
 ?GetFontSizeField@CDialogTemplate@@KAPAEPBUDLGTEMPLATE@@@Z @ 5616 NONAME
 ?GetFontTextMetrics@COleControl@@QAEXPAUtagTEXTMETRICA@@AAVCFontHolder@@@Z @ 5617 NONAME
 ?GetForeColor@COleControl@@QAEKXZ @ 5618 NONAME
 ?GetFormatID@CPropertySection@@QAE?AU_GUID@@XZ @ 5619 NONAME
 ?GetFormatVersion@CPropertySet@@QAEGXZ @ 5620 NONAME
 ?GetFrameIcon@CMDIChildWndEx@@UBEPAUHICON__@@XZ @ 5621 NONAME
 ?GetFrameText@CMDIChildWndEx@@UBE?AV?$CStringT@DV?$StrTraitMFC_DLL@DV?$ChTraitsCRT@D@ATL@@@@@ATL@@XZ @ 5622 NONAME
 ?GetFreeCtrlBarID@CFrameImpl@@KGIIIABVCObList@@@Z @ 5623 NONAME
 ?GetFreeTearOffID@CMenuTearOffManager@@IAEIXZ @ 5624 NONAME
 ?GetFtpConnection@CInternetSession@@QAEPAVCFtpConnection@@PBD00GH@Z @ 5625 NONAME
 ?GetFullName@CHtmlView@@QBE?AV?$CStringT@DV?$StrTraitMFC_DLL@DV?$ChTraitsCRT@D@ATL@@@@@ATL@@XZ @ 5626 NONAME
 ?GetFullScreen@CHtmlView@@QBEHXZ @ 5627 NONAME
 ?GetFuncInfoFromId@CDHtmlControlSink@@QAEJABU_GUID@@JKAAU_ATL_FUNC_INFO@ATL@@@Z @ 5628 NONAME
 ?GetGalleryRect@CMFCRibbonPanel@@QAE?AVCRect@@XZ @ 5629 NONAME
 ?GetGestureConfig@CWnd@@QAEHPAVCGestureConfig@@@Z @ 5630 NONAME
 ?GetGestureStatus@CWnd@@MAEKVCPoint@@@Z @ 5631 NONAME
 ?GetGlobalData@COleDataObject@@QAEPAXGPAUtagFORMATETC@@@Z @ 5632 NONAME
 ?GetGopherConnection@CInternetSession@@QAEPAVCGopherConnection@@PBD00G@Z @ 5633 NONAME
 ?GetGradientOriginOffset@CD2DRadialGradientBrush@@QBE?AVCD2DPointF@@XZ @ 5634 NONAME
 ?GetGripperRect@CMFCControlBarImpl@@QAEXAAVCRect@@H@Z @ 5635 NONAME
 ?GetGroupBounds@CMFCMaskedEdit@@AAEXAAH0HH@Z @ 5636 NONAME
 ?GetGroupButtonExtraWidth@CMFCRibbonButton@@IAEHXZ @ 5637 NONAME
 ?GetGroupFromPane@CDockingPanesRow@@QAEXPAVCPane@@AAVCObList@@@Z @ 5638 NONAME
 ?GetGroupLocation@CMFCTasksPane@@QBEHPAVCMFCTasksPaneTaskGroup@@AAH@Z @ 5639 NONAME
 ?GetGroupName@CMFCRibbonGallery@@QBEPBDH@Z @ 5640 NONAME
 ?GetGUID@XProvideClassInfo@COleControl@@UAGJKPAU_GUID@@@Z @ 5641 NONAME
 ?GetGutterWidth@CMFCPopupMenuBar@@QAEHXZ @ 5642 NONAME
 ?GetHalftoneBrush@CDC@@SGPAVCBrush@@XZ @ 5643 NONAME
 ?GetHandCursor@AFX_GLOBAL_DATA@@QAEPAUHICON__@@XZ @ 5644 NONAME
 ?GetHandleMask@CRectTracker@@UBEIXZ @ 5645 NONAME
 ?GetHandleRect@CRectTracker@@IBEXHPAVCRect@@@Z @ 5646 NONAME
 ?GetHandleSize@CRectTracker@@MBEHPBUtagRECT@@@Z @ 5647 NONAME
 ?GetHeaderCtrl@CListCtrl@@QBEPAVCHeaderCtrl@@XZ @ 5648 NONAME
 ?GetHeight@CHtmlView@@QBEJXZ @ 5649 NONAME
 ?GetHeight@CMFCRibbonPanel@@MBEHPAVCDC@@@Z @ 5650 NONAME
 ?GetHelpCombobox@CMFCMenuBar@@QAEPAVCMFCToolBarComboBoxButton@@XZ @ 5651 NONAME
 ?GetHelpMenu@COleDocObjectItem@@MAEPAVCMenu@@AAI@Z @ 5652 NONAME
 ?GetHierarchyLevel@CMFCPropertyGridProperty@@QBEHXZ @ 5653 NONAME
 ?GetHighlighted@CMFCRibbonBaseElement@@UAEPAV1@XZ @ 5654 NONAME
 ?GetHighlighted@CMFCRibbonButtonsGroup@@MAEPAVCMFCRibbonBaseElement@@XZ @ 5655 NONAME
 ?GetHighlighted@CMFCRibbonCategory@@QAEPAVCMFCRibbonBaseElement@@XZ @ 5656 NONAME
 ?GetHighlighted@CMFCRibbonGallery@@MAEPAVCMFCRibbonBaseElement@@XZ @ 5657 NONAME
 ?GetHighlighted@CMFCRibbonPanel@@QBEPAVCMFCRibbonBaseElement@@XZ @ 5658 NONAME
 ?GetHighlightedButton@CMFCToolBar@@QBEPAVCMFCToolBarButton@@XZ @ 5659 NONAME
 ?GetHighlightedColor@CMFCColorBar@@QBEKXZ @ 5660 NONAME
 ?GetHighlightedColor@CMFCRibbonColorButton@@QBEKXZ @ 5661 NONAME
 ?GetHighlightedMenuItemTextColor@CMFCVisualManager@@UAEKPAVCMFCToolBarMenuButton@@@Z @ 5662 NONAME
 ?GetHighlightedMenuItemTextColor@CMFCVisualManagerOffice2007@@UAEKPAVCMFCToolBarMenuButton@@@Z @ 5663 NONAME
 ?GetHighlightedMenuItemTextColor@CMFCVisualManagerOfficeXP@@MAEKPAVCMFCToolBarMenuButton@@@Z @ 5664 NONAME
 ?GetHighlightedMenuItemTextColor@CMFCVisualManagerWindows@@UAEKPAVCMFCToolBarMenuButton@@@Z @ 5665 NONAME
 ?GetHit@CMFCCaptionButton@@QBEIXZ @ 5666 NONAME
 ?GetHitRect@CSplitterWnd@@MAEXHAAVCRect@@@Z @ 5667 NONAME
 ?GetHitTest@CMFCRibbonSlider@@IBEHVCPoint@@@Z @ 5668 NONAME
 ?GetHLS@CMFCColorPickerCtrl@@QAEXPAN00@Z @ 5669 NONAME
 ?GetHostInfo@CBrowserControlSite@@MAGJPAU_DOCHOSTUIINFO@@@Z @ 5670 NONAME
 ?GetHostInfo@CDHtmlDialog@@UAGJPAU_DOCHOSTUIINFO@@@Z @ 5671 NONAME
 ?GetHostInfo@XDocHostUIHandler@CHtmlControlSite@@UAGJPAU_DOCHOSTUIINFO@@@Z @ 5672 NONAME
 ?GetHotButton@CMFCToolTipCtrl@@IAEXXZ @ 5673 NONAME
 ?GetHotKey@CHotKeyCtrl@@QBEXAAG0@Z @ 5674 NONAME
 ?GetHotKeyName@CHotKeyCtrl@@QBE?AV?$CStringT@DV?$StrTraitMFC_DLL@DV?$ChTraitsCRT@D@ATL@@@@@ATL@@XZ @ 5675 NONAME
 ?GetHotTextColor@CMFCToolBar@@SGKXZ @ 5676 NONAME
 ?GetHtmlDocument@CHtmlView@@QBEPAUIDispatch@@XZ @ 5677 NONAME
 ?GetHttpConnection@CInternetSession@@QAEPAVCHttpConnection@@PBDG00@Z @ 5678 NONAME
 ?GetHttpConnection@CInternetSession@@QAEPAVCHttpConnection@@PBDKG00@Z @ 5679 NONAME
 ?GetHwnd@COleControl@@QAEIXZ @ 5680 NONAME
 ?GetHWND@XAccessibleServer@CWnd@@UAGJPAPAUHWND__@@@Z @ 5681 NONAME
 ?GetIconDescription@CMFCRibbonGallery@@MBE?AV?$CStringT@DV?$StrTraitMFC_DLL@DV?$ChTraitsCRT@D@ATL@@@@@ATL@@PBVCMFCRibbonGalleryIcon@@@Z @ 5682 NONAME
 ?GetIconFromRegistry@COleClientItem@@QBEPAUHICON__@@XZ @ 5683 NONAME
 ?GetIconFromRegistry@COleClientItem@@SAPAUHICON__@@AAU_GUID@@@Z @ 5684 NONAME
 ?GetIconicMetafile@COleClientItem@@QAEPAXXZ @ 5685 NONAME
 ?GetIconID@CMFCCaptionButton@@UBE?AW4IMAGES_IDS@CMenuImages@@HH@Z @ 5686 NONAME
 ?GetIconSize@CMFCRibbonGallery@@MBE?AVCSize@@XZ @ 5687 NONAME
 ?GetIconSize@CMFCRibbonUndoButton@@MBE?AVCSize@@XZ @ 5688 NONAME
 ?GetIconSize@CMFCToolTipCtrl@@UAE?AVCSize@@XZ @ 5689 NONAME
 ?GetIconToolTip@CMFCRibbonColorButton@@MBE?AV?$CStringT@DV?$StrTraitMFC_DLL@DV?$ChTraitsCRT@D@ATL@@@@@ATL@@PBVCMFCRibbonGalleryIcon@@@Z @ 5690 NONAME
 ?GetIconToolTip@CMFCRibbonGallery@@MBE?AV?$CStringT@DV?$StrTraitMFC_DLL@DV?$ChTraitsCRT@D@ATL@@@@@ATL@@PBVCMFCRibbonGalleryIcon@@@Z @ 5691 NONAME
 ?GetIconWndClass@CFrameWnd@@IAEPBDKI@Z @ 5692 NONAME
 ?GetID@CMFCRibbonCollector@@MAEXABVCMFCRibbonBaseElement@@AAVXID@CMFCRibbonInfo@@@Z @ 5693 NONAME
 ?GetID@CProperty@@QAEKXZ @ 5694 NONAME
 ?GetID@CPropertySection@@QAEHPBDPAK@Z @ 5695 NONAME
 ?GetIDataObject@COleDataObject@@QAEPAUIDataObject@@H@Z @ 5696 NONAME
 ?GetIDispatch@CCmdTarget@@QAEPAUIDispatch@@H@Z @ 5697 NONAME
 ?GetIDsOfNames@CDHtmlControlSink@@UAGJABU_GUID@@PAPA_WIKPAJ@Z @ 5698 NONAME
 ?GetIDsOfNames@CDHtmlElementEventSink@@UAGJABU_GUID@@PAPA_WIKPAJ@Z @ 5699 NONAME
 ?GetIDsOfNames@CDHtmlEventSink@@UAGJABU_GUID@@PAPA_WIKPAJ@Z @ 5700 NONAME
 ?GetIDsOfNames@COleDispatchImpl@@UAGJABU_GUID@@PAPA_WIKPAJ@Z @ 5701 NONAME
 ?GetIDsOfNames@XAccessible@CMFCBaseAccessibleObject@@UAGJABU_GUID@@PAPA_WIKPAJ@Z @ 5702 NONAME
 ?GetIDsOfNames@XAccessible@CWnd@@UAGJABU_GUID@@PAPA_WIKPAJ@Z @ 5703 NONAME
 ?GetIDsOfNames@XAmbientProps@COleControlSite@@UAGJABU_GUID@@PAPA_WIKPAJ@Z @ 5704 NONAME
 ?GetIDsOfNames@XEventSink@COleControlSite@@UAGJABU_GUID@@PAPA_WIKPAJ@Z @ 5705 NONAME
 ?GetIFileDialogCustomize@CFileDialog@@QAEPAUIFileDialogCustomize@@XZ @ 5706 NONAME
 ?GetIFileOpenDialog@CFileDialog@@QAEPAUIFileOpenDialog@@XZ @ 5707 NONAME
 ?GetIFileSaveDialog@CFileDialog@@QAEPAUIFileSaveDialog@@XZ @ 5708 NONAME
 ?GetIID@XEventConnPt@COleControl@@UAEABU_GUID@@XZ @ 5709 NONAME
 ?GetImageHorzMargin@CMFCButton@@MBEHXZ @ 5710 NONAME
 ?GetImageList@CMFCToolBar@@IBEPAVCMFCToolBarImages@@AAV2@000@Z @ 5711 NONAME
 ?GetImageList@CReBarCtrl@@QBEPAVCImageList@@XZ @ 5712 NONAME
 ?GetImageRect@CMFCToolBarMenuButton@@QAEXAAVCRect@@@Z @ 5713 NONAME
 ?GetImageSize@CMFCCaptionBar@@IBE?AVCSize@@XZ @ 5714 NONAME
 ?GetImageSize@CMFCRibbonButton@@UBE?AVCSize@@W4RibbonImageType@CMFCRibbonBaseElement@@@Z @ 5715 NONAME
 ?GetImageSize@CMFCRibbonButtonsGroup@@QBE?BVCSize@@XZ @ 5716 NONAME
 ?GetImageSize@CMFCRibbonCategory@@QBE?AVCSize@@H@Z @ 5717 NONAME
 ?GetIndex@CMFCRibbonPanel@@UBEHPAVCMFCRibbonBaseElement@@@Z @ 5718 NONAME
 ?GetIndexCount@CDaoRecordset@@QAEFXZ @ 5719 NONAME
 ?GetIndexCount@CDaoTableDef@@QAEFXZ @ 5720 NONAME
 ?GetIndexInfo@CDaoRecordset@@QAEXHAAUCDaoIndexInfo@@K@Z @ 5721 NONAME
 ?GetIndexInfo@CDaoRecordset@@QAEXPBDAAUCDaoIndexInfo@@K@Z @ 5722 NONAME
 ?GetIndexInfo@CDaoTableDef@@QAEXHAAUCDaoIndexInfo@@K@Z @ 5723 NONAME
 ?GetIndexInfo@CDaoTableDef@@QAEXPBDAAUCDaoIndexInfo@@K@Z @ 5724 NONAME
 ?GetIniPath@CDaoWorkspace@@SG?AV?$CStringT@DV?$StrTraitMFC_DLL@DV?$ChTraitsCRT@D@ATL@@@@@ATL@@XZ @ 5725 NONAME
 ?GetInPlaceActiveItem@CFrameWndEx@@MAEPAVCOleClientItem@@XZ @ 5726 NONAME
 ?GetInPlaceActiveItem@CMDIFrameWndEx@@MAEPAVCOleClientItem@@XZ @ 5727 NONAME
 ?GetInPlaceActiveItem@COleDocument@@UAEPAVCOleClientItem@@PAVCWnd@@@Z @ 5728 NONAME
 ?GetInPlaceActiveItem@CRichEditDoc@@UAEPAVCOleClientItem@@PAVCWnd@@@Z @ 5729 NONAME
 ?GetInPlaceActiveItem@CRichEditView@@QBEPAVCRichEditCntrItem@@XZ @ 5730 NONAME
 ?GetInPlaceContext@XRichEditOleCallback@CRichEditView@@UAGJPAPAUIOleInPlaceFrame@@PAPAUIOleInPlaceUIWindow@@PAUtagOIFI@@@Z @ 5731 NONAME
 ?GetInPlaceMenu@COleIPFrameWnd@@MAEPAUHMENU__@@XZ @ 5732 NONAME
 ?GetInPlaceSite@XOleDocumentView@CDocObjectServer@@UAGJPAPAUIOleInPlaceSite@@@Z @ 5733 NONAME
 ?GetInPlaceWindow@COleClientItem@@QAEPAVCWnd@@XZ @ 5734 NONAME
 ?GetInsideRect@CSplitterWnd@@MBEXAAVCRect@@@Z @ 5735 NONAME
 ?GetInt@CWinAppEx@@QAEHPBDH@Z @ 5736 NONAME
 ?GetInterface@CCmdTarget@@QAEPAUIUnknown@@PBX@Z @ 5737 NONAME
 ?GetInterfaceHook@CBrowserControlSite@@MAEPAUIUnknown@@PBX@Z @ 5738 NONAME
 ?GetInterfaceHook@CCmdTarget@@UAEPAUIUnknown@@PBX@Z @ 5739 NONAME
 ?GetInterfaceHook@COleControl@@MAEPAUIUnknown@@PBX@Z @ 5740 NONAME
 ?GetInterfaceHook@COleServerDoc@@MAEPAUIUnknown@@PBX@Z @ 5741 NONAME
 ?GetInterfaceMap@CCmdTarget@@MBEPBUAFX_INTERFACEMAP@@XZ @ 5742 NONAME
 ?GetInterfaceMap@CDocObjectServer@@MBEPBUAFX_INTERFACEMAP@@XZ @ 5743 NONAME
 ?GetInterfaceMap@CDocument@@MBEPBUAFX_INTERFACEMAP@@XZ @ 5744 NONAME
 ?GetInterfaceMap@CEnumConnections@@MBEPBUAFX_INTERFACEMAP@@XZ @ 5745 NONAME
 ?GetInterfaceMap@CEnumConnPoints@@MBEPBUAFX_INTERFACEMAP@@XZ @ 5746 NONAME
 ?GetInterfaceMap@CEnumFormatEtc@@MBEPBUAFX_INTERFACEMAP@@XZ @ 5747 NONAME
 ?GetInterfaceMap@CEnumOleVerb@@MBEPBUAFX_INTERFACEMAP@@XZ @ 5748 NONAME
 ?GetInterfaceMap@CEnumUnknown@@MBEPBUAFX_INTERFACEMAP@@XZ @ 5749 NONAME
 ?GetInterfaceMap@CFileDialog@@MBEPBUAFX_INTERFACEMAP@@XZ @ 5750 NONAME
 ?GetInterfaceMap@CHtmlControlSite@@MBEPBUAFX_INTERFACEMAP@@XZ @ 5751 NONAME
 ?GetInterfaceMap@CMFCBaseAccessibleObject@@MBEPBUAFX_INTERFACEMAP@@XZ @ 5752 NONAME
 ?GetInterfaceMap@COleClientItem@@MBEPBUAFX_INTERFACEMAP@@XZ @ 5753 NONAME
 ?GetInterfaceMap@COleControl@@MBEPBUAFX_INTERFACEMAP@@XZ @ 5754 NONAME
 ?GetInterfaceMap@COleControlContainer@@MBEPBUAFX_INTERFACEMAP@@XZ @ 5755 NONAME
 ?GetInterfaceMap@COleControlSite@@MBEPBUAFX_INTERFACEMAP@@XZ @ 5756 NONAME
 ?GetInterfaceMap@COleDataSource@@MBEPBUAFX_INTERFACEMAP@@XZ @ 5757 NONAME
 ?GetInterfaceMap@COleDocObjectItem@@MBEPBUAFX_INTERFACEMAP@@XZ @ 5758 NONAME
 ?GetInterfaceMap@COleDropSource@@MBEPBUAFX_INTERFACEMAP@@XZ @ 5759 NONAME
 ?GetInterfaceMap@COleDropTarget@@MBEPBUAFX_INTERFACEMAP@@XZ @ 5760 NONAME
 ?GetInterfaceMap@COleFrameHook@@MBEPBUAFX_INTERFACEMAP@@XZ @ 5761 NONAME
 ?GetInterfaceMap@COleLinkingDoc@@MBEPBUAFX_INTERFACEMAP@@XZ @ 5762 NONAME
 ?GetInterfaceMap@COleMessageFilter@@MBEPBUAFX_INTERFACEMAP@@XZ @ 5763 NONAME
 ?GetInterfaceMap@COleObjectFactory@@MBEPBUAFX_INTERFACEMAP@@XZ @ 5764 NONAME
 ?GetInterfaceMap@COlePropertyPage@@MBEPBUAFX_INTERFACEMAP@@XZ @ 5765 NONAME
 ?GetInterfaceMap@COleServerDoc@@MBEPBUAFX_INTERFACEMAP@@XZ @ 5766 NONAME
 ?GetInterfaceMap@COleServerItem@@MBEPBUAFX_INTERFACEMAP@@XZ @ 5767 NONAME
 ?GetInterfaceMap@CRichEditView@@MBEPBUAFX_INTERFACEMAP@@XZ @ 5768 NONAME
 ?GetInterfaceMap@CWnd@@MBEPBUAFX_INTERFACEMAP@@XZ @ 5769 NONAME
 ?GetIntermediateSize@CMFCRibbonButton@@UAE?AVCSize@@PAVCDC@@@Z @ 5770 NONAME
 ?GetIntermediateSize@CMFCRibbonCheckBox@@UAE?AVCSize@@PAVCDC@@@Z @ 5771 NONAME
 ?GetIntermediateSize@CMFCRibbonComboBox@@UAE?AVCSize@@PAVCDC@@@Z @ 5772 NONAME
 ?GetIntermediateSize@CMFCRibbonEdit@@UAE?AVCSize@@PAVCDC@@@Z @ 5773 NONAME
 ?GetIntermediateSize@CMFCRibbonLabel@@MAE?AVCSize@@PAVCDC@@@Z @ 5774 NONAME
 ?GetIntermediateSize@CMFCRibbonStatusBarPane@@MAE?AVCSize@@PAVCDC@@@Z @ 5775 NONAME
 ?GetInterpolationMode@CD2DBitmapBrush@@QBE?AW4D2D1_BITMAP_INTERPOLATION_MODE@@XZ @ 5776 NONAME
 ?GetInvalidateItemRect@CMFCToolBar@@UBEXHPAUtagRECT@@@Z @ 5777 NONAME
 ?GetInvalidateRect@CMFCToolBarEditBoxButton@@UBE?BVCRect@@XZ @ 5778 NONAME
 ?GetIRichEditOle@CRichEditCtrl@@QBEPAUIRichEditOle@@XZ @ 5779 NONAME
 ?GetIsolateODBCTrans@CDaoWorkspace@@QAEHXZ @ 5780 NONAME
 ?GetITaskbarList@AFX_GLOBAL_DATA@@QAEPAUITaskbarList@@XZ @ 5781 NONAME
 ?GetITaskbarList@CWinApp@@QAEPAUITaskbarList@@XZ @ 5782 NONAME
 ?GetITaskbarList3@AFX_GLOBAL_DATA@@QAEPAUITaskbarList3@@XZ @ 5783 NONAME
 ?GetITaskbarList3@CWinApp@@QAEPAUITaskbarList3@@XZ @ 5784 NONAME
 ?GetItem@CComboBoxEx@@QAEHPAUtagCOMBOBOXEXITEMA@@@Z @ 5785 NONAME
 ?GetItem@CMFCDropDownListBox@@IBEPAVCMFCToolBarButton@@H@Z @ 5786 NONAME
 ?GetItem@CMFCRibbonComboBox@@QBEPBDH@Z @ 5787 NONAME
 ?GetItem@CMFCToolBarComboBoxButton@@QBEPBDH@Z @ 5788 NONAME
 ?GetItemAll@CMFCToolBarComboBoxButton@@SGPBDIH@Z @ 5789 NONAME
 ?GetItemClipRect@COleServerDoc@@QBEXPAUtagRECT@@@Z @ 5790 NONAME
 ?GetItemCount@CShellManager@@QAEIPBU_ITEMIDLIST@@@Z @ 5791 NONAME
 ?GetItemData@CListCtrl@@QBEKH@Z @ 5792 NONAME
 ?GetItemData@CMFCRibbonComboBox@@QBEKH@Z @ 5793 NONAME
 ?GetItemData@CMFCToolBarComboBoxButton@@QBEKH@Z @ 5794 NONAME
 ?GetItemData@CTreeCtrl@@QBEKPAU_TREEITEM@@@Z @ 5795 NONAME
 ?GetItemData@CVSListBox@@UBEKH@Z @ 5796 NONAME
 ?GetItemDataAll@CMFCToolBarComboBoxButton@@SGKIH@Z @ 5797 NONAME
 ?GetItemDataPtrAll@CMFCToolBarComboBoxButton@@SGPAXIH@Z @ 5798 NONAME
 ?GetItemID@CMFCStatusBar@@QBEIH@Z @ 5799 NONAME
 ?GetItemID@CMFCToolBar@@QBEIH@Z @ 5800 NONAME
 ?GetItemID@CStatusBar@@QBEIH@Z @ 5801 NONAME
 ?GetItemID@CToolBar@@QBEIH@Z @ 5802 NONAME
 ?GetItemIDsList@CMFCRibbonBar@@QBEXAAV?$CList@II@@H@Z @ 5803 NONAME
 ?GetItemIDsList@CMFCRibbonBaseElement@@MBEXAAV?$CList@II@@@Z @ 5804 NONAME
 ?GetItemIDsList@CMFCRibbonButtonsGroup@@MBEXAAV?$CList@II@@@Z @ 5805 NONAME
 ?GetItemIDsList@CMFCRibbonCategory@@QBEXAAV?$CList@II@@H@Z @ 5806 NONAME
 ?GetItemIDsList@CMFCRibbonPanel@@QBEXAAV?$CList@II@@@Z @ 5807 NONAME
 ?GetItemImage@CTreeCtrl@@QBEHPAU_TREEITEM@@AAH1@Z @ 5808 NONAME
 ?GetItemName@COleClientItem@@QBEXPAD@Z @ 5809 NONAME
 ?GetItemName@COleClientItem@@QBEXPADI@Z @ 5810 NONAME
 ?GetItemPath@CMFCShellListCtrl@@QBEHAAV?$CStringT@DV?$StrTraitMFC_DLL@DV?$ChTraitsCRT@D@ATL@@@@@ATL@@H@Z @ 5811 NONAME
 ?GetItemPath@CMFCShellTreeCtrl@@QBEHAAV?$CStringT@DV?$StrTraitMFC_DLL@DV?$ChTraitsCRT@D@ATL@@@@@ATL@@PAU_TREEITEM@@@Z @ 5812 NONAME
 ?GetItemPosition@COleServerDoc@@QBEXPAUtagRECT@@@Z @ 5813 NONAME
 ?GetItemRect@CListCtrl@@QBEHHPAUtagRECT@@I@Z @ 5814 NONAME
 ?GetItemRect@CMFCStatusBar@@QBEXHPAUtagRECT@@@Z @ 5815 NONAME
 ?GetItemRect@CMFCToolBar@@UBEXHPAUtagRECT@@@Z @ 5816 NONAME
 ?GetItemRect@CStatusBar@@QBEXHPAUtagRECT@@@Z @ 5817 NONAME
 ?GetItemRect@CToolBar@@UBEXHPAUtagRECT@@@Z @ 5818 NONAME
 ?GetItemRect@CTreeCtrl@@QBEHPAU_TREEITEM@@PAUtagRECT@@H@Z @ 5819 NONAME
 ?GetItemSize@CShellManager@@QAEIPBU_ITEMIDLIST@@@Z @ 5820 NONAME
 ?GetItemState@CTabCtrl@@QBEKHK@Z @ 5821 NONAME
 ?GetItemState@CTreeCtrl@@QBEIPAU_TREEITEM@@I@Z @ 5822 NONAME
 ?GetItemStorage@COleClientItem@@UAEXXZ @ 5823 NONAME
 ?GetItemStorageCompound@COleClientItem@@QAEXXZ @ 5824 NONAME
 ?GetItemStorageFlat@COleClientItem@@QAEXXZ @ 5825 NONAME
 ?GetItemText@CListCtrl@@QBE?AV?$CStringT@DV?$StrTraitMFC_DLL@DV?$ChTraitsCRT@D@ATL@@@@@ATL@@HH@Z @ 5826 NONAME
 ?GetItemText@CListCtrl@@QBEHHHPADH@Z @ 5827 NONAME
 ?GetItemText@CTreeCtrl@@QBE?AV?$CStringT@DV?$StrTraitMFC_DLL@DV?$ChTraitsCRT@D@ATL@@@@@ATL@@PAU_TREEITEM@@@Z @ 5828 NONAME
 ?GetItemText@CVSListBox@@UBE?AV?$CStringT@DV?$StrTraitMFC_DLL@DV?$ChTraitsCRT@D@ATL@@@@@ATL@@H@Z @ 5829 NONAME
 ?GetItemToolTip@CMFCRibbonGallery@@QBEPBDH@Z @ 5830 NONAME
 ?GetKeyboardManager@CWinAppEx@@QAEPAVCKeyboardManager@@XZ @ 5831 NONAME
 ?GetKeyframeStoryboardStart@CAnimationController@@SAPAVCBaseKeyFrame@@XZ @ 5832 NONAME
 ?GetKeyName@CHotKeyCtrl@@SA?AV?$CStringT@DV?$StrTraitMFC_DLL@DV?$ChTraitsCRT@D@ATL@@@@@ATL@@IH@Z @ 5833 NONAME
 ?GetKeyTipRect@CMFCRibbonButton@@MAE?AVCRect@@PAVCDC@@H@Z @ 5834 NONAME
 ?GetKeyTipRect@CMFCRibbonGallery@@MAE?AVCRect@@PAVCDC@@H@Z @ 5835 NONAME
 ?GetKeyTipRect@CMFCRibbonLaunchButton@@UAE?AVCRect@@PAVCDC@@H@Z @ 5836 NONAME
 ?GetKeyTipRect@CMFCRibbonTab@@UAE?AVCRect@@PAVCDC@@H@Z @ 5837 NONAME
 ?GetKeyTipSize@CMFCRibbonBaseElement@@UAE?AVCSize@@PAVCDC@@@Z @ 5838 NONAME
 ?GetLastAccessTime@CFileFind@@UBEHAAVCTime@ATL@@@Z @ 5839 NONAME
 ?GetLastAccessTime@CFileFind@@UBEHPAU_FILETIME@@@Z @ 5840 NONAME
 ?GetLastAccessTime@CGopherFileFind@@UBEHAAVCTime@ATL@@@Z @ 5841 NONAME
 ?GetLastAccessTime@CGopherFileFind@@UBEHPAU_FILETIME@@@Z @ 5842 NONAME
 ?GetLastModifiedBookmark@CDaoRecordset@@QAE?AVCOleVariant@@XZ @ 5843 NONAME
 ?GetLastSelectedItem@CMFCRibbonGallery@@SGHI@Z @ 5844 NONAME
 ?GetLastTabStop@CMFCRibbonButtonsGroup@@MAEPAVCMFCRibbonBaseElement@@XZ @ 5845 NONAME
 ?GetLastTabStop@CMFCRibbonPanel@@IBEPAVCMFCRibbonBaseElement@@XZ @ 5846 NONAME
 ?GetLastUpdate@COleUILinkInfo@@UAGJKPAU_FILETIME@@@Z @ 5847 NONAME
 ?GetLastVisibleElement@CMFCRibbonCategory@@QBEPAVCMFCRibbonBaseElement@@XZ @ 5848 NONAME
 ?GetLastVisibleTab@CMFCBaseTabCtrl@@UAEPAVCWnd@@AAH@Z @ 5849 NONAME
 ?GetLastWriteTime@CFileFind@@UBEHAAVCTime@ATL@@@Z @ 5850 NONAME
 ?GetLastWriteTime@CFileFind@@UBEHPAU_FILETIME@@@Z @ 5851 NONAME
 ?GetLastWriteTime@CGopherFileFind@@UBEHAAVCTime@ATL@@@Z @ 5852 NONAME
 ?GetLastWriteTime@CGopherFileFind@@UBEHPAU_FILETIME@@@Z @ 5853 NONAME
 ?GetLayout@CDC@@QBEKXZ @ 5854 NONAME
 ?GetLBFetchSize@CRecordset@@MAEJJ@Z @ 5855 NONAME
 ?GetLBound@COleSafeArray@@QAEXKPAJ@Z @ 5856 NONAME
 ?GetLBReallocSize@CRecordset@@MAEJJ@Z @ 5857 NONAME
 ?GetLBText@CComboBox@@QBEXHAAV?$CStringT@DV?$StrTraitMFC_DLL@DV?$ChTraitsCRT@D@ATL@@@@@ATL@@@Z @ 5858 NONAME
 ?GetLeft@CHtmlView@@QBEJXZ @ 5859 NONAME
 ?GetLength@?$CSimpleStringT@_W$00@ATL@@QBEHXZ @ 5860 NONAME
 ?GetLength@?$CSimpleStringT@D$00@ATL@@QBEHXZ @ 5861 NONAME
 ?GetLength@CFile@@UBE_KXZ @ 5862 NONAME
 ?GetLength@CFileFind@@QBE_KXZ @ 5863 NONAME
 ?GetLength@CGopherFileFind@@UBE_KXZ @ 5864 NONAME
 ?GetLength@CInternetFile@@UBE_KXZ @ 5865 NONAME
 ?GetLength@CMemFile@@UBE_KXZ @ 5866 NONAME
 ?GetLength@COleStreamFile@@UBE_KXZ @ 5867 NONAME
 ?GetLength@CSocketFile@@UBE_KXZ @ 5868 NONAME
 ?GetLength@CStdioFile@@UBE_KXZ @ 5869 NONAME
 ?GetLicenseKey@COleObjectFactory@@MAEHKPAPA_W@Z @ 5870 NONAME
 ?GetLicInfo@XClassFactory@COleObjectFactory@@UAGJPAUtagLICINFO@@@Z @ 5871 NONAME
 ?GetLine@CRichEditCtrl@@QBEHHPAD@Z @ 5872 NONAME
 ?GetLine@CRichEditCtrl@@QBEHHPADH@Z @ 5873 NONAME
 ?GetLinkItem@COleUILinkInfo@@AAEPAVCOleClientItem@@K@Z @ 5874 NONAME
 ?GetLinkSource@COleUILinkInfo@@UAGJKPAPADPAK00PAH2@Z @ 5875 NONAME
 ?GetLinkSourceData@COleClientItem@@IAEHPAUtagSTGMEDIUM@@@Z @ 5876 NONAME
 ?GetLinkSourceData@COleServerItem@@QAEHPAUtagSTGMEDIUM@@@Z @ 5877 NONAME
 ?GetLinkUpdateOptions@COleClientItem@@QAE?AW4tagOLEUPDATE@@XZ @ 5878 NONAME
 ?GetLinkUpdateOptions@COleUILinkInfo@@UAGJKPAK@Z @ 5879 NONAME
 ?GetList@CPropertySection@@QAEPAVCPtrList@@XZ @ 5880 NONAME
 ?GetList@CPropertySet@@QAEPAVCPtrList@@XZ @ 5881 NONAME
 ?GetLocaleName@CD2DTextFormat@@QBE?AV?$CStringT@DV?$StrTraitMFC_DLL@DV?$ChTraitsCRT@D@ATL@@@@@ATL@@XZ @ 5882 NONAME
 ?GetLocaleName@CD2DTextLayout@@QBE?AV?$CStringT@DV?$StrTraitMFC_DLL@DV?$ChTraitsCRT@D@ATL@@@@@ATL@@IPAUDWRITE_TEXT_RANGE@@@Z @ 5883 NONAME
 ?GetLocationName@CHtmlView@@QBE?AV?$CStringT@DV?$StrTraitMFC_DLL@DV?$ChTraitsCRT@D@ATL@@@@@ATL@@XZ @ 5884 NONAME
 ?GetLocationURL@CHtmlView@@QBE?AV?$CStringT@DV?$StrTraitMFC_DLL@DV?$ChTraitsCRT@D@ATL@@@@@ATL@@XZ @ 5885 NONAME
 ?GetLocator@CGopherFileFind@@QBE?AVCGopherLocator@@XZ @ 5886 NONAME
 ?GetLockingMode@CDaoRecordset@@QAEHXZ @ 5887 NONAME
 ?GetLoginTimeout@CDaoWorkspace@@SGFXZ @ 5888 NONAME
 ?GetLongBinaryData@CFieldExchange@@QAEXHAAVCLongBinary@@PAJ@Z @ 5889 NONAME
 ?GetLongBinaryDataAndCleanup@CRecordset@@SGXPAVCDatabase@@PAXFJPAPAXJAAVCDBVariant@@F@Z @ 5890 NONAME
 ?GetLongBinarySize@CFieldExchange@@QAEJH@Z @ 5891 NONAME
 ?GetLongCharDataAndCleanup@CRecordset@@SGXPAVCDatabase@@PAXFJPAPAXJAAV?$CStringT@_WV?$StrTraitMFC_DLL@_WV?$ChTraitsCRT@_W@ATL@@@@@ATL@@FF@Z @ 5892 NONAME
 ?GetLongCharDataAndCleanup@CRecordset@@SGXPAVCDatabase@@PAXFJPAPAXJAAV?$CStringT@DV?$StrTraitMFC_DLL@DV?$ChTraitsCRT@D@ATL@@@@@ATL@@FF@Z @ 5893 NONAME
 ?GetMainWnd@CWinThread@@UAEPAVCWnd@@XZ @ 5894 NONAME
 ?GetManager@?$CSimpleStringT@_W$00@ATL@@QBEPAUIAtlStringMgr@2@XZ @ 5895 NONAME
 ?GetManager@?$CSimpleStringT@D$00@ATL@@QBEPAUIAtlStringMgr@2@XZ @ 5896 NONAME
 ?GetManager@?$CStringT@_WV?$StrTraitMFC_DLL@_WV?$ChTraitsCRT@_W@ATL@@@@@ATL@@QBEPAUIAtlStringMgr@2@XZ @ 5897 NONAME
 ?GetManager@?$CStringT@DV?$StrTraitMFC_DLL@DV?$ChTraitsCRT@D@ATL@@@@@ATL@@QBEPAUIAtlStringMgr@2@XZ @ 5898 NONAME
 ?GetMargins@CPageSetupDialog@@QBEXPAUtagRECT@@0@Z @ 5899 NONAME
 ?GetMask@CMFCToolBarImages@@QAEPAUHBITMAP__@@H@Z @ 5900 NONAME
 ?GetMaskedValue@CMFCMaskedEdit@@IBE?BV?$CStringT@DV?$StrTraitMFC_DLL@DV?$ChTraitsCRT@D@ATL@@@@@ATL@@H@Z @ 5901 NONAME
 ?GetMaxConnections@CConnectionPoint@@UAEHXZ @ 5902 NONAME
 ?GetMaxHeight@CMFCRibbonCategory@@QAEHPAVCDC@@@Z @ 5903 NONAME
 ?GetMaximumBitmapSize@CRenderTarget@@QBEIXZ @ 5904 NONAME
 ?GetMaxPaneSize@CDockingPanesRow@@QBEHH@Z @ 5905 NONAME
 ?GetMaxSlots@CJumpList@@QBEIXZ @ 5906 NONAME
 ?GetMaxWindowSize@CMFCBaseTabCtrl@@UBE?AVCSize@@XZ @ 5907 NONAME
 ?GetMDIFrame@CMDIChildWnd@@QAEPAVCMDIFrameWnd@@XZ @ 5908 NONAME
 ?GetMDITabsContextMenuAllowedItems@CMDIClientAreaWnd@@QAEKXZ @ 5909 NONAME
 ?GetMenu@CFrameWnd@@UBEPAVCMenu@@XZ @ 5910 NONAME
 ?GetMenu@CWnd@@UBEPAVCMenu@@XZ @ 5911 NONAME
 ?GetMenuBar@CHtmlView@@QBEHXZ @ 5912 NONAME
 ?GetMenuBarInfo@CFrameWnd@@QBEHJJPAUtagMENUBARINFO@@@Z @ 5913 NONAME
 ?GetMenuBarState@CFrameWnd@@UBEKXZ @ 5914 NONAME
 ?GetMenuBarVisibility@CFrameWnd@@UBEKXZ @ 5915 NONAME
 ?GetMenuButtonSize@CMFCToolBar@@SG?AVCSize@@XZ @ 5916 NONAME
 ?GetMenuById@CContextMenuManager@@QBEPAUHMENU__@@I@Z @ 5917 NONAME
 ?GetMenuByName@CContextMenuManager@@QBEPAUHMENU__@@PBDPAI@Z @ 5918 NONAME
 ?GetMenuElements@CMFCRibbonMainPanel@@IBEHXZ @ 5919 NONAME
 ?GetMenuFont@CMFCMenuBar@@SGABVCFont@@H@Z @ 5920 NONAME
 ?GetMenuImageSize@CMFCToolBar@@SG?AVCSize@@XZ @ 5921 NONAME
 ?GetMenuItem@CMFCMenuBar@@QBEPAVCMFCToolBarButton@@H@Z @ 5922 NONAME
 ?GetMenuItem@CMFCPopupMenu@@QBEPAVCMFCToolBarMenuButton@@H@Z @ 5923 NONAME
 ?GetMenuItemCount@CMFCPopupMenu@@QBEHXZ @ 5924 NONAME
 ?GetMenuItems@CMFCRibbonGallery@@IAEXAAV?$CArray@PAVCMFCRibbonBaseElement@@PAV1@@@@Z @ 5925 NONAME
 ?GetMenuItemTextColor@CMFCVisualManager@@UAEKPAVCMFCToolBarMenuButton@@HH@Z @ 5926 NONAME
 ?GetMenuItemTextColor@CMFCVisualManagerOffice2007@@UAEKPAVCMFCToolBarMenuButton@@HH@Z @ 5927 NONAME
 ?GetMenuNames@CContextMenuManager@@QBEXAAVCStringList@@@Z @ 5928 NONAME
 ?GetMenuRowHeight@CMFCRibbonGallery@@IBEHXZ @ 5929 NONAME
 ?GetMenuStringA@CMenu@@QBEHIAAV?$CStringT@DV?$StrTraitMFC_DLL@DV?$ChTraitsCRT@D@ATL@@@@@ATL@@I@Z @ 5930 NONAME
 ?GetMessageBar@CFrameWnd@@UAEPAVCWnd@@XZ @ 5931 NONAME
 ?GetMessageBar@CMDIChildWnd@@MAEPAVCWnd@@XZ @ 5932 NONAME
 ?GetMessageMap@CAutoHideDockSite@@MBEPBUAFX_MSGMAP@@XZ @ 5933 NONAME
 ?GetMessageMap@CBasePane@@MBEPBUAFX_MSGMAP@@XZ @ 5934 NONAME
 ?GetMessageMap@CBaseTabbedPane@@MBEPBUAFX_MSGMAP@@XZ @ 5935 NONAME
 ?GetMessageMap@CCheckListBox@@MBEPBUAFX_MSGMAP@@XZ @ 5936 NONAME
 ?GetMessageMap@CCmdTarget@@MBEPBUAFX_MSGMAP@@XZ @ 5937 NONAME
 ?GetMessageMap@CCommonDialog@@MBEPBUAFX_MSGMAP@@XZ @ 5938 NONAME
 ?GetMessageMap@CControlBar@@MBEPBUAFX_MSGMAP@@XZ @ 5939 NONAME
 ?GetMessageMap@CControlFrameWnd@@MBEPBUAFX_MSGMAP@@XZ @ 5940 NONAME
 ?GetMessageMap@CCtrlView@@MBEPBUAFX_MSGMAP@@XZ @ 5941 NONAME
 ?GetMessageMap@CDaoRecordView@@MBEPBUAFX_MSGMAP@@XZ @ 5942 NONAME
 ?GetMessageMap@CDHtmlDialog@@MBEPBUAFX_MSGMAP@@XZ @ 5943 NONAME
 ?GetMessageMap@CDialog@@MBEPBUAFX_MSGMAP@@XZ @ 5944 NONAME
 ?GetMessageMap@CDialogBar@@MBEPBUAFX_MSGMAP@@XZ @ 5945 NONAME
 ?GetMessageMap@CDialogEx@@MBEPBUAFX_MSGMAP@@XZ @ 5946 NONAME
 ?GetMessageMap@CDockablePane@@MBEPBUAFX_MSGMAP@@XZ @ 5947 NONAME
 ?GetMessageMap@CDockablePaneAdapter@@MBEPBUAFX_MSGMAP@@XZ @ 5948 NONAME
 ?GetMessageMap@CDockBar@@MBEPBUAFX_MSGMAP@@XZ @ 5949 NONAME
 ?GetMessageMap@CDockSite@@MBEPBUAFX_MSGMAP@@XZ @ 5950 NONAME
 ?GetMessageMap@CDocObjectServer@@MBEPBUAFX_MSGMAP@@XZ @ 5951 NONAME
 ?GetMessageMap@CDocument@@MBEPBUAFX_MSGMAP@@XZ @ 5952 NONAME
 ?GetMessageMap@CDummyDockablePane@@MBEPBUAFX_MSGMAP@@XZ @ 5953 NONAME
 ?GetMessageMap@CEditView@@MBEPBUAFX_MSGMAP@@XZ @ 5954 NONAME
 ?GetMessageMap@CFormView@@MBEPBUAFX_MSGMAP@@XZ @ 5955 NONAME
 ?GetMessageMap@CFrameWnd@@MBEPBUAFX_MSGMAP@@XZ @ 5956 NONAME
 ?GetMessageMap@CFrameWndEx@@MBEPBUAFX_MSGMAP@@XZ @ 5957 NONAME
 ?GetMessageMap@CHtmlEditView@@MBEPBUAFX_MSGMAP@@XZ @ 5958 NONAME
 ?GetMessageMap@CHtmlView@@MBEPBUAFX_MSGMAP@@XZ @ 5959 NONAME
 ?GetMessageMap@CListCtrl@@MBEPBUAFX_MSGMAP@@XZ @ 5960 NONAME
 ?GetMessageMap@CListView@@MBEPBUAFX_MSGMAP@@XZ @ 5961 NONAME
 ?GetMessageMap@CMDIChildWnd@@MBEPBUAFX_MSGMAP@@XZ @ 5962 NONAME
 ?GetMessageMap@CMDIChildWndEx@@MBEPBUAFX_MSGMAP@@XZ @ 5963 NONAME
 ?GetMessageMap@CMDIClientAreaWnd@@MBEPBUAFX_MSGMAP@@XZ @ 5964 NONAME
 ?GetMessageMap@CMDIFrameWnd@@MBEPBUAFX_MSGMAP@@XZ @ 5965 NONAME
 ?GetMessageMap@CMDIFrameWndEx@@MBEPBUAFX_MSGMAP@@XZ @ 5966 NONAME
 ?GetMessageMap@CMDITabProxyWnd@@MBEPBUAFX_MSGMAP@@XZ @ 5967 NONAME
 ?GetMessageMap@CMFCAcceleratorKeyAssignCtrl@@MBEPBUAFX_MSGMAP@@XZ @ 5968 NONAME
 ?GetMessageMap@CMFCAutoHideBar@@MBEPBUAFX_MSGMAP@@XZ @ 5969 NONAME
 ?GetMessageMap@CMFCBaseTabCtrl@@MBEPBUAFX_MSGMAP@@XZ @ 5970 NONAME
 ?GetMessageMap@CMFCBaseToolBar@@MBEPBUAFX_MSGMAP@@XZ @ 5971 NONAME
 ?GetMessageMap@CMFCButton@@MBEPBUAFX_MSGMAP@@XZ @ 5972 NONAME
 ?GetMessageMap@CMFCCaptionBar@@MBEPBUAFX_MSGMAP@@XZ @ 5973 NONAME
 ?GetMessageMap@CMFCColorBar@@MBEPBUAFX_MSGMAP@@XZ @ 5974 NONAME
 ?GetMessageMap@CMFCColorButton@@MBEPBUAFX_MSGMAP@@XZ @ 5975 NONAME
 ?GetMessageMap@CMFCColorDialog@@MBEPBUAFX_MSGMAP@@XZ @ 5976 NONAME
 ?GetMessageMap@CMFCColorPickerCtrl@@MBEPBUAFX_MSGMAP@@XZ @ 5977 NONAME
 ?GetMessageMap@CMFCColorPopupMenu@@MBEPBUAFX_MSGMAP@@XZ @ 5978 NONAME
 ?GetMessageMap@CMFCColorPropertySheet@@MBEPBUAFX_MSGMAP@@XZ @ 5979 NONAME
 ?GetMessageMap@CMFCCustomColorsPropertyPage@@MBEPBUAFX_MSGMAP@@XZ @ 5980 NONAME
 ?GetMessageMap@CMFCDesktopAlertDialog@@MBEPBUAFX_MSGMAP@@XZ @ 5981 NONAME
 ?GetMessageMap@CMFCDesktopAlertWnd@@MBEPBUAFX_MSGMAP@@XZ @ 5982 NONAME
 ?GetMessageMap@CMFCDropDownFrame@@MBEPBUAFX_MSGMAP@@XZ @ 5983 NONAME
 ?GetMessageMap@CMFCDropDownListBox@@MBEPBUAFX_MSGMAP@@XZ @ 5984 NONAME
 ?GetMessageMap@CMFCDropDownToolBar@@MBEPBUAFX_MSGMAP@@XZ @ 5985 NONAME
 ?GetMessageMap@CMFCEditBrowseCtrl@@MBEPBUAFX_MSGMAP@@XZ @ 5986 NONAME
 ?GetMessageMap@CMFCFontComboBox@@MBEPBUAFX_MSGMAP@@XZ @ 5987 NONAME
 ?GetMessageMap@CMFCHeaderCtrl@@MBEPBUAFX_MSGMAP@@XZ @ 5988 NONAME
 ?GetMessageMap@CMFCImageEditorDialog@@MBEPBUAFX_MSGMAP@@XZ @ 5989 NONAME
 ?GetMessageMap@CMFCImagePaintArea@@MBEPBUAFX_MSGMAP@@XZ @ 5990 NONAME
 ?GetMessageMap@CMFCKeyMapDialog@@MBEPBUAFX_MSGMAP@@XZ @ 5991 NONAME
 ?GetMessageMap@CMFCLinkCtrl@@MBEPBUAFX_MSGMAP@@XZ @ 5992 NONAME
 ?GetMessageMap@CMFCListCtrl@@MBEPBUAFX_MSGMAP@@XZ @ 5993 NONAME
 ?GetMessageMap@CMFCMaskedEdit@@MBEPBUAFX_MSGMAP@@XZ @ 5994 NONAME
 ?GetMessageMap@CMFCMenuBar@@MBEPBUAFX_MSGMAP@@XZ @ 5995 NONAME
 ?GetMessageMap@CMFCMenuButton@@MBEPBUAFX_MSGMAP@@XZ @ 5996 NONAME
 ?GetMessageMap@CMFCMousePropertyPage@@MBEPBUAFX_MSGMAP@@XZ @ 5997 NONAME
 ?GetMessageMap@CMFCOutlookBar@@MBEPBUAFX_MSGMAP@@XZ @ 5998 NONAME
 ?GetMessageMap@CMFCOutlookBarPane@@MBEPBUAFX_MSGMAP@@XZ @ 5999 NONAME
 ?GetMessageMap@CMFCOutlookBarPaneAdapter@@MBEPBUAFX_MSGMAP@@XZ @ 6000 NONAME
 ?GetMessageMap@CMFCOutlookBarTabCtrl@@MBEPBUAFX_MSGMAP@@XZ @ 6001 NONAME
 ?GetMessageMap@CMFCOutlookBarToolBar@@MBEPBUAFX_MSGMAP@@XZ @ 6002 NONAME
 ?GetMessageMap@CMFCPopupMenu@@MBEPBUAFX_MSGMAP@@XZ @ 6003 NONAME
 ?GetMessageMap@CMFCPopupMenuBar@@MBEPBUAFX_MSGMAP@@XZ @ 6004 NONAME
 ?GetMessageMap@CMFCPreviewCtrlImpl@@MBEPBUAFX_MSGMAP@@XZ @ 6005 NONAME
 ?GetMessageMap@CMFCPrintPreviewToolBar@@MBEPBUAFX_MSGMAP@@XZ @ 6006 NONAME
 ?GetMessageMap@CMFCPropertyGridCtrl@@MBEPBUAFX_MSGMAP@@XZ @ 6007 NONAME
 ?GetMessageMap@CMFCPropertyGridToolTipCtrl@@MBEPBUAFX_MSGMAP@@XZ @ 6008 NONAME
 ?GetMessageMap@CMFCPropertyPage@@MBEPBUAFX_MSGMAP@@XZ @ 6009 NONAME
 ?GetMessageMap@CMFCPropertySheet@@MBEPBUAFX_MSGMAP@@XZ @ 6010 NONAME
 ?GetMessageMap@CMFCPropertySheetListBox@@MBEPBUAFX_MSGMAP@@XZ @ 6011 NONAME
 ?GetMessageMap@CMFCReBar@@MBEPBUAFX_MSGMAP@@XZ @ 6012 NONAME
 ?GetMessageMap@CMFCRibbonBar@@MBEPBUAFX_MSGMAP@@XZ @ 6013 NONAME
 ?GetMessageMap@CMFCRibbonCommandsListBox@@MBEPBUAFX_MSGMAP@@XZ @ 6014 NONAME
 ?GetMessageMap@CMFCRibbonCustomizePropertyPage@@MBEPBUAFX_MSGMAP@@XZ @ 6015 NONAME
 ?GetMessageMap@CMFCRibbonKeyboardCustomizeDialog@@MBEPBUAFX_MSGMAP@@XZ @ 6016 NONAME
 ?GetMessageMap@CMFCRibbonKeyTip@@MBEPBUAFX_MSGMAP@@XZ @ 6017 NONAME
 ?GetMessageMap@CMFCRibbonMiniToolBar@@MBEPBUAFX_MSGMAP@@XZ @ 6018 NONAME
 ?GetMessageMap@CMFCRibbonPanelMenu@@MBEPBUAFX_MSGMAP@@XZ @ 6019 NONAME
 ?GetMessageMap@CMFCRibbonPanelMenuBar@@MBEPBUAFX_MSGMAP@@XZ @ 6020 NONAME
 ?GetMessageMap@CMFCRibbonRichEditCtrl@@MBEPBUAFX_MSGMAP@@XZ @ 6021 NONAME
 ?GetMessageMap@CMFCRibbonSpinButtonCtrl@@MBEPBUAFX_MSGMAP@@XZ @ 6022 NONAME
 ?GetMessageMap@CMFCRibbonStatusBar@@MBEPBUAFX_MSGMAP@@XZ @ 6023 NONAME
 ?GetMessageMap@CMFCShadowWnd@@MBEPBUAFX_MSGMAP@@XZ @ 6024 NONAME
 ?GetMessageMap@CMFCShellListCtrl@@MBEPBUAFX_MSGMAP@@XZ @ 6025 NONAME
 ?GetMessageMap@CMFCShellTreeCtrl@@MBEPBUAFX_MSGMAP@@XZ @ 6026 NONAME
 ?GetMessageMap@CMFCSpinButtonCtrl@@MBEPBUAFX_MSGMAP@@XZ @ 6027 NONAME
 ?GetMessageMap@CMFCStandardColorsPropertyPage@@MBEPBUAFX_MSGMAP@@XZ @ 6028 NONAME
 ?GetMessageMap@CMFCStatusBar@@MBEPBUAFX_MSGMAP@@XZ @ 6029 NONAME
 ?GetMessageMap@CMFCTabCtrl@@MBEPBUAFX_MSGMAP@@XZ @ 6030 NONAME
 ?GetMessageMap@CMFCTasksPane@@MBEPBUAFX_MSGMAP@@XZ @ 6031 NONAME
 ?GetMessageMap@CMFCTasksPaneFrameWnd@@MBEPBUAFX_MSGMAP@@XZ @ 6032 NONAME
 ?GetMessageMap@CMFCTasksPaneToolBar@@MBEPBUAFX_MSGMAP@@XZ @ 6033 NONAME
 ?GetMessageMap@CMFCToolBar@@MBEPBUAFX_MSGMAP@@XZ @ 6034 NONAME
 ?GetMessageMap@CMFCToolBarButtonCustomizeDialog@@MBEPBUAFX_MSGMAP@@XZ @ 6035 NONAME
 ?GetMessageMap@CMFCToolBarButtonsListButton@@MBEPBUAFX_MSGMAP@@XZ @ 6036 NONAME
 ?GetMessageMap@CMFCToolBarComboBoxEdit@@MBEPBUAFX_MSGMAP@@XZ @ 6037 NONAME
 ?GetMessageMap@CMFCToolBarDateTimeCtrlImpl@@MBEPBUAFX_MSGMAP@@XZ @ 6038 NONAME
 ?GetMessageMap@CMFCToolBarDropSource@@MBEPBUAFX_MSGMAP@@XZ @ 6039 NONAME
 ?GetMessageMap@CMFCToolBarDropTarget@@MBEPBUAFX_MSGMAP@@XZ @ 6040 NONAME
 ?GetMessageMap@CMFCToolBarEditCtrl@@MBEPBUAFX_MSGMAP@@XZ @ 6041 NONAME
 ?GetMessageMap@CMFCToolBarNameDialog@@MBEPBUAFX_MSGMAP@@XZ @ 6042 NONAME
 ?GetMessageMap@CMFCToolBarsCommandsListBox@@MBEPBUAFX_MSGMAP@@XZ @ 6043 NONAME
 ?GetMessageMap@CMFCToolBarsCommandsPropertyPage@@MBEPBUAFX_MSGMAP@@XZ @ 6044 NONAME
 ?GetMessageMap@CMFCToolBarsCustomizeDialog@@MBEPBUAFX_MSGMAP@@XZ @ 6045 NONAME
 ?GetMessageMap@CMFCToolBarsKeyboardPropertyPage@@MBEPBUAFX_MSGMAP@@XZ @ 6046 NONAME
 ?GetMessageMap@CMFCToolBarsListCheckBox@@MBEPBUAFX_MSGMAP@@XZ @ 6047 NONAME
 ?GetMessageMap@CMFCToolBarsListPropertyPage@@MBEPBUAFX_MSGMAP@@XZ @ 6048 NONAME
 ?GetMessageMap@CMFCToolBarsMenuPropertyPage@@MBEPBUAFX_MSGMAP@@XZ @ 6049 NONAME
 ?GetMessageMap@CMFCToolBarsOptionsPropertyPage@@MBEPBUAFX_MSGMAP@@XZ @ 6050 NONAME
 ?GetMessageMap@CMFCToolBarsToolsPropertyPage@@MBEPBUAFX_MSGMAP@@XZ @ 6051 NONAME
 ?GetMessageMap@CMFCToolTipCtrl@@MBEPBUAFX_MSGMAP@@XZ @ 6052 NONAME
 ?GetMessageMap@CMFCWindowsManagerDialog@@MBEPBUAFX_MSGMAP@@XZ @ 6053 NONAME
 ?GetMessageMap@CMiniDockFrameWnd@@MBEPBUAFX_MSGMAP@@XZ @ 6054 NONAME
 ?GetMessageMap@CMiniFrameWnd@@MBEPBUAFX_MSGMAP@@XZ @ 6055 NONAME
 ?GetMessageMap@CMultiPaneFrameWnd@@MBEPBUAFX_MSGMAP@@XZ @ 6056 NONAME
 ?GetMessageMap@COleCntrFrameWndEx@@MBEPBUAFX_MSGMAP@@XZ @ 6057 NONAME
 ?GetMessageMap@COleControl@@MBEPBUAFX_MSGMAP@@XZ @ 6058 NONAME
 ?GetMessageMap@COleDBRecordView@@MBEPBUAFX_MSGMAP@@XZ @ 6059 NONAME
 ?GetMessageMap@COleDocIPFrameWnd@@MBEPBUAFX_MSGMAP@@XZ @ 6060 NONAME
 ?GetMessageMap@COleDocIPFrameWndEx@@MBEPBUAFX_MSGMAP@@XZ @ 6061 NONAME
 ?GetMessageMap@COleIPFrameWnd@@MBEPBUAFX_MSGMAP@@XZ @ 6062 NONAME
 ?GetMessageMap@COleIPFrameWndEx@@MBEPBUAFX_MSGMAP@@XZ @ 6063 NONAME
 ?GetMessageMap@COlePropertyPage@@MBEPBUAFX_MSGMAP@@XZ @ 6064 NONAME
 ?GetMessageMap@COleResizeBar@@MBEPBUAFX_MSGMAP@@XZ @ 6065 NONAME
 ?GetMessageMap@COleServerDoc@@MBEPBUAFX_MSGMAP@@XZ @ 6066 NONAME
 ?GetMessageMap@COleServerDocEx@@MBEPBUAFX_MSGMAP@@XZ @ 6067 NONAME
 ?GetMessageMap@COutlookOptionsDlg@@MBEPBUAFX_MSGMAP@@XZ @ 6068 NONAME
 ?GetMessageMap@CPane@@MBEPBUAFX_MSGMAP@@XZ @ 6069 NONAME
 ?GetMessageMap@CPaneDialog@@MBEPBUAFX_MSGMAP@@XZ @ 6070 NONAME
 ?GetMessageMap@CPaneDivider@@MBEPBUAFX_MSGMAP@@XZ @ 6071 NONAME
 ?GetMessageMap@CPaneFrameWnd@@MBEPBUAFX_MSGMAP@@XZ @ 6072 NONAME
 ?GetMessageMap@CPreviewView@@MBEPBUAFX_MSGMAP@@XZ @ 6073 NONAME
 ?GetMessageMap@CPreviewViewEx@@MBEPBUAFX_MSGMAP@@XZ @ 6074 NONAME
 ?GetMessageMap@CPrintDialog@@MBEPBUAFX_MSGMAP@@XZ @ 6075 NONAME
 ?GetMessageMap@CPrintDialogEx@@MBEPBUAFX_MSGMAP@@XZ @ 6076 NONAME
 ?GetMessageMap@CPropertyPage@@MBEPBUAFX_MSGMAP@@XZ @ 6077 NONAME
 ?GetMessageMap@CPropertySheet@@MBEPBUAFX_MSGMAP@@XZ @ 6078 NONAME
 ?GetMessageMap@CReBar@@MBEPBUAFX_MSGMAP@@XZ @ 6079 NONAME
 ?GetMessageMap@CRecordView@@MBEPBUAFX_MSGMAP@@XZ @ 6080 NONAME
 ?GetMessageMap@CRichEditView@@MBEPBUAFX_MSGMAP@@XZ @ 6081 NONAME
 ?GetMessageMap@CScreenWnd@@MBEPBUAFX_MSGMAP@@XZ @ 6082 NONAME
 ?GetMessageMap@CScrollView@@MBEPBUAFX_MSGMAP@@XZ @ 6083 NONAME
 ?GetMessageMap@CSmartDockingGroupGuidesWnd@@MBEPBUAFX_MSGMAP@@XZ @ 6084 NONAME
 ?GetMessageMap@CSmartDockingHighlighterWnd@@MBEPBUAFX_MSGMAP@@XZ @ 6085 NONAME
 ?GetMessageMap@CSmartDockingStandaloneGuideWnd@@MBEPBUAFX_MSGMAP@@XZ @ 6086 NONAME
 ?GetMessageMap@CSocketWnd@@MBEPBUAFX_MSGMAP@@XZ @ 6087 NONAME
 ?GetMessageMap@CSplitterWnd@@MBEPBUAFX_MSGMAP@@XZ @ 6088 NONAME
 ?GetMessageMap@CSplitterWndEx@@MBEPBUAFX_MSGMAP@@XZ @ 6089 NONAME
 ?GetMessageMap@CStatusBar@@MBEPBUAFX_MSGMAP@@XZ @ 6090 NONAME
 ?GetMessageMap@CTabbedPane@@MBEPBUAFX_MSGMAP@@XZ @ 6091 NONAME
 ?GetMessageMap@CTabCtrl@@MBEPBUAFX_MSGMAP@@XZ @ 6092 NONAME
 ?GetMessageMap@CTabView@@MBEPBUAFX_MSGMAP@@XZ @ 6093 NONAME
 ?GetMessageMap@CToolBar@@MBEPBUAFX_MSGMAP@@XZ @ 6094 NONAME
 ?GetMessageMap@CToolBarCtrl@@MBEPBUAFX_MSGMAP@@XZ @ 6095 NONAME
 ?GetMessageMap@CToolTipCtrl@@MBEPBUAFX_MSGMAP@@XZ @ 6096 NONAME
 ?GetMessageMap@CTreeCtrl@@MBEPBUAFX_MSGMAP@@XZ @ 6097 NONAME
 ?GetMessageMap@CTreeView@@MBEPBUAFX_MSGMAP@@XZ @ 6098 NONAME
 ?GetMessageMap@CView@@MBEPBUAFX_MSGMAP@@XZ @ 6099 NONAME
 ?GetMessageMap@CVSListBox@@MBEPBUAFX_MSGMAP@@XZ @ 6100 NONAME
 ?GetMessageMap@CVSListBoxBase@@MBEPBUAFX_MSGMAP@@XZ @ 6101 NONAME
 ?GetMessageMap@CVSListBoxEditCtrl@@MBEPBUAFX_MSGMAP@@XZ @ 6102 NONAME
 ?GetMessageMap@CWinApp@@MBEPBUAFX_MSGMAP@@XZ @ 6103 NONAME
 ?GetMessageMap@CWnd@@MBEPBUAFX_MSGMAP@@XZ @ 6104 NONAME
 ?GetMessageString@CFrameWnd@@UBEXIAAV?$CStringT@DV?$StrTraitMFC_DLL@DV?$ChTraitsCRT@D@ATL@@@@@ATL@@@Z @ 6105 NONAME
 ?GetMessageString@COleControl@@UBEXIAAV?$CStringT@DV?$StrTraitMFC_DLL@DV?$ChTraitsCRT@D@ATL@@@@@ATL@@@Z @ 6106 NONAME
 ?GetMetaData@CDataSourceControl@@QAEJXZ @ 6107 NONAME
 ?GetMetafileData@COleControl@@IAEHPAUtagFORMATETC@@PAUtagSTGMEDIUM@@@Z @ 6108 NONAME
 ?GetMetafileData@COleServerItem@@MAEHPAUtagFORMATETC@@PAUtagSTGMEDIUM@@@Z @ 6109 NONAME
 ?GetMinMaxOffset@CPaneContainerManager@@UAEXPAVCPaneDivider@@AAH11@Z @ 6110 NONAME
 ?GetMinSize@CBaseTabbedPane@@UBEXAAVCSize@@@Z @ 6111 NONAME
 ?GetMinSize@CPaneContainer@@UBEXAAVCSize@@@Z @ 6112 NONAME
 ?GetMinSize@CPaneContainerManager@@UAEXAAVCSize@@@Z @ 6113 NONAME
 ?GetMinSizeLeft@CPaneContainer@@UBEXAAVCSize@@@Z @ 6114 NONAME
 ?GetMinSizeRight@CPaneContainer@@UBEXAAVCSize@@@Z @ 6115 NONAME
 ?GetMinWidth@CMFCRibbonCategory@@IAEHPAVCDC@@@Z @ 6116 NONAME
 ?GetMinWidth@CMFCRibbonPanel@@IAEHPAVCDC@@@Z @ 6117 NONAME
 ?GetMiscStatus@XOleObject@CDocObjectServer@@UAGJKPAK@Z @ 6118 NONAME
 ?GetMiscStatus@XOleObject@COleControl@@UAGJKPAK@Z @ 6119 NONAME
 ?GetMiscStatus@XOleObject@COleServerDoc@@UAGJKPAK@Z @ 6120 NONAME
 ?GetMiscStatus@XOleObject@COleServerItem@@UAGJKPAK@Z @ 6121 NONAME
 ?GetModifyPointers@CRectTracker@@IAEXHPAPAH0PAH1@Z @ 6122 NONAME
 ?GetMoniker@COleDocument@@UAEPAUIMoniker@@W4tagOLEGETMONIKER@@@Z @ 6123 NONAME
 ?GetMoniker@COleLinkingDoc@@UAEPAUIMoniker@@W4tagOLEGETMONIKER@@@Z @ 6124 NONAME
 ?GetMoniker@COleServerDoc@@UAEPAUIMoniker@@W4tagOLEGETMONIKER@@@Z @ 6125 NONAME
 ?GetMoniker@COleServerItem@@QAEPAUIMoniker@@W4tagOLEGETMONIKER@@@Z @ 6126 NONAME
 ?GetMoniker@XOleClientSite@COleClientItem@@UAGJKKPAPAUIMoniker@@@Z @ 6127 NONAME
 ?GetMoniker@XOleClientSite@COleControlSite@@UAGJKKPAPAUIMoniker@@@Z @ 6128 NONAME
 ?GetMoniker@XOleObject@CDocObjectServer@@UAGJKKPAPAUIMoniker@@@Z @ 6129 NONAME
 ?GetMoniker@XOleObject@COleControl@@UAGJKKPAPAUIMoniker@@@Z @ 6130 NONAME
 ?GetMoniker@XOleObject@COleServerDoc@@UAGJKKPAPAUIMoniker@@@Z @ 6131 NONAME
 ?GetMoniker@XOleObject@COleServerItem@@UAGJKKPAPAUIMoniker@@@Z @ 6132 NONAME
 ?GetMonthRange@CMonthCalCtrl@@QBEHAAVCOleDateTime@ATL@@0K@Z @ 6133 NONAME
 ?GetMonthRange@CMonthCalCtrl@@QBEHAAVCTime@ATL@@0K@Z @ 6134 NONAME
 ?GetMonthRange@CMonthCalCtrl@@QBEHPAU_SYSTEMTIME@@0K@Z @ 6135 NONAME
 ?GetMouseManager@CWinAppEx@@QAEPAVCMouseManager@@XZ @ 6136 NONAME
 ?GetMRUFileName@CMFCTasksPane@@MAEHPAVCRecentFileList@@HAAV?$CStringT@DV?$StrTraitMFC_DLL@DV?$ChTraitsCRT@D@ATL@@@@@ATL@@@Z @ 6137 NONAME
 ?GetName@CDaoDatabase@@QAE?AV?$CStringT@DV?$StrTraitMFC_DLL@DV?$ChTraitsCRT@D@ATL@@@@@ATL@@XZ @ 6138 NONAME
 ?GetName@CDaoQueryDef@@QAE?AV?$CStringT@DV?$StrTraitMFC_DLL@DV?$ChTraitsCRT@D@ATL@@@@@ATL@@XZ @ 6139 NONAME
 ?GetName@CDaoRecordset@@QAE?AV?$CStringT@DV?$StrTraitMFC_DLL@DV?$ChTraitsCRT@D@ATL@@@@@ATL@@XZ @ 6140 NONAME
 ?GetName@CDaoTableDef@@QAE?AV?$CStringT@DV?$StrTraitMFC_DLL@DV?$ChTraitsCRT@D@ATL@@@@@ATL@@XZ @ 6141 NONAME
 ?GetName@CDaoWorkspace@@QAE?AV?$CStringT@DV?$StrTraitMFC_DLL@DV?$ChTraitsCRT@D@ATL@@@@@ATL@@XZ @ 6142 NONAME
 ?GetNameTooltip@CMFCPropertyGridProperty@@UAE?AV?$CStringT@DV?$StrTraitMFC_DLL@DV?$ChTraitsCRT@D@ATL@@@@@ATL@@XZ @ 6143 NONAME
 ?GetNaturalExtent@XViewObject@COleControl@@UAGJKJPAUtagDVTARGETDEVICE@@PAUHDC__@@PAUtagExtentInfo@@PAUtagSIZE@@@Z @ 6144 NONAME
 ?GetNcBtnSize@CMFCVisualManager@@UBE?AVCSize@@H@Z @ 6145 NONAME
 ?GetNcBtnSize@CMFCVisualManagerOffice2007@@UBE?AVCSize@@H@Z @ 6146 NONAME
 ?GetNewItemNumber@COleClientItem@@QAEKXZ @ 6147 NONAME
 ?GetNewStorage@XRichEditOleCallback@CRichEditView@@UAGJPAPAUIStorage@@@Z @ 6148 NONAME
 ?GetNext@CDataBoundProperty@@QAEPAV1@XZ @ 6149 NONAME
 ?GetNextAssoc@CMapPtrToPtr@@QBEXAAPAU__POSITION@@AAPAX1@Z @ 6150 NONAME
 ?GetNextAssoc@CMapPtrToWord@@QBEXAAPAU__POSITION@@AAPAXAAG@Z @ 6151 NONAME
 ?GetNextAssoc@CMapStringToOb@@QBEXAAPAU__POSITION@@AAV?$CStringT@DV?$StrTraitMFC_DLL@DV?$ChTraitsCRT@D@ATL@@@@@ATL@@AAPAVCObject@@@Z @ 6152 NONAME
 ?GetNextAssoc@CMapStringToPtr@@QBEXAAPAU__POSITION@@AAV?$CStringT@DV?$StrTraitMFC_DLL@DV?$ChTraitsCRT@D@ATL@@@@@ATL@@AAPAX@Z @ 6153 NONAME
 ?GetNextAssoc@CMapStringToString@@QBEXAAPAU__POSITION@@AAV?$CStringT@DV?$StrTraitMFC_DLL@DV?$ChTraitsCRT@D@ATL@@@@@ATL@@1@Z @ 6154 NONAME
 ?GetNextAssoc@CMapWordToOb@@QBEXAAPAU__POSITION@@AAGAAPAVCObject@@@Z @ 6155 NONAME
 ?GetNextAssoc@CMapWordToPtr@@QBEXAAPAU__POSITION@@AAGAAPAX@Z @ 6156 NONAME
 ?GetNextClientItem@COleDocument@@QBEPAVCOleClientItem@@AAPAU__POSITION@@@Z @ 6157 NONAME
 ?GetNextConnection@CConnectionPoint@@QBEPAUIUnknown@@AAPAU__POSITION@@@Z @ 6158 NONAME
 ?GetNextDlgGroupItem@CWnd@@QBEPAUCOleControlSiteOrWnd@@PAU2@@Z @ 6159 NONAME
 ?GetNextDlgTabItem@CWnd@@QBEPAUCOleControlSiteOrWnd@@PAU2@H@Z @ 6160 NONAME
 ?GetNextDoc@CMultiDocTemplate@@UBEPAVCDocument@@AAPAU__POSITION@@@Z @ 6161 NONAME
 ?GetNextDoc@CSingleDocTemplate@@UBEPAVCDocument@@AAPAU__POSITION@@@Z @ 6162 NONAME
 ?GetNextDocTemplate@CDocManager@@UBEPAVCDocTemplate@@AAPAU__POSITION@@@Z @ 6163 NONAME
 ?GetNextDocTemplate@CWinApp@@QBEPAVCDocTemplate@@AAPAU__POSITION@@@Z @ 6164 NONAME
 ?GetNextFormat@COleDataObject@@QAEHPAUtagFORMATETC@@@Z @ 6165 NONAME
 ?GetNextItem@COleDocument@@UBEPAVCDocItem@@AAPAU__POSITION@@@Z @ 6166 NONAME
 ?GetNextItem@CShellManager@@QAEPAU_ITEMIDLIST@@PBU2@@Z @ 6167 NONAME
 ?GetNextItemOfKind@COleDocument@@IBEPAVCDocItem@@AAPAU__POSITION@@PAUCRuntimeClass@@@Z @ 6168 NONAME
 ?GetNextLink@COleUILinkInfo@@UAGKK@Z @ 6169 NONAME
 ?GetNextPages@CMFCTasksPane@@QBEXAAVCStringList@@@Z @ 6170 NONAME
 ?GetNextPathName@CFileDialog@@QBE?AV?$CStringT@DV?$StrTraitMFC_DLL@DV?$ChTraitsCRT@D@ATL@@@@@ATL@@AAPAU__POSITION@@@Z @ 6171 NONAME
 ?GetNextServerItem@COleDocument@@QBEPAVCOleServerItem@@AAPAU__POSITION@@@Z @ 6172 NONAME
 ?GetNextTabWnd@CMDIClientAreaWnd@@AAEPAVCMFCTabCtrl@@PAV2@H@Z @ 6173 NONAME
 ?GetNextView@CDocument@@UBEPAVCView@@AAPAU__POSITION@@@Z @ 6174 NONAME
 ?GetNilString@CAfxStringMgr@@UAEPAUCStringData@ATL@@XZ @ 6175 NONAME
 ?GetNodeCount@CPaneContainer@@QBEHXZ @ 6176 NONAME
 ?GetNodeCount@CPaneContainerManager@@QBEHXZ @ 6177 NONAME
 ?GetNonClientMetrics@AFX_GLOBAL_DATA@@QAEHAAUtagNONCLIENTMETRICSA@@@Z @ 6178 NONAME
 ?GetNormalDocumentTitle@CDataRecoveryHandler@@UBE?AV?$CStringT@DV?$StrTraitMFC_DLL@DV?$ChTraitsCRT@D@ATL@@@@@ATL@@PAVCDocument@@@Z @ 6179 NONAME
 ?GetNotifier@CFindReplaceDialog@@SGPAV1@J@Z @ 6180 NONAME
 ?GetNotSupported@CCmdTarget@@QAEXXZ @ 6181 NONAME
 ?GetNotSupported@COleControl@@QAEXXZ @ 6182 NONAME
 ?GetObjectA@CHttpFile@@QBE?AV?$CStringT@DV?$StrTraitMFC_DLL@DV?$ChTraitsCRT@D@ATL@@@@@ATL@@XZ @ 6183 NONAME
 ?GetObjectA@CWinAppEx@@QAEHPBDAAVCObject@@@Z @ 6184 NONAME
 ?GetObjectA@XOleItemContainer@COleLinkingDoc@@UAGJPA_WKPAUIBindCtx@@ABU_GUID@@PAPAX@Z @ 6185 NONAME
 ?GetObjectArray@COlePropertyPage@@QAEPAPAUIDispatch@@PAK@Z @ 6186 NONAME
 ?GetObjectCollection@CJumpList@@IAEPAUIObjectCollection@@PBD@Z @ 6187 NONAME
 ?GetObjectDescriptorData@COleClientItem@@IAEXPAUtagPOINT@@PAUtagSIZE@@PAUtagSTGMEDIUM@@@Z @ 6188 NONAME
 ?GetObjectDescriptorData@COleServerItem@@QAEXPAUtagPOINT@@PAUtagSIZE@@PAUtagSTGMEDIUM@@@Z @ 6189 NONAME
 ?GetObjectInfo@XOleUIObjInfo@COlePropertiesDialog@@UAGJKPAKPAPAD111@Z @ 6190 NONAME
 ?GetObjectSchema@CArchive@@QAEIXZ @ 6191 NONAME
 ?GetObjectStorage@XOleItemContainer@COleLinkingDoc@@UAGJPA_WPAUIBindCtx@@ABU_GUID@@PAPAX@Z @ 6192 NONAME
 ?GetOccDialogInfo@CDialog@@MAEPAU_AFX_OCC_DIALOG_INFO@@XZ @ 6193 NONAME
 ?GetOccDialogInfo@CFormView@@MAEPAU_AFX_OCC_DIALOG_INFO@@XZ @ 6194 NONAME
 ?GetOccDialogInfo@CWnd@@MAEPAU_AFX_OCC_DIALOG_INFO@@XZ @ 6195 NONAME
 ?GetODBCFieldInfo@CRecordset@@QAEXFAAUCODBCFieldInfo@@@Z @ 6196 NONAME
 ?GetODBCFieldInfo@CRecordset@@QAEXPBDAAUCODBCFieldInfo@@@Z @ 6197 NONAME
 ?GetODBCTimeout@CDaoQueryDef@@QAEFXZ @ 6198 NONAME
 ?GetOffline@CHtmlView@@QBEHXZ @ 6199 NONAME
 ?GetOFN@CFileDialog@@QAEAAUtagOFNA@@XZ @ 6200 NONAME
 ?GetOFN@CFileDialog@@QBEABUtagOFNA@@XZ @ 6201 NONAME
 ?GetOleControlSite@CWnd@@QBEPAVCOleControlSite@@I@Z @ 6202 NONAME
 ?GetOleObject@COleServerItem@@QAEPAUIOleObject@@XZ @ 6203 NONAME
 ?GetOneDimSize@COleSafeArray@@QAEKXZ @ 6204 NONAME
 ?GetOpacity@CD2DBrush@@QBEMXZ @ 6205 NONAME
 ?GetOpenDocumentCount@CDocManager@@UAEHXZ @ 6206 NONAME
 ?GetOpenDocumentCount@CWinApp@@QAEHXZ @ 6207 NONAME
 ?GetOppositeAlignment@CGlobalUtils@@QAEKK@Z @ 6208 NONAME
 ?GetOptimalTextSize@CMFCDesktopAlertDialog@@IAE?AVCSize@@V?$CStringT@DV?$StrTraitMFC_DLL@DV?$ChTraitsCRT@D@ATL@@@@@ATL@@@Z @ 6209 NONAME
 ?GetOption@CMFCPropertyGridProperty@@QBEPBDH@Z @ 6210 NONAME
 ?GetOptionCount@CMFCPropertyGridProperty@@QBEHXZ @ 6211 NONAME
 ?GetOptionKeyPath@CBrowserControlSite@@MAGJPAPA_WK@Z @ 6212 NONAME
 ?GetOptionKeyPath@CDHtmlDialog@@UAGJPAPA_WK@Z @ 6213 NONAME
 ?GetOptionKeyPath@XDocHostUIHandler@CHtmlControlSite@@UAGJPAPA_WK@Z @ 6214 NONAME
 ?GetOrderArray@CHeaderCtrl@@QBEHPAHH@Z @ 6215 NONAME
 ?GetOSVersion@CPropertySet@@QAEKXZ @ 6216 NONAME
 ?GetOuterWindow@COleControl@@IBEPAVCWnd@@XZ @ 6217 NONAME
 ?GetOutOfBoundsOffset@CDockingPanesRow@@AAEHPAVCPane@@H@Z @ 6218 NONAME
 ?GetOutOfBoundsOffsetRect@CDockingPanesRow@@IAEHPAVCPane@@H@Z @ 6219 NONAME
 ?GetPageByGroup@CMFCTasksPane@@QBEHHAAH@Z @ 6220 NONAME
 ?GetPageCount@COleDocObjectItem@@QAEHPAJ0@Z @ 6221 NONAME
 ?GetPageCount@CPropertySheet@@QBEHXZ @ 6222 NONAME
 ?GetPageIndex@CPropertySheet@@QAEHPAVCPropertyPage@@@Z @ 6223 NONAME
 ?GetPageInfo@XPrint@CDocObjectServer@@UAGJPAJ0@Z @ 6224 NONAME
 ?GetPageInfo@XPropertyPage@COlePropertyPage@@UAGJPAUtagPROPPAGEINFO@@@Z @ 6225 NONAME
 ?GetPages@XSpecifyPropertyPages@COleControl@@UAGJPAUtagCAUUID@@@Z @ 6226 NONAME
 ?GetPageSite@COlePropertyPage@@QAEPAUIPropertyPageSite@@XZ @ 6227 NONAME
 ?GetPaltteMinSize@CMFCRibbonPanel@@IBE?AVCSize@@XZ @ 6228 NONAME
 ?GetPane@CFrameWndEx@@QAEPAVCBasePane@@I@Z @ 6229 NONAME
 ?GetPane@CMDIChildWndEx@@QAEPAVCBasePane@@I@Z @ 6230 NONAME
 ?GetPane@CMDIFrameWndEx@@QAEPAVCBasePane@@I@Z @ 6231 NONAME
 ?GetPane@CMultiPaneFrameWnd@@UBEPAVCWnd@@XZ @ 6232 NONAME
 ?GetPane@COleCntrFrameWndEx@@QAEPAVCBasePane@@I@Z @ 6233 NONAME
 ?GetPane@COleDocIPFrameWndEx@@QAEPAVCBasePane@@I@Z @ 6234 NONAME
 ?GetPane@COleIPFrameWndEx@@QAEPAVCBasePane@@I@Z @ 6235 NONAME
 ?GetPane@CPaneFrameWnd@@UBEPAVCWnd@@XZ @ 6236 NONAME
 ?GetPane@CSplitterWnd@@QBEPAVCWnd@@HH@Z @ 6237 NONAME
 ?GetPaneAndAlignFromPoint@CGlobalUtils@@QAEHAAVCPaneContainerManager@@VCPoint@@PAPAVCDockablePane@@AAKAAH4@Z @ 6238 NONAME
 ?GetPaneDividers@CPaneDivider@@QAEXAAVCObList@@@Z @ 6239 NONAME
 ?GetPaneIcon@CBaseTabbedPane@@UAEPAUHICON__@@H@Z @ 6240 NONAME
 ?GetPaneInfo@CMFCStatusBar@@QBEXHAAI0AAH@Z @ 6241 NONAME
 ?GetPaneInfo@CStatusBar@@QBEXHAAI0AAH@Z @ 6242 NONAME
 ?GetPanel@CMFCRibbonCategory@@QAEPAVCMFCRibbonPanel@@H@Z @ 6243 NONAME
 ?GetPanelCount@CMFCRibbonCategory@@QBEHXZ @ 6244 NONAME
 ?GetPanelFromPoint@CMFCRibbonCategory@@QBEPAVCMFCRibbonPanel@@VCPoint@@@Z @ 6245 NONAME
 ?GetPanelIndex@CMFCRibbonCategory@@QBEHPBVCMFCRibbonPanel@@@Z @ 6246 NONAME
 ?GetPaneList@CBaseTabbedPane@@UAEXAAVCObList@@PAUCRuntimeClass@@@Z @ 6247 NONAME
 ?GetPaneList@CDockingManager@@QAEXAAVCObList@@HPAUCRuntimeClass@@H@Z @ 6248 NONAME
 ?GetPaneList@CPaneFrameWnd@@KGXAAVCObList@@PAUCRuntimeClass@@H@Z @ 6249 NONAME
 ?GetPaneName@CPane@@UBEXAAV?$CStringT@DV?$StrTraitMFC_DLL@DV?$ChTraitsCRT@D@ATL@@@@@ATL@@@Z @ 6250 NONAME
 ?GetPaneProgress@CMFCStatusBar@@QBEJH@Z @ 6251 NONAME
 ?GetPanes@CPaneDivider@@QAEXAAVCObList@@@Z @ 6252 NONAME
 ?GetPaneStyle@CMFCStatusBar@@QBEIH@Z @ 6253 NONAME
 ?GetPaneStyle@CStatusBar@@QBEIH@Z @ 6254 NONAME
 ?GetPaneText@CMFCStatusBar@@QBE?AV?$CStringT@DV?$StrTraitMFC_DLL@DV?$ChTraitsCRT@D@ATL@@@@@ATL@@H@Z @ 6255 NONAME
 ?GetPaneText@CMFCStatusBar@@QBEXHAAV?$CStringT@DV?$StrTraitMFC_DLL@DV?$ChTraitsCRT@D@ATL@@@@@ATL@@@Z @ 6256 NONAME
 ?GetPaneText@CStatusBar@@QBE?AV?$CStringT@DV?$StrTraitMFC_DLL@DV?$ChTraitsCRT@D@ATL@@@@@ATL@@H@Z @ 6257 NONAME
 ?GetPaneText@CStatusBar@@QBEXHAAV?$CStringT@DV?$StrTraitMFC_DLL@DV?$ChTraitsCRT@D@ATL@@@@@ATL@@@Z @ 6258 NONAME
 ?GetPaneWidth@CMFCStatusBar@@QBEHH@Z @ 6259 NONAME
 ?GetParaFormat@CRichEditCtrl@@QBEKAAU_paraformat@@@Z @ 6260 NONAME
 ?GetParaFormat@CRichEditCtrl@@QBEKAAUPARAFORMAT2@@@Z @ 6261 NONAME
 ?GetParaFormatSelection@CRichEditView@@QAEAAUPARAFORMAT2@@XZ @ 6262 NONAME
 ?GetParameterCount@CDaoQueryDef@@QAEFXZ @ 6263 NONAME
 ?GetParameterInfo@CDaoQueryDef@@QAEXHAAUCDaoParameterInfo@@K@Z @ 6264 NONAME
 ?GetParameterInfo@CDaoQueryDef@@QAEXPBDAAUCDaoParameterInfo@@K@Z @ 6265 NONAME
 ?GetParamValue@CDaoQueryDef@@UAE?AVCOleVariant@@H@Z @ 6266 NONAME
 ?GetParamValue@CDaoQueryDef@@UAE?AVCOleVariant@@PBD@Z @ 6267 NONAME
 ?GetParamValue@CDaoRecordset@@UAE?AVCOleVariant@@H@Z @ 6268 NONAME
 ?GetParamValue@CDaoRecordset@@UAE?AVCOleVariant@@PBD@Z @ 6269 NONAME
 ?GetParentArea@CMFCPopupMenu@@UAEPAVCWnd@@AAVCRect@@@Z @ 6270 NONAME
 ?GetParentBrowser@CHtmlView@@QBEPAUIDispatch@@XZ @ 6271 NONAME
 ?GetParentButton@CMFCRibbonCategory@@QBEPAVCMFCRibbonBaseElement@@XZ @ 6272 NONAME
 ?GetParentButton@CMFCRibbonPanel@@QBEPAVCMFCRibbonBaseElement@@XZ @ 6273 NONAME
 ?GetParentFrame@CWnd@@QBEPAVCFrameWnd@@XZ @ 6274 NONAME
 ?GetParentItem@CShellManager@@QAEHPBU_ITEMIDLIST@@AAPAU2@@Z @ 6275 NONAME
 ?GetParentMenuBar@CMFCDropDownFrame@@QBEPAVCMFCMenuBar@@XZ @ 6276 NONAME
 ?GetParentMiniFrame@CBasePane@@UBEPAVCPaneFrameWnd@@H@Z @ 6277 NONAME
 ?GetParentOwner@CWnd@@QBEPAV1@XZ @ 6278 NONAME
 ?GetParentPanel@CMFCRibbonBaseElement@@UBEPAVCMFCRibbonPanel@@XZ @ 6279 NONAME
 ?GetParentPopupMenu@CMFCDropDownFrame@@QBEPAV1@XZ @ 6280 NONAME
 ?GetParentPopupMenu@CMFCPopupMenu@@QBEPAV1@XZ @ 6281 NONAME
 ?GetParentRibbonMenuBar@CMFCRibbonPanelMenu@@QBEPAVCMFCRibbonPanelMenuBar@@XZ @ 6282 NONAME
 ?GetParentSheet@CPropertyPage@@UAEPAVCPropertySheet@@XZ @ 6283 NONAME
 ?GetParentSplitter@CView@@SGPAVCSplitterWnd@@PBVCWnd@@H@Z @ 6284 NONAME
 ?GetParentTabbedPane@CBasePane@@QBEPAVCBaseTabbedPane@@XZ @ 6285 NONAME
 ?GetParentTabWnd@CBasePane@@QBEPAVCMFCBaseTabCtrl@@AAPAUHWND__@@@Z @ 6286 NONAME
 ?GetParentToolBar@CMFCPopupMenu@@QBEPAVCMFCToolBar@@XZ @ 6287 NONAME
 ?GetParentWnd@CMFCRibbonBaseElement@@UBEPAVCWnd@@XZ @ 6288 NONAME
 ?GetParentWnd@CMFCRibbonPanel@@MBEPAVCWnd@@XZ @ 6289 NONAME
 ?GetPathName@CFileDialog@@QBE?AV?$CStringT@DV?$StrTraitMFC_DLL@DV?$ChTraitsCRT@D@ATL@@@@@ATL@@XZ @ 6290 NONAME
 ?GetPeerName@CAsyncSocket@@QAEHAAV?$CStringT@DV?$StrTraitMFC_DLL@DV?$ChTraitsCRT@D@ATL@@@@@ATL@@AAI@Z @ 6291 NONAME
 ?GetPercentPosition@CDaoRecordset@@QAEMXZ @ 6292 NONAME
 ?GetPictureDispatch@CPictureHolder@@QAEPAUIPictureDisp@@XZ @ 6293 NONAME
 ?GetPixelFormat@CD2DBitmap@@QBE?AUD2D1_PIXEL_FORMAT@@XZ @ 6294 NONAME
 ?GetPixelFormat@CRenderTarget@@QBE?AUD2D1_PIXEL_FORMAT@@XZ @ 6295 NONAME
 ?GetPixelSize@CD2DBitmap@@QBE?AVCD2DSizeU@@XZ @ 6296 NONAME
 ?GetPixelSize@CRenderTarget@@QBE?AVCD2DSizeU@@XZ @ 6297 NONAME
 ?GetPortName@CPageSetupDialog@@QBE?AV?$CStringT@DV?$StrTraitMFC_DLL@DV?$ChTraitsCRT@D@ATL@@@@@ATL@@XZ @ 6298 NONAME
 ?GetPortName@CPrintDialog@@QBE?AV?$CStringT@DV?$StrTraitMFC_DLL@DV?$ChTraitsCRT@D@ATL@@@@@ATL@@XZ @ 6299 NONAME
 ?GetPortName@CPrintDialogEx@@QBE?AV?$CStringT@DV?$StrTraitMFC_DLL@DV?$ChTraitsCRT@D@ATL@@@@@ATL@@XZ @ 6300 NONAME
 ?GetPosFromPoint@CMFCRibbonSlider@@IAEHH@Z @ 6301 NONAME
 ?GetPosition@CFile@@UBE_KXZ @ 6302 NONAME
 ?GetPosition@CMemFile@@UBE_KXZ @ 6303 NONAME
 ?GetPosition@COleStreamFile@@UBE_KXZ @ 6304 NONAME
 ?GetPosition@CSocketFile@@UBE_KXZ @ 6305 NONAME
 ?GetPosition@CStdioFile@@UBE_KXZ @ 6306 NONAME
 ?GetPredefinedStrings@XPerPropertyBrowsing@COleControl@@UAGJJPAUtagCALPOLESTR@@PAUtagCADWORD@@@Z @ 6307 NONAME
 ?GetPredefinedValue@XPerPropertyBrowsing@COleControl@@UAGJJKPAUtagVARIANT@@@Z @ 6308 NONAME
 ?GetPreferedMenuLocation@CMFCRibbonMainPanel@@MAEHAAVCRect@@@Z @ 6309 NONAME
 ?GetPressed@CMFCRibbonBaseElement@@UAEPAV1@XZ @ 6310 NONAME
 ?GetPressed@CMFCRibbonButtonsGroup@@MAEPAVCMFCRibbonBaseElement@@XZ @ 6311 NONAME
 ?GetPressed@CMFCRibbonGallery@@MAEPAVCMFCRibbonBaseElement@@XZ @ 6312 NONAME
 ?GetPressed@CMFCRibbonPanel@@QBEPAVCMFCRibbonBaseElement@@XZ @ 6313 NONAME
 ?GetPrevDlgGroupItem@CWnd@@QBEPAUCOleControlSiteOrWnd@@PAU2@@Z @ 6314 NONAME
 ?GetPreviousPages@CMFCTasksPane@@QBEXAAVCStringList@@@Z @ 6315 NONAME
 ?GetPrimarySelectedItem@COleDocument@@UAEPAVCOleClientItem@@PAVCView@@@Z @ 6316 NONAME
 ?GetPrimarySelectedItem@CRichEditDoc@@UAEPAVCOleClientItem@@PAVCView@@@Z @ 6317 NONAME
 ?GetPrintDeviceInfo@COleClientItem@@IAEHPAPAUIOleCache@@PAPAUtagDVTARGETDEVICE@@PAK@Z @ 6318 NONAME
 ?GetPrinterDeviceDefaults@CWinApp@@QAEHPAUtagPDA@@@Z @ 6319 NONAME
 ?GetPrinterFont@CEditView@@QBEPAVCFont@@XZ @ 6320 NONAME
 ?GetPriority@CAsyncMonikerFile@@MBEJXZ @ 6321 NONAME
 ?GetProfileBinary@CWinApp@@UAEHPBD0PAPAEPAI@Z @ 6322 NONAME
 ?GetProfileIntA@CWinApp@@UAEIPBD0H@Z @ 6323 NONAME
 ?GetProfileStringA@CWinApp@@UAE?AV?$CStringT@DV?$StrTraitMFC_DLL@DV?$ChTraitsCRT@D@ATL@@@@@ATL@@PBD00@Z @ 6324 NONAME
 ?GetPropCheck@COlePropertyPage@@QAEHPBDPAH@Z @ 6325 NONAME
 ?GetProperty@CHtmlView@@QAE?AVCOleVariant@@PBD@Z @ 6326 NONAME
 ?GetProperty@CHtmlView@@QAEHPBDAAV?$CStringT@DV?$StrTraitMFC_DLL@DV?$ChTraitsCRT@D@ATL@@@@@ATL@@@Z @ 6327 NONAME
 ?GetProperty@CMFCPropertyGridCtrl@@QBEPAVCMFCPropertyGridProperty@@H@Z @ 6328 NONAME
 ?GetProperty@COleControlSite@@UBEXJGPAX@Z @ 6329 NONAME
 ?GetProperty@COleDispatchDriver@@QBEXJGPAX@Z @ 6330 NONAME
 ?GetProperty@CPropertySection@@QAEPAVCProperty@@K@Z @ 6331 NONAME
 ?GetProperty@CPropertySet@@QAEPAVCProperty@@U_GUID@@K@Z @ 6332 NONAME
 ?GetProperty@CWnd@@QBEXJGPAX@Z @ 6333 NONAME
 ?GetPropertyGridGroupColor@CMFCVisualManager@@UAEKPAVCMFCPropertyGridCtrl@@@Z @ 6334 NONAME
 ?GetPropertyGridGroupColor@CMFCVisualManagerOffice2003@@UAEKPAVCMFCPropertyGridCtrl@@@Z @ 6335 NONAME
 ?GetPropertyGridGroupColor@CMFCVisualManagerOfficeXP@@MAEKPAVCMFCPropertyGridCtrl@@@Z @ 6336 NONAME
 ?GetPropertyGridGroupColor@CMFCVisualManagerVS2005@@UAEKPAVCMFCPropertyGridCtrl@@@Z @ 6337 NONAME
 ?GetPropertyGridGroupTextColor@CMFCVisualManager@@UAEKPAVCMFCPropertyGridCtrl@@@Z @ 6338 NONAME
 ?GetPropertyGridGroupTextColor@CMFCVisualManagerOffice2003@@UAEKPAVCMFCPropertyGridCtrl@@@Z @ 6339 NONAME
 ?GetPropertyGridGroupTextColor@CMFCVisualManagerOfficeXP@@MAEKPAVCMFCPropertyGridCtrl@@@Z @ 6340 NONAME
 ?GetPropIndex@COlePropertyPage@@QAEHPBDPAH@Z @ 6341 NONAME
 ?GetPropPageIDs@COleControl@@MAEPAU_GUID@@AAK@Z @ 6342 NONAME
 ?GetPropRadio@COlePropertyPage@@QAEHPBDPAH@Z @ 6343 NONAME
 ?GetPropsetData@COleControl@@IAEHPAUtagFORMATETC@@PAUtagSTGMEDIUM@@ABU_GUID@@@Z @ 6344 NONAME
 ?GetPropText@COlePropertyPage@@QAEHPBDPAE@Z @ 6345 NONAME
 ?GetPropText@COlePropertyPage@@QAEHPBDPAF@Z @ 6346 NONAME
 ?GetPropText@COlePropertyPage@@QAEHPBDPAH@Z @ 6347 NONAME
 ?GetPropText@COlePropertyPage@@QAEHPBDPAI@Z @ 6348 NONAME
 ?GetPropText@COlePropertyPage@@QAEHPBDPAJ@Z @ 6349 NONAME
 ?GetPropText@COlePropertyPage@@QAEHPBDPAK@Z @ 6350 NONAME
 ?GetPropText@COlePropertyPage@@QAEHPBDPAM@Z @ 6351 NONAME
 ?GetPropText@COlePropertyPage@@QAEHPBDPAN@Z @ 6352 NONAME
 ?GetPropText@COlePropertyPage@@QAEHPBDPAV?$CStringT@DV?$StrTraitMFC_DLL@DV?$ChTraitsCRT@D@ATL@@@@@ATL@@@Z @ 6353 NONAME
 ?GetPSP@CPropertyPage@@QAEAAU_PROPSHEETPAGEA@@XZ @ 6354 NONAME
 ?GetPSP@CPropertyPage@@QBEABU_PROPSHEETPAGEA@@XZ @ 6355 NONAME
 ?GetQueryDefCount@CDaoDatabase@@QAEFXZ @ 6356 NONAME
 ?GetQueryDefInfo@CDaoDatabase@@QAEXHAAUCDaoQueryDefInfo@@K@Z @ 6357 NONAME
 ?GetQueryDefInfo@CDaoDatabase@@QAEXPBDAAUCDaoQueryDefInfo@@K@Z @ 6358 NONAME
 ?GetQueryTimeout@CDaoDatabase@@QAEFXZ @ 6359 NONAME
 ?GetQuickAccessCommands@CMFCRibbonBar@@QAEXAAV?$CList@II@@@Z @ 6360 NONAME
 ?GetRadiusX@CD2DRadialGradientBrush@@QBEMXZ @ 6361 NONAME
 ?GetRadiusY@CD2DRadialGradientBrush@@QBEMXZ @ 6362 NONAME
 ?GetRange@CDateTimeCtrl@@QBEKPAVCOleDateTime@ATL@@0@Z @ 6363 NONAME
 ?GetRange@CDateTimeCtrl@@QBEKPAVCTime@ATL@@0@Z @ 6364 NONAME
 ?GetRange@CMFCToolBarSpinEditBoxButton@@QAEXAAH0@Z @ 6365 NONAME
 ?GetRange@CMonthCalCtrl@@QBEKPAU_SYSTEMTIME@@0@Z @ 6366 NONAME
 ?GetRange@CMonthCalCtrl@@QBEKPAVCOleDateTime@ATL@@0@Z @ 6367 NONAME
 ?GetRange@CMonthCalCtrl@@QBEKPAVCTime@ATL@@0@Z @ 6368 NONAME
 ?GetRange@CProgressCtrl@@QBEXAAH0@Z @ 6369 NONAME
 ?GetRange@CSliderCtrl@@QBEXAAH0@Z @ 6370 NONAME
 ?GetRange@CSpinButtonCtrl@@QBEXAAH0@Z @ 6371 NONAME
 ?GetRawValue@CProperty@@QAEPAXXZ @ 6372 NONAME
 ?GetReadyState@CHtmlView@@QBE?AW4tagREADYSTATE@@XZ @ 6373 NONAME
 ?GetReadyState@COleControl@@QAEJXZ @ 6374 NONAME
 ?GetReBarCtrl@CMFCReBar@@QBEAAVCReBarCtrl@@XZ @ 6375 NONAME
 ?GetRecentDefaultPaneDivider@CRecentDockSiteInfo@@QAEPAVCPaneDivider@@XZ @ 6376 NONAME
 ?GetRecentDockedPercent@CRecentDockSiteInfo@@QAEHH@Z @ 6377 NONAME
 ?GetRecentDockedRect@CRecentDockSiteInfo@@QAEAAVCRect@@H@Z @ 6378 NONAME
 ?GetRecentListOfPanes@CRecentDockSiteInfo@@QAEAAV?$CList@PAUHWND__@@PAU1@@@H@Z @ 6379 NONAME
 ?GetRecentPaneContainer@CRecentDockSiteInfo@@QAEPAVCPaneContainer@@H@Z @ 6380 NONAME
 ?GetRecentTabContainer@CRecentDockSiteInfo@@QAEPAVCPaneContainer@@H@Z @ 6381 NONAME
 ?GetRecordCount@CDaoRecordset@@QAEJXZ @ 6382 NONAME
 ?GetRecordCount@CDaoTableDef@@QAEJXZ @ 6383 NONAME
 ?GetRecordsAffected@CDaoDatabase@@QAEJXZ @ 6384 NONAME
 ?GetRecordsAffected@CDaoQueryDef@@QAEJXZ @ 6385 NONAME
 ?GetRecoveredDocumentTitle@CDataRecoveryHandler@@UBE?AV?$CStringT@DV?$StrTraitMFC_DLL@DV?$ChTraitsCRT@D@ATL@@@@@ATL@@ABV23@@Z @ 6386 NONAME
 ?GetRect@XOleDocumentView@CDocObjectServer@@UAGJPAUtagRECT@@@Z @ 6387 NONAME
 ?GetRect@XViewObject@COleControl@@UAGJKPAU_RECTL@@@Z @ 6388 NONAME
 ?GetRectInContainer@COleControl@@QAEHPAUtagRECT@@@Z @ 6389 NONAME
 ?GetRegisterAsBrowser@CHtmlView@@QBEHXZ @ 6390 NONAME
 ?GetRegisterAsDropTarget@CHtmlView@@QBEHXZ @ 6391 NONAME
 ?GetRegisteredWithTaskBarMDIChildCount@CMDIFrameWndEx@@QAEHXZ @ 6392 NONAME
 ?GetRegSectionPath@CWinAppEx@@QAE?AV?$CStringT@DV?$StrTraitMFC_DLL@DV?$ChTraitsCRT@D@ATL@@@@@ATL@@PBD@Z @ 6393 NONAME
 ?GetRegularSize@CMFCRibbonButton@@UAE?AVCSize@@PAVCDC@@@Z @ 6394 NONAME
 ?GetRegularSize@CMFCRibbonButtonsGroup@@UAE?AVCSize@@PAVCDC@@@Z @ 6395 NONAME
 ?GetRegularSize@CMFCRibbonCaptionButton@@MAE?AVCSize@@PAVCDC@@@Z @ 6396 NONAME
 ?GetRegularSize@CMFCRibbonGallery@@UAE?AVCSize@@PAVCDC@@@Z @ 6397 NONAME
 ?GetRegularSize@CMFCRibbonGalleryIcon@@MAE?AVCSize@@PAVCDC@@@Z @ 6398 NONAME
 ?GetRegularSize@CMFCRibbonLaunchButton@@UAE?AVCSize@@PAVCDC@@@Z @ 6399 NONAME
 ?GetRegularSize@CMFCRibbonLinkCtrl@@UAE?AVCSize@@PAVCDC@@@Z @ 6400 NONAME
 ?GetRegularSize@CMFCRibbonProgressBar@@UAE?AVCSize@@PAVCDC@@@Z @ 6401 NONAME
 ?GetRegularSize@CMFCRibbonQuickAccessToolBar@@MAE?AVCSize@@PAVCDC@@@Z @ 6402 NONAME
 ?GetRegularSize@CMFCRibbonRecentFilesList@@MAE?AVCSize@@PAVCDC@@@Z @ 6403 NONAME
 ?GetRegularSize@CMFCRibbonSeparator@@MAE?AVCSize@@PAVCDC@@@Z @ 6404 NONAME
 ?GetRegularSize@CMFCRibbonSlider@@UAE?AVCSize@@PAVCDC@@@Z @ 6405 NONAME
 ?GetRegularSize@CMFCRibbonTab@@UAE?AVCSize@@PAVCDC@@@Z @ 6406 NONAME
 ?GetRelatedList@CMFCShellTreeCtrl@@QBEPAVCMFCShellListCtrl@@XZ @ 6407 NONAME
 ?GetRelatedTree@CMFCShellListCtrl@@IBEPAVCMFCShellTreeCtrl@@XZ @ 6408 NONAME
 ?GetRelationCount@CDaoDatabase@@QAEFXZ @ 6409 NONAME
 ?GetRelationInfo@CDaoDatabase@@QAEXHAAUCDaoRelationInfo@@K@Z @ 6410 NONAME
 ?GetRelationInfo@CDaoDatabase@@QAEXPBDAAUCDaoRelationInfo@@K@Z @ 6411 NONAME
 ?GetRenderTarget@CWnd@@QAEPAVCHwndRenderTarget@@XZ @ 6412 NONAME
 ?GetResizeStep@CPaneContainer@@UBEHXZ @ 6413 NONAME
 ?GetResourceID@CMFCControlRendererInfo@@QBEPBDXZ @ 6414 NONAME
 ?GetResult@CFileDialog@@QAEPAUIShellItem@@XZ @ 6415 NONAME
 ?GetResults@CFileDialog@@QAEPAUIShellItemArray@@XZ @ 6416 NONAME
 ?GetReturnsRecords@CDaoQueryDef@@QAEHXZ @ 6417 NONAME
 ?GetRibbonBar@CMFCVisualManagerOffice2007@@QBEPAVCMFCRibbonBar@@PAVCWnd@@@Z @ 6418 NONAME
 ?GetRibbonBar@CMFCVisualManagerWindows7@@QBEPAVCMFCRibbonBar@@PAVCWnd@@@Z @ 6419 NONAME
 ?GetRibbonBarImages@CMFCRibbonCollector@@MAEXABVCMFCRibbonBar@@AAVXRibbonBar@CMFCRibbonInfo@@@Z @ 6420 NONAME
 ?GetRibbonEditBackgroundColor@CMFCVisualManager@@UAEKPAVCMFCRibbonRichEditCtrl@@HHH@Z @ 6421 NONAME
 ?GetRibbonEditBackgroundColor@CMFCVisualManagerOffice2007@@UAEKPAVCMFCRibbonRichEditCtrl@@HHH@Z @ 6422 NONAME
 ?GetRibbonEditBackgroundColor@CMFCVisualManagerWindows7@@UAEKPAVCMFCRibbonRichEditCtrl@@HHH@Z @ 6423 NONAME
 ?GetRibbonHyperlinkTextColor@CMFCVisualManager@@UAEKPAVCMFCRibbonLinkCtrl@@@Z @ 6424 NONAME
 ?GetRibbonHyperlinkTextColor@CMFCVisualManagerOffice2007@@UAEKPAVCMFCRibbonLinkCtrl@@@Z @ 6425 NONAME
 ?GetRibbonPopupBorderSize@CMFCVisualManagerOffice2007@@UBEHPBVCMFCRibbonPanelMenu@@@Z @ 6426 NONAME
 ?GetRibbonPopupBorderSize@CMFCVisualManagerWindows7@@UBEHPBVCMFCRibbonPanelMenu@@@Z @ 6427 NONAME
 ?GetRibbonQuickAccessToolBarRightMargin@CMFCVisualManagerOffice2007@@UAEHXZ @ 6428 NONAME
 ?GetRibbonSliderColors@CMFCVisualManager@@UAEXPAVCMFCRibbonSlider@@HHHAAK1@Z @ 6429 NONAME
 ?GetRibbonSliderColors@CMFCVisualManagerOfficeXP@@MAEXPAVCMFCRibbonSlider@@HHHAAK1@Z @ 6430 NONAME
 ?GetRibbonStatusBarTextColor@CMFCVisualManager@@UAEKPAVCMFCRibbonStatusBar@@@Z @ 6431 NONAME
 ?GetRibbonStatusBarTextColor@CMFCVisualManagerOffice2007@@UAEKPAVCMFCRibbonStatusBar@@@Z @ 6432 NONAME
 ?GetRoot@CFileFind@@UBE?AV?$CStringT@DV?$StrTraitMFC_DLL@DV?$ChTraitsCRT@D@ATL@@@@@ATL@@XZ @ 6433 NONAME
 ?GetRoot@CGopherFileFind@@UBE?AV?$CStringT@DV?$StrTraitMFC_DLL@DV?$ChTraitsCRT@D@ATL@@@@@ATL@@XZ @ 6434 NONAME
 ?GetRootContainerRect@CPaneDivider@@QAE?AVCRect@@XZ @ 6435 NONAME
 ?GetRootItems@CMFCShellTreeCtrl@@IAEHXZ @ 6436 NONAME
 ?GetRoutingFrame@CCmdTarget@@IAEPAVCFrameWnd@@XZ @ 6437 NONAME
 ?GetRoutingFrame_@CCmdTarget@@KGPAVCFrameWnd@@XZ @ 6438 NONAME
 ?GetRoutingView@CCmdTarget@@IAEPAVCView@@XZ @ 6439 NONAME
 ?GetRoutingView_@CCmdTarget@@KGPAVCView@@XZ @ 6440 NONAME
 ?GetRowHeight@CMFCMenuBar@@UBEHXZ @ 6441 NONAME
 ?GetRowHeight@CMFCToolBar@@UBEHXZ @ 6442 NONAME
 ?GetRowInfo@CSplitterWnd@@QBEXHAAH0@Z @ 6443 NONAME
 ?GetRuntimeClass@CAnimateCtrl@@UBEPAUCRuntimeClass@@XZ @ 6444 NONAME
 ?GetRuntimeClass@CAnimationBaseObject@@UBEPAUCRuntimeClass@@XZ @ 6445 NONAME
 ?GetRuntimeClass@CAnimationColor@@UBEPAUCRuntimeClass@@XZ @ 6446 NONAME
 ?GetRuntimeClass@CAnimationController@@UBEPAUCRuntimeClass@@XZ @ 6447 NONAME
 ?GetRuntimeClass@CAnimationPoint@@UBEPAUCRuntimeClass@@XZ @ 6448 NONAME
 ?GetRuntimeClass@CAnimationRect@@UBEPAUCRuntimeClass@@XZ @ 6449 NONAME
 ?GetRuntimeClass@CAnimationSize@@UBEPAUCRuntimeClass@@XZ @ 6450 NONAME
 ?GetRuntimeClass@CAnimationValue@@UBEPAUCRuntimeClass@@XZ @ 6451 NONAME
 ?GetRuntimeClass@CArchiveException@@UBEPAUCRuntimeClass@@XZ @ 6452 NONAME
 ?GetRuntimeClass@CAsyncMonikerFile@@UBEPAUCRuntimeClass@@XZ @ 6453 NONAME
 ?GetRuntimeClass@CAsyncSocket@@UBEPAUCRuntimeClass@@XZ @ 6454 NONAME
 ?GetRuntimeClass@CAutoHideDockSite@@UBEPAUCRuntimeClass@@XZ @ 6455 NONAME
 ?GetRuntimeClass@CBaseKeyFrame@@UBEPAUCRuntimeClass@@XZ @ 6456 NONAME
 ?GetRuntimeClass@CBasePane@@UBEPAUCRuntimeClass@@XZ @ 6457 NONAME
 ?GetRuntimeClass@CBaseTabbedPane@@UBEPAUCRuntimeClass@@XZ @ 6458 NONAME
 ?GetRuntimeClass@CBaseTransition@@UBEPAUCRuntimeClass@@XZ @ 6459 NONAME
 ?GetRuntimeClass@CBitmap@@UBEPAUCRuntimeClass@@XZ @ 6460 NONAME
 ?GetRuntimeClass@CBitmapButton@@UBEPAUCRuntimeClass@@XZ @ 6461 NONAME
 ?GetRuntimeClass@CBitmapRenderTarget@@UBEPAUCRuntimeClass@@XZ @ 6462 NONAME
 ?GetRuntimeClass@CBrush@@UBEPAUCRuntimeClass@@XZ @ 6463 NONAME
 ?GetRuntimeClass@CButton@@UBEPAUCRuntimeClass@@XZ @ 6464 NONAME
 ?GetRuntimeClass@CByteArray@@UBEPAUCRuntimeClass@@XZ @ 6465 NONAME
 ?GetRuntimeClass@CCachedDataPathProperty@@UBEPAUCRuntimeClass@@XZ @ 6466 NONAME
 ?GetRuntimeClass@CCheckListBox@@UBEPAUCRuntimeClass@@XZ @ 6467 NONAME
 ?GetRuntimeClass@CClientDC@@UBEPAUCRuntimeClass@@XZ @ 6468 NONAME
 ?GetRuntimeClass@CCmdTarget@@UBEPAUCRuntimeClass@@XZ @ 6469 NONAME
 ?GetRuntimeClass@CColorDialog@@UBEPAUCRuntimeClass@@XZ @ 6470 NONAME
 ?GetRuntimeClass@CComboBox@@UBEPAUCRuntimeClass@@XZ @ 6471 NONAME
 ?GetRuntimeClass@CComboBoxEx@@UBEPAUCRuntimeClass@@XZ @ 6472 NONAME
 ?GetRuntimeClass@CCommonDialog@@UBEPAUCRuntimeClass@@XZ @ 6473 NONAME
 ?GetRuntimeClass@CControlBar@@UBEPAUCRuntimeClass@@XZ @ 6474 NONAME
 ?GetRuntimeClass@CCriticalSection@@UBEPAUCRuntimeClass@@XZ @ 6475 NONAME
 ?GetRuntimeClass@CCtrlView@@UBEPAUCRuntimeClass@@XZ @ 6476 NONAME
 ?GetRuntimeClass@CD2DBitmap@@UBEPAUCRuntimeClass@@XZ @ 6477 NONAME
 ?GetRuntimeClass@CD2DBitmapBrush@@UBEPAUCRuntimeClass@@XZ @ 6478 NONAME
 ?GetRuntimeClass@CD2DBrush@@UBEPAUCRuntimeClass@@XZ @ 6479 NONAME
 ?GetRuntimeClass@CD2DGeometry@@UBEPAUCRuntimeClass@@XZ @ 6480 NONAME
 ?GetRuntimeClass@CD2DGradientBrush@@UBEPAUCRuntimeClass@@XZ @ 6481 NONAME
 ?GetRuntimeClass@CD2DLayer@@UBEPAUCRuntimeClass@@XZ @ 6482 NONAME
 ?GetRuntimeClass@CD2DLinearGradientBrush@@UBEPAUCRuntimeClass@@XZ @ 6483 NONAME
 ?GetRuntimeClass@CD2DMesh@@UBEPAUCRuntimeClass@@XZ @ 6484 NONAME
 ?GetRuntimeClass@CD2DPathGeometry@@UBEPAUCRuntimeClass@@XZ @ 6485 NONAME
 ?GetRuntimeClass@CD2DRadialGradientBrush@@UBEPAUCRuntimeClass@@XZ @ 6486 NONAME
 ?GetRuntimeClass@CD2DResource@@UBEPAUCRuntimeClass@@XZ @ 6487 NONAME
 ?GetRuntimeClass@CD2DSolidColorBrush@@UBEPAUCRuntimeClass@@XZ @ 6488 NONAME
 ?GetRuntimeClass@CD2DTextFormat@@UBEPAUCRuntimeClass@@XZ @ 6489 NONAME
 ?GetRuntimeClass@CD2DTextLayout@@UBEPAUCRuntimeClass@@XZ @ 6490 NONAME
 ?GetRuntimeClass@CDaoDatabase@@UBEPAUCRuntimeClass@@XZ @ 6491 NONAME
 ?GetRuntimeClass@CDaoException@@UBEPAUCRuntimeClass@@XZ @ 6492 NONAME
 ?GetRuntimeClass@CDaoQueryDef@@UBEPAUCRuntimeClass@@XZ @ 6493 NONAME
 ?GetRuntimeClass@CDaoRecordset@@UBEPAUCRuntimeClass@@XZ @ 6494 NONAME
 ?GetRuntimeClass@CDaoRecordView@@UBEPAUCRuntimeClass@@XZ @ 6495 NONAME
 ?GetRuntimeClass@CDaoTableDef@@UBEPAUCRuntimeClass@@XZ @ 6496 NONAME
 ?GetRuntimeClass@CDaoWorkspace@@UBEPAUCRuntimeClass@@XZ @ 6497 NONAME
 ?GetRuntimeClass@CDatabase@@UBEPAUCRuntimeClass@@XZ @ 6498 NONAME
 ?GetRuntimeClass@CDataPathProperty@@UBEPAUCRuntimeClass@@XZ @ 6499 NONAME
 ?GetRuntimeClass@CDateTimeCtrl@@UBEPAUCRuntimeClass@@XZ @ 6500 NONAME
 ?GetRuntimeClass@CDBException@@UBEPAUCRuntimeClass@@XZ @ 6501 NONAME
 ?GetRuntimeClass@CDC@@UBEPAUCRuntimeClass@@XZ @ 6502 NONAME
 ?GetRuntimeClass@CDCRenderTarget@@UBEPAUCRuntimeClass@@XZ @ 6503 NONAME
 ?GetRuntimeClass@CDHtmlDialog@@UBEPAUCRuntimeClass@@XZ @ 6504 NONAME
 ?GetRuntimeClass@CDialog@@UBEPAUCRuntimeClass@@XZ @ 6505 NONAME
 ?GetRuntimeClass@CDialogBar@@UBEPAUCRuntimeClass@@XZ @ 6506 NONAME
 ?GetRuntimeClass@CDialogEx@@UBEPAUCRuntimeClass@@XZ @ 6507 NONAME
 ?GetRuntimeClass@CDocItem@@UBEPAUCRuntimeClass@@XZ @ 6508 NONAME
 ?GetRuntimeClass@CDockablePane@@UBEPAUCRuntimeClass@@XZ @ 6509 NONAME
 ?GetRuntimeClass@CDockablePaneAdapter@@UBEPAUCRuntimeClass@@XZ @ 6510 NONAME
 ?GetRuntimeClass@CDockBar@@UBEPAUCRuntimeClass@@XZ @ 6511 NONAME
 ?GetRuntimeClass@CDockingPanesRow@@UBEPAUCRuntimeClass@@XZ @ 6512 NONAME
 ?GetRuntimeClass@CDockSite@@UBEPAUCRuntimeClass@@XZ @ 6513 NONAME
 ?GetRuntimeClass@CDockState@@UBEPAUCRuntimeClass@@XZ @ 6514 NONAME
 ?GetRuntimeClass@CDocManager@@UBEPAUCRuntimeClass@@XZ @ 6515 NONAME
 ?GetRuntimeClass@CDocObjectServer@@UBEPAUCRuntimeClass@@XZ @ 6516 NONAME
 ?GetRuntimeClass@CDocObjectServerItem@@UBEPAUCRuntimeClass@@XZ @ 6517 NONAME
 ?GetRuntimeClass@CDocTemplate@@UBEPAUCRuntimeClass@@XZ @ 6518 NONAME
 ?GetRuntimeClass@CDocument@@UBEPAUCRuntimeClass@@XZ @ 6519 NONAME
 ?GetRuntimeClass@CDragListBox@@UBEPAUCRuntimeClass@@XZ @ 6520 NONAME
 ?GetRuntimeClass@CDWordArray@@UBEPAUCRuntimeClass@@XZ @ 6521 NONAME
 ?GetRuntimeClass@CDynLinkLibrary@@UBEPAUCRuntimeClass@@XZ @ 6522 NONAME
 ?GetRuntimeClass@CEdit@@UBEPAUCRuntimeClass@@XZ @ 6523 NONAME
 ?GetRuntimeClass@CEditView@@UBEPAUCRuntimeClass@@XZ @ 6524 NONAME
 ?GetRuntimeClass@CEvent@@UBEPAUCRuntimeClass@@XZ @ 6525 NONAME
 ?GetRuntimeClass@CException@@UBEPAUCRuntimeClass@@XZ @ 6526 NONAME
 ?GetRuntimeClass@CFile@@UBEPAUCRuntimeClass@@XZ @ 6527 NONAME
 ?GetRuntimeClass@CFileDialog@@UBEPAUCRuntimeClass@@XZ @ 6528 NONAME
 ?GetRuntimeClass@CFileException@@UBEPAUCRuntimeClass@@XZ @ 6529 NONAME
 ?GetRuntimeClass@CFileFind@@UBEPAUCRuntimeClass@@XZ @ 6530 NONAME
 ?GetRuntimeClass@CFindReplaceDialog@@UBEPAUCRuntimeClass@@XZ @ 6531 NONAME
 ?GetRuntimeClass@CFolderPickerDialog@@UBEPAUCRuntimeClass@@XZ @ 6532 NONAME
 ?GetRuntimeClass@CFont@@UBEPAUCRuntimeClass@@XZ @ 6533 NONAME
 ?GetRuntimeClass@CFontDialog@@UBEPAUCRuntimeClass@@XZ @ 6534 NONAME
 ?GetRuntimeClass@CFormView@@UBEPAUCRuntimeClass@@XZ @ 6535 NONAME
 ?GetRuntimeClass@CFrameWnd@@UBEPAUCRuntimeClass@@XZ @ 6536 NONAME
 ?GetRuntimeClass@CFrameWndEx@@UBEPAUCRuntimeClass@@XZ @ 6537 NONAME
 ?GetRuntimeClass@CFtpConnection@@UBEPAUCRuntimeClass@@XZ @ 6538 NONAME
 ?GetRuntimeClass@CFtpFileFind@@UBEPAUCRuntimeClass@@XZ @ 6539 NONAME
 ?GetRuntimeClass@CGdiObject@@UBEPAUCRuntimeClass@@XZ @ 6540 NONAME
 ?GetRuntimeClass@CGopherConnection@@UBEPAUCRuntimeClass@@XZ @ 6541 NONAME
 ?GetRuntimeClass@CGopherFile@@UBEPAUCRuntimeClass@@XZ @ 6542 NONAME
 ?GetRuntimeClass@CGopherFileFind@@UBEPAUCRuntimeClass@@XZ @ 6543 NONAME
 ?GetRuntimeClass@CHeaderCtrl@@UBEPAUCRuntimeClass@@XZ @ 6544 NONAME
 ?GetRuntimeClass@CHelpComboBoxButton@@UBEPAUCRuntimeClass@@XZ @ 6545 NONAME
 ?GetRuntimeClass@CHotKeyCtrl@@UBEPAUCRuntimeClass@@XZ @ 6546 NONAME
 ?GetRuntimeClass@CHtmlEditDoc@@UBEPAUCRuntimeClass@@XZ @ 6547 NONAME
 ?GetRuntimeClass@CHtmlEditView@@UBEPAUCRuntimeClass@@XZ @ 6548 NONAME
 ?GetRuntimeClass@CHtmlView@@UBEPAUCRuntimeClass@@XZ @ 6549 NONAME
 ?GetRuntimeClass@CHttpConnection@@UBEPAUCRuntimeClass@@XZ @ 6550 NONAME
 ?GetRuntimeClass@CHttpFile@@UBEPAUCRuntimeClass@@XZ @ 6551 NONAME
 ?GetRuntimeClass@CHwndRenderTarget@@UBEPAUCRuntimeClass@@XZ @ 6552 NONAME
 ?GetRuntimeClass@CImageList@@UBEPAUCRuntimeClass@@XZ @ 6553 NONAME
 ?GetRuntimeClass@CInternetConnection@@UBEPAUCRuntimeClass@@XZ @ 6554 NONAME
 ?GetRuntimeClass@CInternetException@@UBEPAUCRuntimeClass@@XZ @ 6555 NONAME
 ?GetRuntimeClass@CInternetFile@@UBEPAUCRuntimeClass@@XZ @ 6556 NONAME
 ?GetRuntimeClass@CInternetSession@@UBEPAUCRuntimeClass@@XZ @ 6557 NONAME
 ?GetRuntimeClass@CInvalidArgException@@UBEPAUCRuntimeClass@@XZ @ 6558 NONAME
 ?GetRuntimeClass@CIPAddressCtrl@@UBEPAUCRuntimeClass@@XZ @ 6559 NONAME
 ?GetRuntimeClass@CKeyFrame@@UBEPAUCRuntimeClass@@XZ @ 6560 NONAME
 ?GetRuntimeClass@CLinkCtrl@@UBEPAUCRuntimeClass@@XZ @ 6561 NONAME
 ?GetRuntimeClass@CListBox@@UBEPAUCRuntimeClass@@XZ @ 6562 NONAME
 ?GetRuntimeClass@CListCtrl@@UBEPAUCRuntimeClass@@XZ @ 6563 NONAME
 ?GetRuntimeClass@CListView@@UBEPAUCRuntimeClass@@XZ @ 6564 NONAME
 ?GetRuntimeClass@CLongBinary@@UBEPAUCRuntimeClass@@XZ @ 6565 NONAME
 ?GetRuntimeClass@CMapPtrToPtr@@UBEPAUCRuntimeClass@@XZ @ 6566 NONAME
 ?GetRuntimeClass@CMapPtrToWord@@UBEPAUCRuntimeClass@@XZ @ 6567 NONAME
 ?GetRuntimeClass@CMapStringToOb@@UBEPAUCRuntimeClass@@XZ @ 6568 NONAME
 ?GetRuntimeClass@CMapStringToPtr@@UBEPAUCRuntimeClass@@XZ @ 6569 NONAME
 ?GetRuntimeClass@CMapStringToString@@UBEPAUCRuntimeClass@@XZ @ 6570 NONAME
 ?GetRuntimeClass@CMapWordToOb@@UBEPAUCRuntimeClass@@XZ @ 6571 NONAME
 ?GetRuntimeClass@CMapWordToPtr@@UBEPAUCRuntimeClass@@XZ @ 6572 NONAME
 ?GetRuntimeClass@CMDIChildWnd@@UBEPAUCRuntimeClass@@XZ @ 6573 NONAME
 ?GetRuntimeClass@CMDIChildWndEx@@UBEPAUCRuntimeClass@@XZ @ 6574 NONAME
 ?GetRuntimeClass@CMDIClientAreaWnd@@UBEPAUCRuntimeClass@@XZ @ 6575 NONAME
 ?GetRuntimeClass@CMDIFrameWnd@@UBEPAUCRuntimeClass@@XZ @ 6576 NONAME
 ?GetRuntimeClass@CMDIFrameWndEx@@UBEPAUCRuntimeClass@@XZ @ 6577 NONAME
 ?GetRuntimeClass@CMDITabProxyWnd@@UBEPAUCRuntimeClass@@XZ @ 6578 NONAME
 ?GetRuntimeClass@CMemFile@@UBEPAUCRuntimeClass@@XZ @ 6579 NONAME
 ?GetRuntimeClass@CMemoryException@@UBEPAUCRuntimeClass@@XZ @ 6580 NONAME
 ?GetRuntimeClass@CMenu@@UBEPAUCRuntimeClass@@XZ @ 6581 NONAME
 ?GetRuntimeClass@CMetaFileDC@@UBEPAUCRuntimeClass@@XZ @ 6582 NONAME
 ?GetRuntimeClass@CMFCAutoHideBar@@UBEPAUCRuntimeClass@@XZ @ 6583 NONAME
 ?GetRuntimeClass@CMFCAutoHideButton@@UBEPAUCRuntimeClass@@XZ @ 6584 NONAME
 ?GetRuntimeClass@CMFCBaseAccessibleObject@@UBEPAUCRuntimeClass@@XZ @ 6585 NONAME
 ?GetRuntimeClass@CMFCBaseTabCtrl@@UBEPAUCRuntimeClass@@XZ @ 6586 NONAME
 ?GetRuntimeClass@CMFCBaseToolBar@@UBEPAUCRuntimeClass@@XZ @ 6587 NONAME
 ?GetRuntimeClass@CMFCButton@@UBEPAUCRuntimeClass@@XZ @ 6588 NONAME
 ?GetRuntimeClass@CMFCCaptionBar@@UBEPAUCRuntimeClass@@XZ @ 6589 NONAME
 ?GetRuntimeClass@CMFCColorBar@@UBEPAUCRuntimeClass@@XZ @ 6590 NONAME
 ?GetRuntimeClass@CMFCColorButton@@UBEPAUCRuntimeClass@@XZ @ 6591 NONAME
 ?GetRuntimeClass@CMFCColorMenuButton@@UBEPAUCRuntimeClass@@XZ @ 6592 NONAME
 ?GetRuntimeClass@CMFCColorPopupMenu@@UBEPAUCRuntimeClass@@XZ @ 6593 NONAME
 ?GetRuntimeClass@CMFCColorPropertySheet@@UBEPAUCRuntimeClass@@XZ @ 6594 NONAME
 ?GetRuntimeClass@CMFCControlRenderer@@UBEPAUCRuntimeClass@@XZ @ 6595 NONAME
 ?GetRuntimeClass@CMFCCustomColorsPropertyPage@@UBEPAUCRuntimeClass@@XZ @ 6596 NONAME
 ?GetRuntimeClass@CMFCCustomizeButton@@UBEPAUCRuntimeClass@@XZ @ 6597 NONAME
 ?GetRuntimeClass@CMFCCustomizeMenuButton@@UBEPAUCRuntimeClass@@XZ @ 6598 NONAME
 ?GetRuntimeClass@CMFCDesktopAlertDialog@@UBEPAUCRuntimeClass@@XZ @ 6599 NONAME
 ?GetRuntimeClass@CMFCDesktopAlertWnd@@UBEPAUCRuntimeClass@@XZ @ 6600 NONAME
 ?GetRuntimeClass@CMFCDropDownFrame@@UBEPAUCRuntimeClass@@XZ @ 6601 NONAME
 ?GetRuntimeClass@CMFCDropDownListBox@@UBEPAUCRuntimeClass@@XZ @ 6602 NONAME
 ?GetRuntimeClass@CMFCDropDownToolBar@@UBEPAUCRuntimeClass@@XZ @ 6603 NONAME
 ?GetRuntimeClass@CMFCDropDownToolbarButton@@UBEPAUCRuntimeClass@@XZ @ 6604 NONAME
 ?GetRuntimeClass@CMFCEditBrowseCtrl@@UBEPAUCRuntimeClass@@XZ @ 6605 NONAME
 ?GetRuntimeClass@CMFCHeaderCtrl@@UBEPAUCRuntimeClass@@XZ @ 6606 NONAME
 ?GetRuntimeClass@CMFCLinkCtrl@@UBEPAUCRuntimeClass@@XZ @ 6607 NONAME
 ?GetRuntimeClass@CMFCListCtrl@@UBEPAUCRuntimeClass@@XZ @ 6608 NONAME
 ?GetRuntimeClass@CMFCMaskedEdit@@UBEPAUCRuntimeClass@@XZ @ 6609 NONAME
 ?GetRuntimeClass@CMFCMenuBar@@UBEPAUCRuntimeClass@@XZ @ 6610 NONAME
 ?GetRuntimeClass@CMFCMenuButton@@UBEPAUCRuntimeClass@@XZ @ 6611 NONAME
 ?GetRuntimeClass@CMFCMousePropertyPage@@UBEPAUCRuntimeClass@@XZ @ 6612 NONAME
 ?GetRuntimeClass@CMFCOutlookBar@@UBEPAUCRuntimeClass@@XZ @ 6613 NONAME
 ?GetRuntimeClass@CMFCOutlookBarPane@@UBEPAUCRuntimeClass@@XZ @ 6614 NONAME
 ?GetRuntimeClass@CMFCOutlookBarPaneAdapter@@UBEPAUCRuntimeClass@@XZ @ 6615 NONAME
 ?GetRuntimeClass@CMFCOutlookBarPaneButton@@UBEPAUCRuntimeClass@@XZ @ 6616 NONAME
 ?GetRuntimeClass@CMFCOutlookBarTabCtrl@@UBEPAUCRuntimeClass@@XZ @ 6617 NONAME
 ?GetRuntimeClass@CMFCOutlookBarToolBar@@UBEPAUCRuntimeClass@@XZ @ 6618 NONAME
 ?GetRuntimeClass@CMFCPopupMenu@@UBEPAUCRuntimeClass@@XZ @ 6619 NONAME
 ?GetRuntimeClass@CMFCPopupMenuBar@@UBEPAUCRuntimeClass@@XZ @ 6620 NONAME
 ?GetRuntimeClass@CMFCPreviewCtrlImpl@@UBEPAUCRuntimeClass@@XZ @ 6621 NONAME
 ?GetRuntimeClass@CMFCPrintPreviewToolBar@@UBEPAUCRuntimeClass@@XZ @ 6622 NONAME
 ?GetRuntimeClass@CMFCPropertyGridColorProperty@@UBEPAUCRuntimeClass@@XZ @ 6623 NONAME
 ?GetRuntimeClass@CMFCPropertyGridCtrl@@UBEPAUCRuntimeClass@@XZ @ 6624 NONAME
 ?GetRuntimeClass@CMFCPropertyGridFileProperty@@UBEPAUCRuntimeClass@@XZ @ 6625 NONAME
 ?GetRuntimeClass@CMFCPropertyGridFontProperty@@UBEPAUCRuntimeClass@@XZ @ 6626 NONAME
 ?GetRuntimeClass@CMFCPropertyGridProperty@@UBEPAUCRuntimeClass@@XZ @ 6627 NONAME
 ?GetRuntimeClass@CMFCPropertyGridToolTipCtrl@@UBEPAUCRuntimeClass@@XZ @ 6628 NONAME
 ?GetRuntimeClass@CMFCPropertyPage@@UBEPAUCRuntimeClass@@XZ @ 6629 NONAME
 ?GetRuntimeClass@CMFCPropertySheet@@UBEPAUCRuntimeClass@@XZ @ 6630 NONAME
 ?GetRuntimeClass@CMFCPropertySheetCategoryInfo@@UBEPAUCRuntimeClass@@XZ @ 6631 NONAME
 ?GetRuntimeClass@CMFCReBar@@UBEPAUCRuntimeClass@@XZ @ 6632 NONAME
 ?GetRuntimeClass@CMFCRibbonApplicationButton@@UBEPAUCRuntimeClass@@XZ @ 6633 NONAME
 ?GetRuntimeClass@CMFCRibbonBar@@UBEPAUCRuntimeClass@@XZ @ 6634 NONAME
 ?GetRuntimeClass@CMFCRibbonBaseElement@@UBEPAUCRuntimeClass@@XZ @ 6635 NONAME
 ?GetRuntimeClass@CMFCRibbonButton@@UBEPAUCRuntimeClass@@XZ @ 6636 NONAME
 ?GetRuntimeClass@CMFCRibbonButtonsGroup@@UBEPAUCRuntimeClass@@XZ @ 6637 NONAME
 ?GetRuntimeClass@CMFCRibbonCaptionButton@@UBEPAUCRuntimeClass@@XZ @ 6638 NONAME
 ?GetRuntimeClass@CMFCRibbonCategory@@UBEPAUCRuntimeClass@@XZ @ 6639 NONAME
 ?GetRuntimeClass@CMFCRibbonCheckBox@@UBEPAUCRuntimeClass@@XZ @ 6640 NONAME
 ?GetRuntimeClass@CMFCRibbonColorButton@@UBEPAUCRuntimeClass@@XZ @ 6641 NONAME
 ?GetRuntimeClass@CMFCRibbonColorMenuButton@@UBEPAUCRuntimeClass@@XZ @ 6642 NONAME
 ?GetRuntimeClass@CMFCRibbonComboBox@@UBEPAUCRuntimeClass@@XZ @ 6643 NONAME
 ?GetRuntimeClass@CMFCRibbonContextCaption@@UBEPAUCRuntimeClass@@XZ @ 6644 NONAME
 ?GetRuntimeClass@CMFCRibbonCustomizeCategory@@UBEPAUCRuntimeClass@@XZ @ 6645 NONAME
 ?GetRuntimeClass@CMFCRibbonCustomizeDialog@@UBEPAUCRuntimeClass@@XZ @ 6646 NONAME
 ?GetRuntimeClass@CMFCRibbonCustomizePropertyPage@@UBEPAUCRuntimeClass@@XZ @ 6647 NONAME
 ?GetRuntimeClass@CMFCRibbonDefaultPanelButton@@UBEPAUCRuntimeClass@@XZ @ 6648 NONAME
 ?GetRuntimeClass@CMFCRibbonEdit@@UBEPAUCRuntimeClass@@XZ @ 6649 NONAME
 ?GetRuntimeClass@CMFCRibbonFontComboBox@@UBEPAUCRuntimeClass@@XZ @ 6650 NONAME
 ?GetRuntimeClass@CMFCRibbonGallery@@UBEPAUCRuntimeClass@@XZ @ 6651 NONAME
 ?GetRuntimeClass@CMFCRibbonGalleryIcon@@UBEPAUCRuntimeClass@@XZ @ 6652 NONAME
 ?GetRuntimeClass@CMFCRibbonGalleryMenuButton@@UBEPAUCRuntimeClass@@XZ @ 6653 NONAME
 ?GetRuntimeClass@CMFCRibbonLabel@@UBEPAUCRuntimeClass@@XZ @ 6654 NONAME
 ?GetRuntimeClass@CMFCRibbonLaunchButton@@UBEPAUCRuntimeClass@@XZ @ 6655 NONAME
 ?GetRuntimeClass@CMFCRibbonLinkCtrl@@UBEPAUCRuntimeClass@@XZ @ 6656 NONAME
 ?GetRuntimeClass@CMFCRibbonMainPanel@@UBEPAUCRuntimeClass@@XZ @ 6657 NONAME
 ?GetRuntimeClass@CMFCRibbonMainPanelButton@@UBEPAUCRuntimeClass@@XZ @ 6658 NONAME
 ?GetRuntimeClass@CMFCRibbonMiniToolBar@@UBEPAUCRuntimeClass@@XZ @ 6659 NONAME
 ?GetRuntimeClass@CMFCRibbonPanel@@UBEPAUCRuntimeClass@@XZ @ 6660 NONAME
 ?GetRuntimeClass@CMFCRibbonPanelMenu@@UBEPAUCRuntimeClass@@XZ @ 6661 NONAME
 ?GetRuntimeClass@CMFCRibbonPanelMenuBar@@UBEPAUCRuntimeClass@@XZ @ 6662 NONAME
 ?GetRuntimeClass@CMFCRibbonProgressBar@@UBEPAUCRuntimeClass@@XZ @ 6663 NONAME
 ?GetRuntimeClass@CMFCRibbonQuickAccessCustomizeButton@@UBEPAUCRuntimeClass@@XZ @ 6664 NONAME
 ?GetRuntimeClass@CMFCRibbonQuickAccessToolBar@@UBEPAUCRuntimeClass@@XZ @ 6665 NONAME
 ?GetRuntimeClass@CMFCRibbonRecentFilesList@@UBEPAUCRuntimeClass@@XZ @ 6666 NONAME
 ?GetRuntimeClass@CMFCRibbonRichEditCtrl@@UBEPAUCRuntimeClass@@XZ @ 6667 NONAME
 ?GetRuntimeClass@CMFCRibbonSeparator@@UBEPAUCRuntimeClass@@XZ @ 6668 NONAME
 ?GetRuntimeClass@CMFCRibbonSlider@@UBEPAUCRuntimeClass@@XZ @ 6669 NONAME
 ?GetRuntimeClass@CMFCRibbonStatusBar@@UBEPAUCRuntimeClass@@XZ @ 6670 NONAME
 ?GetRuntimeClass@CMFCRibbonStatusBarCustomizeButton@@UBEPAUCRuntimeClass@@XZ @ 6671 NONAME
 ?GetRuntimeClass@CMFCRibbonStatusBarPane@@UBEPAUCRuntimeClass@@XZ @ 6672 NONAME
 ?GetRuntimeClass@CMFCRibbonTab@@UBEPAUCRuntimeClass@@XZ @ 6673 NONAME
 ?GetRuntimeClass@CMFCRibbonTabsGroup@@UBEPAUCRuntimeClass@@XZ @ 6674 NONAME
 ?GetRuntimeClass@CMFCRibbonUndoButton@@UBEPAUCRuntimeClass@@XZ @ 6675 NONAME
 ?GetRuntimeClass@CMFCShadowRenderer@@UBEPAUCRuntimeClass@@XZ @ 6676 NONAME
 ?GetRuntimeClass@CMFCShellListCtrl@@UBEPAUCRuntimeClass@@XZ @ 6677 NONAME
 ?GetRuntimeClass@CMFCShellTreeCtrl@@UBEPAUCRuntimeClass@@XZ @ 6678 NONAME
 ?GetRuntimeClass@CMFCShowAllButton@@UBEPAUCRuntimeClass@@XZ @ 6679 NONAME
 ?GetRuntimeClass@CMFCStandardColorsPropertyPage@@UBEPAUCRuntimeClass@@XZ @ 6680 NONAME
 ?GetRuntimeClass@CMFCStatusBar@@UBEPAUCRuntimeClass@@XZ @ 6681 NONAME
 ?GetRuntimeClass@CMFCTabCtrl@@UBEPAUCRuntimeClass@@XZ @ 6682 NONAME
 ?GetRuntimeClass@CMFCTasksPane@@UBEPAUCRuntimeClass@@XZ @ 6683 NONAME
 ?GetRuntimeClass@CMFCTasksPaneFrameWnd@@UBEPAUCRuntimeClass@@XZ @ 6684 NONAME
 ?GetRuntimeClass@CMFCTasksPaneToolBar@@UBEPAUCRuntimeClass@@XZ @ 6685 NONAME
 ?GetRuntimeClass@CMFCToolBar@@UBEPAUCRuntimeClass@@XZ @ 6686 NONAME
 ?GetRuntimeClass@CMFCToolBarButton@@UBEPAUCRuntimeClass@@XZ @ 6687 NONAME
 ?GetRuntimeClass@CMFCToolBarColorButton@@UBEPAUCRuntimeClass@@XZ @ 6688 NONAME
 ?GetRuntimeClass@CMFCToolBarComboBoxButton@@UBEPAUCRuntimeClass@@XZ @ 6689 NONAME
 ?GetRuntimeClass@CMFCToolBarDateTimeCtrl@@UBEPAUCRuntimeClass@@XZ @ 6690 NONAME
 ?GetRuntimeClass@CMFCToolBarEditBoxButton@@UBEPAUCRuntimeClass@@XZ @ 6691 NONAME
 ?GetRuntimeClass@CMFCToolBarFontComboBox@@UBEPAUCRuntimeClass@@XZ @ 6692 NONAME
 ?GetRuntimeClass@CMFCToolBarFontSizeComboBox@@UBEPAUCRuntimeClass@@XZ @ 6693 NONAME
 ?GetRuntimeClass@CMFCToolBarMenuButton@@UBEPAUCRuntimeClass@@XZ @ 6694 NONAME
 ?GetRuntimeClass@CMFCToolBarMenuButtonsButton@@UBEPAUCRuntimeClass@@XZ @ 6695 NONAME
 ?GetRuntimeClass@CMFCToolBarsCommandsPropertyPage@@UBEPAUCRuntimeClass@@XZ @ 6696 NONAME
 ?GetRuntimeClass@CMFCToolBarsCustomizeDialog@@UBEPAUCRuntimeClass@@XZ @ 6697 NONAME
 ?GetRuntimeClass@CMFCToolBarsKeyboardPropertyPage@@UBEPAUCRuntimeClass@@XZ @ 6698 NONAME
 ?GetRuntimeClass@CMFCToolBarsListPropertyPage@@UBEPAUCRuntimeClass@@XZ @ 6699 NONAME
 ?GetRuntimeClass@CMFCToolBarsMenuPropertyPage@@UBEPAUCRuntimeClass@@XZ @ 6700 NONAME
 ?GetRuntimeClass@CMFCToolBarsOptionsPropertyPage@@UBEPAUCRuntimeClass@@XZ @ 6701 NONAME
 ?GetRuntimeClass@CMFCToolBarSpinEditBoxButton@@UBEPAUCRuntimeClass@@XZ @ 6702 NONAME
 ?GetRuntimeClass@CMFCToolBarSystemMenuButton@@UBEPAUCRuntimeClass@@XZ @ 6703 NONAME
 ?GetRuntimeClass@CMFCToolTipCtrl@@UBEPAUCRuntimeClass@@XZ @ 6704 NONAME
 ?GetRuntimeClass@CMFCVisualManager@@UBEPAUCRuntimeClass@@XZ @ 6705 NONAME
 ?GetRuntimeClass@CMFCVisualManagerOffice2003@@UBEPAUCRuntimeClass@@XZ @ 6706 NONAME
 ?GetRuntimeClass@CMFCVisualManagerOffice2007@@UBEPAUCRuntimeClass@@XZ @ 6707 NONAME
 ?GetRuntimeClass@CMFCVisualManagerOfficeXP@@UBEPAUCRuntimeClass@@XZ @ 6708 NONAME
 ?GetRuntimeClass@CMFCVisualManagerVS2005@@UBEPAUCRuntimeClass@@XZ @ 6709 NONAME
 ?GetRuntimeClass@CMFCVisualManagerVS2008@@UBEPAUCRuntimeClass@@XZ @ 6710 NONAME
 ?GetRuntimeClass@CMFCVisualManagerWindows@@UBEPAUCRuntimeClass@@XZ @ 6711 NONAME
 ?GetRuntimeClass@CMFCVisualManagerWindows7@@UBEPAUCRuntimeClass@@XZ @ 6712 NONAME
 ?GetRuntimeClass@CMiniDockFrameWnd@@UBEPAUCRuntimeClass@@XZ @ 6713 NONAME
 ?GetRuntimeClass@CMiniFrameWnd@@UBEPAUCRuntimeClass@@XZ @ 6714 NONAME
 ?GetRuntimeClass@CMonikerFile@@UBEPAUCRuntimeClass@@XZ @ 6715 NONAME
 ?GetRuntimeClass@CMonthCalCtrl@@UBEPAUCRuntimeClass@@XZ @ 6716 NONAME
 ?GetRuntimeClass@CMouseManager@@UBEPAUCRuntimeClass@@XZ @ 6717 NONAME
 ?GetRuntimeClass@CMultiDocTemplate@@UBEPAUCRuntimeClass@@XZ @ 6718 NONAME
 ?GetRuntimeClass@CMultiPageDHtmlDialog@@UBEPAUCRuntimeClass@@XZ @ 6719 NONAME
 ?GetRuntimeClass@CMultiPaneFrameWnd@@UBEPAUCRuntimeClass@@XZ @ 6720 NONAME
 ?GetRuntimeClass@CMutex@@UBEPAUCRuntimeClass@@XZ @ 6721 NONAME
 ?GetRuntimeClass@CNotSupportedException@@UBEPAUCRuntimeClass@@XZ @ 6722 NONAME
 ?GetRuntimeClass@CObArray@@UBEPAUCRuntimeClass@@XZ @ 6723 NONAME
 ?GetRuntimeClass@CObject@@UBEPAUCRuntimeClass@@XZ @ 6724 NONAME
 ?GetRuntimeClass@CObList@@UBEPAUCRuntimeClass@@XZ @ 6725 NONAME
 ?GetRuntimeClass@COleBusyDialog@@UBEPAUCRuntimeClass@@XZ @ 6726 NONAME
 ?GetRuntimeClass@COleChangeIconDialog@@UBEPAUCRuntimeClass@@XZ @ 6727 NONAME
 ?GetRuntimeClass@COleChangeSourceDialog@@UBEPAUCRuntimeClass@@XZ @ 6728 NONAME
 ?GetRuntimeClass@COleClientItem@@UBEPAUCRuntimeClass@@XZ @ 6729 NONAME
 ?GetRuntimeClass@COleCntrFrameWndEx@@UBEPAUCRuntimeClass@@XZ @ 6730 NONAME
 ?GetRuntimeClass@COleControl@@UBEPAUCRuntimeClass@@XZ @ 6731 NONAME
 ?GetRuntimeClass@COleControlModule@@UBEPAUCRuntimeClass@@XZ @ 6732 NONAME
 ?GetRuntimeClass@COleConvertDialog@@UBEPAUCRuntimeClass@@XZ @ 6733 NONAME
 ?GetRuntimeClass@COleDBRecordView@@UBEPAUCRuntimeClass@@XZ @ 6734 NONAME
 ?GetRuntimeClass@COleDialog@@UBEPAUCRuntimeClass@@XZ @ 6735 NONAME
 ?GetRuntimeClass@COleDispatchException@@UBEPAUCRuntimeClass@@XZ @ 6736 NONAME
 ?GetRuntimeClass@COleDocIPFrameWnd@@UBEPAUCRuntimeClass@@XZ @ 6737 NONAME
 ?GetRuntimeClass@COleDocIPFrameWndEx@@UBEPAUCRuntimeClass@@XZ @ 6738 NONAME
 ?GetRuntimeClass@COleDocObjectItem@@UBEPAUCRuntimeClass@@XZ @ 6739 NONAME
 ?GetRuntimeClass@COleDocument@@UBEPAUCRuntimeClass@@XZ @ 6740 NONAME
 ?GetRuntimeClass@COleException@@UBEPAUCRuntimeClass@@XZ @ 6741 NONAME
 ?GetRuntimeClass@COleInsertDialog@@UBEPAUCRuntimeClass@@XZ @ 6742 NONAME
 ?GetRuntimeClass@COleIPFrameWnd@@UBEPAUCRuntimeClass@@XZ @ 6743 NONAME
 ?GetRuntimeClass@COleIPFrameWndEx@@UBEPAUCRuntimeClass@@XZ @ 6744 NONAME
 ?GetRuntimeClass@COleLinkingDoc@@UBEPAUCRuntimeClass@@XZ @ 6745 NONAME
 ?GetRuntimeClass@COleLinksDialog@@UBEPAUCRuntimeClass@@XZ @ 6746 NONAME
 ?GetRuntimeClass@COleObjectFactory@@UBEPAUCRuntimeClass@@XZ @ 6747 NONAME
 ?GetRuntimeClass@COlePasteSpecialDialog@@UBEPAUCRuntimeClass@@XZ @ 6748 NONAME
 ?GetRuntimeClass@COlePropertiesDialog@@UBEPAUCRuntimeClass@@XZ @ 6749 NONAME
 ?GetRuntimeClass@COlePropertyPage@@UBEPAUCRuntimeClass@@XZ @ 6750 NONAME
 ?GetRuntimeClass@COleResizeBar@@UBEPAUCRuntimeClass@@XZ @ 6751 NONAME
 ?GetRuntimeClass@COleServerDoc@@UBEPAUCRuntimeClass@@XZ @ 6752 NONAME
 ?GetRuntimeClass@COleServerDocEx@@UBEPAUCRuntimeClass@@XZ @ 6753 NONAME
 ?GetRuntimeClass@COleServerItem@@UBEPAUCRuntimeClass@@XZ @ 6754 NONAME
 ?GetRuntimeClass@COleStreamFile@@UBEPAUCRuntimeClass@@XZ @ 6755 NONAME
 ?GetRuntimeClass@COleUpdateDialog@@UBEPAUCRuntimeClass@@XZ @ 6756 NONAME
 ?GetRuntimeClass@COutlookCustomizeButton@@UBEPAUCRuntimeClass@@XZ @ 6757 NONAME
 ?GetRuntimeClass@CPagerCtrl@@UBEPAUCRuntimeClass@@XZ @ 6758 NONAME
 ?GetRuntimeClass@CPageSetupDialog@@UBEPAUCRuntimeClass@@XZ @ 6759 NONAME
 ?GetRuntimeClass@CPaintDC@@UBEPAUCRuntimeClass@@XZ @ 6760 NONAME
 ?GetRuntimeClass@CPalette@@UBEPAUCRuntimeClass@@XZ @ 6761 NONAME
 ?GetRuntimeClass@CPane@@UBEPAUCRuntimeClass@@XZ @ 6762 NONAME
 ?GetRuntimeClass@CPaneContainer@@UBEPAUCRuntimeClass@@XZ @ 6763 NONAME
 ?GetRuntimeClass@CPaneContainerManager@@UBEPAUCRuntimeClass@@XZ @ 6764 NONAME
 ?GetRuntimeClass@CPaneDialog@@UBEPAUCRuntimeClass@@XZ @ 6765 NONAME
 ?GetRuntimeClass@CPaneDivider@@UBEPAUCRuntimeClass@@XZ @ 6766 NONAME
 ?GetRuntimeClass@CPaneFrameWnd@@UBEPAUCRuntimeClass@@XZ @ 6767 NONAME
 ?GetRuntimeClass@CPen@@UBEPAUCRuntimeClass@@XZ @ 6768 NONAME
 ?GetRuntimeClass@CPreviewDC@@UBEPAUCRuntimeClass@@XZ @ 6769 NONAME
 ?GetRuntimeClass@CPreviewView@@UBEPAUCRuntimeClass@@XZ @ 6770 NONAME
 ?GetRuntimeClass@CPreviewViewEx@@UBEPAUCRuntimeClass@@XZ @ 6771 NONAME
 ?GetRuntimeClass@CPrintDialog@@UBEPAUCRuntimeClass@@XZ @ 6772 NONAME
 ?GetRuntimeClass@CPrintDialogEx@@UBEPAUCRuntimeClass@@XZ @ 6773 NONAME
 ?GetRuntimeClass@CProgressCtrl@@UBEPAUCRuntimeClass@@XZ @ 6774 NONAME
 ?GetRuntimeClass@CPropertyPage@@UBEPAUCRuntimeClass@@XZ @ 6775 NONAME
 ?GetRuntimeClass@CPropertySheet@@UBEPAUCRuntimeClass@@XZ @ 6776 NONAME
 ?GetRuntimeClass@CPtrArray@@UBEPAUCRuntimeClass@@XZ @ 6777 NONAME
 ?GetRuntimeClass@CPtrList@@UBEPAUCRuntimeClass@@XZ @ 6778 NONAME
 ?GetRuntimeClass@CReBar@@UBEPAUCRuntimeClass@@XZ @ 6779 NONAME
 ?GetRuntimeClass@CReBarCtrl@@UBEPAUCRuntimeClass@@XZ @ 6780 NONAME
 ?GetRuntimeClass@CRecordset@@UBEPAUCRuntimeClass@@XZ @ 6781 NONAME
 ?GetRuntimeClass@CRecordView@@UBEPAUCRuntimeClass@@XZ @ 6782 NONAME
 ?GetRuntimeClass@CRenderTarget@@UBEPAUCRuntimeClass@@XZ @ 6783 NONAME
 ?GetRuntimeClass@CResourceException@@UBEPAUCRuntimeClass@@XZ @ 6784 NONAME
 ?GetRuntimeClass@CRgn@@UBEPAUCRuntimeClass@@XZ @ 6785 NONAME
 ?GetRuntimeClass@CRibbonUndoLabel@@UBEPAUCRuntimeClass@@XZ @ 6786 NONAME
 ?GetRuntimeClass@CRichEditCntrItem@@UBEPAUCRuntimeClass@@XZ @ 6787 NONAME
 ?GetRuntimeClass@CRichEditCtrl@@UBEPAUCRuntimeClass@@XZ @ 6788 NONAME
 ?GetRuntimeClass@CRichEditDoc@@UBEPAUCRuntimeClass@@XZ @ 6789 NONAME
 ?GetRuntimeClass@CRichEditView@@UBEPAUCRuntimeClass@@XZ @ 6790 NONAME
 ?GetRuntimeClass@CScrollBar@@UBEPAUCRuntimeClass@@XZ @ 6791 NONAME
 ?GetRuntimeClass@CScrollView@@UBEPAUCRuntimeClass@@XZ @ 6792 NONAME
 ?GetRuntimeClass@CSemaphore@@UBEPAUCRuntimeClass@@XZ @ 6793 NONAME
 ?GetRuntimeClass@CSettingsStore@@UBEPAUCRuntimeClass@@XZ @ 6794 NONAME
 ?GetRuntimeClass@CSharedFile@@UBEPAUCRuntimeClass@@XZ @ 6795 NONAME
 ?GetRuntimeClass@CSimpleException@@UBEPAUCRuntimeClass@@XZ @ 6796 NONAME
 ?GetRuntimeClass@CSingleDocTemplate@@UBEPAUCRuntimeClass@@XZ @ 6797 NONAME
 ?GetRuntimeClass@CSliderCtrl@@UBEPAUCRuntimeClass@@XZ @ 6798 NONAME
 ?GetRuntimeClass@CSmartDockingGroupGuidesManager@@UBEPAUCRuntimeClass@@XZ @ 6799 NONAME
 ?GetRuntimeClass@CSmartDockingStandaloneGuide@@UBEPAUCRuntimeClass@@XZ @ 6800 NONAME
 ?GetRuntimeClass@CSocket@@UBEPAUCRuntimeClass@@XZ @ 6801 NONAME
 ?GetRuntimeClass@CSocketFile@@UBEPAUCRuntimeClass@@XZ @ 6802 NONAME
 ?GetRuntimeClass@CSpinButtonCtrl@@UBEPAUCRuntimeClass@@XZ @ 6803 NONAME
 ?GetRuntimeClass@CSplitterWnd@@UBEPAUCRuntimeClass@@XZ @ 6804 NONAME
 ?GetRuntimeClass@CSplitterWndEx@@UBEPAUCRuntimeClass@@XZ @ 6805 NONAME
 ?GetRuntimeClass@CStatic@@UBEPAUCRuntimeClass@@XZ @ 6806 NONAME
 ?GetRuntimeClass@CStatusBar@@UBEPAUCRuntimeClass@@XZ @ 6807 NONAME
 ?GetRuntimeClass@CStatusBarCtrl@@UBEPAUCRuntimeClass@@XZ @ 6808 NONAME
 ?GetRuntimeClass@CStdioFile@@UBEPAUCRuntimeClass@@XZ @ 6809 NONAME
 ?GetRuntimeClass@CStringArray@@UBEPAUCRuntimeClass@@XZ @ 6810 NONAME
 ?GetRuntimeClass@CStringList@@UBEPAUCRuntimeClass@@XZ @ 6811 NONAME
 ?GetRuntimeClass@CSyncObject@@UBEPAUCRuntimeClass@@XZ @ 6812 NONAME
 ?GetRuntimeClass@CTabbedPane@@UBEPAUCRuntimeClass@@XZ @ 6813 NONAME
 ?GetRuntimeClass@CTabCtrl@@UBEPAUCRuntimeClass@@XZ @ 6814 NONAME
 ?GetRuntimeClass@CTabView@@UBEPAUCRuntimeClass@@XZ @ 6815 NONAME
 ?GetRuntimeClass@CTasksPaneHistoryButton@@UBEPAUCRuntimeClass@@XZ @ 6816 NONAME
 ?GetRuntimeClass@CTasksPaneMenuButton@@UBEPAUCRuntimeClass@@XZ @ 6817 NONAME
 ?GetRuntimeClass@CTasksPaneNavigateButton@@UBEPAUCRuntimeClass@@XZ @ 6818 NONAME
 ?GetRuntimeClass@CToolBar@@UBEPAUCRuntimeClass@@XZ @ 6819 NONAME
 ?GetRuntimeClass@CToolBarCtrl@@UBEPAUCRuntimeClass@@XZ @ 6820 NONAME
 ?GetRuntimeClass@CToolTipCtrl@@UBEPAUCRuntimeClass@@XZ @ 6821 NONAME
 ?GetRuntimeClass@CTreeCtrl@@UBEPAUCRuntimeClass@@XZ @ 6822 NONAME
 ?GetRuntimeClass@CTreeView@@UBEPAUCRuntimeClass@@XZ @ 6823 NONAME
 ?GetRuntimeClass@CUIntArray@@UBEPAUCRuntimeClass@@XZ @ 6824 NONAME
 ?GetRuntimeClass@CUserException@@UBEPAUCRuntimeClass@@XZ @ 6825 NONAME
 ?GetRuntimeClass@CUserTool@@UBEPAUCRuntimeClass@@XZ @ 6826 NONAME
 ?GetRuntimeClass@CView@@UBEPAUCRuntimeClass@@XZ @ 6827 NONAME
 ?GetRuntimeClass@CVSListBox@@UBEPAUCRuntimeClass@@XZ @ 6828 NONAME
 ?GetRuntimeClass@CVSListBoxBase@@UBEPAUCRuntimeClass@@XZ @ 6829 NONAME
 ?GetRuntimeClass@CVSListBoxEditCtrl@@UBEPAUCRuntimeClass@@XZ @ 6830 NONAME
 ?GetRuntimeClass@CWinApp@@UBEPAUCRuntimeClass@@XZ @ 6831 NONAME
 ?GetRuntimeClass@CWinAppEx@@UBEPAUCRuntimeClass@@XZ @ 6832 NONAME
 ?GetRuntimeClass@CWindowDC@@UBEPAUCRuntimeClass@@XZ @ 6833 NONAME
 ?GetRuntimeClass@CWindowlessDC@@UBEPAUCRuntimeClass@@XZ @ 6834 NONAME
 ?GetRuntimeClass@CWinThread@@UBEPAUCRuntimeClass@@XZ @ 6835 NONAME
 ?GetRuntimeClass@CWnd@@UBEPAUCRuntimeClass@@XZ @ 6836 NONAME
 ?GetRuntimeClass@CWordArray@@UBEPAUCRuntimeClass@@XZ @ 6837 NONAME
 ?GetSafeActivePopupMenu@CMFCPopupMenu@@SGPAV1@XZ @ 6838 NONAME
 ?GetSafeOwner@CWnd@@SGPAV1@PAV1@PAPAUHWND__@@@Z @ 6839 NONAME
 ?GetSafeOwner_@CWnd@@SGPAUHWND__@@PAU2@PAPAU2@@Z @ 6840 NONAME
 ?GetSavedCustomColors@CColorDialog@@SGPAKXZ @ 6841 NONAME
 ?GetScreenName@CGopherFileFind@@QBE?AV?$CStringT@DV?$StrTraitMFC_DLL@DV?$ChTraitsCRT@D@ATL@@@@@ATL@@XZ @ 6842 NONAME
 ?GetScreenSize@CDockState@@QAE?AVCSize@@XZ @ 6843 NONAME
 ?GetScrollBarCtrl@CMFCPropertyGridCtrl@@UBEPAVCScrollBar@@H@Z @ 6844 NONAME
 ?GetScrollBarCtrl@CMFCTasksPane@@UBEPAVCScrollBar@@H@Z @ 6845 NONAME
 ?GetScrollBarCtrl@CMFCToolBarButtonsListButton@@UBEPAVCScrollBar@@H@Z @ 6846 NONAME
 ?GetScrollBarCtrl@CView@@UBEPAVCScrollBar@@H@Z @ 6847 NONAME
 ?GetScrollBarCtrl@CWnd@@UBEPAVCScrollBar@@H@Z @ 6848 NONAME
 ?GetScrollBarSizes@CScrollView@@IAEXAAVCSize@@@Z @ 6849 NONAME
 ?GetScrollBarState@CScrollView@@IAEXVCSize@@AAV2@1AAVCPoint@@H@Z @ 6850 NONAME
 ?GetScrollInfo@CWnd@@QAEHHPAUtagSCROLLINFO@@I@Z @ 6851 NONAME
 ?GetScrollLimit@CWnd@@QAEHH@Z @ 6852 NONAME
 ?GetScrollPos@CWnd@@QBEHH@Z @ 6853 NONAME
 ?GetScrollPosition@CScrollView@@QBE?AVCPoint@@XZ @ 6854 NONAME
 ?GetScrollRange@CWnd@@QBEXHPAH0@Z @ 6855 NONAME
 ?GetScrollStyle@CSplitterWnd@@QBEKXZ @ 6856 NONAME
 ?GetSection@CPropertySet@@QAEPAVCPropertySection@@U_GUID@@@Z @ 6857 NONAME
 ?GetSectionBinary@CWinAppEx@@QAEHPBD0PAPAEPAI@Z @ 6858 NONAME
 ?GetSectionInt@CWinAppEx@@QAEHPBD0H@Z @ 6859 NONAME
 ?GetSectionKey@CWinApp@@QAEPAUHKEY__@@PBDPAVCAtlTransactionManager@ATL@@@Z @ 6860 NONAME
 ?GetSectionName@CPropertySection@@QAEPBDXZ @ 6861 NONAME
 ?GetSectionObject@CWinAppEx@@QAEHPBD0AAVCObject@@@Z @ 6862 NONAME
 ?GetSectionString@CWinAppEx@@QAE?AV?$CStringT@DV?$StrTraitMFC_DLL@DV?$ChTraitsCRT@D@ATL@@@@@ATL@@PBD00@Z @ 6863 NONAME
 ?GetSegmentCount@CD2DPathGeometry@@QBEHXZ @ 6864 NONAME
 ?GetSel@CRichEditCtrl@@QBEXAAJ0@Z @ 6865 NONAME
 ?GetSelected@CMFCRibbonCommandsListBox@@QBEPAVCMFCRibbonBaseElement@@XZ @ 6866 NONAME
 ?GetSelectedControlItem@CFileDialog@@QAEJKAAK@Z @ 6867 NONAME
 ?GetSelectedItem@CRichEditView@@QBEPAVCRichEditCntrItem@@XZ @ 6868 NONAME
 ?GetSelectedText@CEditView@@QBEXAAV?$CStringT@DV?$StrTraitMFC_DLL@DV?$ChTraitsCRT@D@ATL@@@@@ATL@@@Z @ 6869 NONAME
 ?GetSelection@CSliderCtrl@@QBEXAAH0@Z @ 6870 NONAME
 ?GetSelectionCharFormat@CRichEditCtrl@@QBEKAAU_charformat@@@Z @ 6871 NONAME
 ?GetSelectionCharFormat@CRichEditCtrl@@QBEKAAUCHARFORMAT2A@@@Z @ 6872 NONAME
 ?GetSelectionType@COleConvertDialog@@QBEIXZ @ 6873 NONAME
 ?GetSelectionType@COleInsertDialog@@QBEIXZ @ 6874 NONAME
 ?GetSelectionType@COlePasteSpecialDialog@@QBEIXZ @ 6875 NONAME
 ?GetSelFont@CMFCFontComboBox@@QBEPAVCMFCFontInfo@@XZ @ 6876 NONAME
 ?GetSelItem@CMFCPopupMenu@@QAEPAVCMFCToolBarMenuButton@@XZ @ 6877 NONAME
 ?GetSelItem@CVSListBox@@UBEHXZ @ 6878 NONAME
 ?GetSelRange@CMonthCalCtrl@@QBEHAAVCOleDateTime@ATL@@0@Z @ 6879 NONAME
 ?GetSelRange@CMonthCalCtrl@@QBEHAAVCTime@ATL@@0@Z @ 6880 NONAME
 ?GetSelRange@CMonthCalCtrl@@QBEHPAU_SYSTEMTIME@@0@Z @ 6881 NONAME
 ?GetSelText@CRichEditCtrl@@QBE?AV?$CStringT@DV?$StrTraitMFC_DLL@DV?$ChTraitsCRT@D@ATL@@@@@ATL@@XZ @ 6882 NONAME
 ?GetShellImageList@CMFCShellListCtrl@@IAEPAU_IMAGELIST@@H@Z @ 6883 NONAME
 ?GetShellManager@CWinAppEx@@QAEPAVCShellManager@@XZ @ 6884 NONAME
 ?GetShowAllMenuItemsHeight@CMFCVisualManager@@UAEHPAVCDC@@ABVCSize@@@Z @ 6885 NONAME
 ?GetShowAllMenuItemsHeight@CMFCVisualManagerOffice2003@@UAEHPAVCDC@@ABVCSize@@@Z @ 6886 NONAME
 ?GetShowAllMenuItemsHeight@CMFCVisualManagerOffice2007@@UAEHPAVCDC@@ABVCSize@@@Z @ 6887 NONAME
 ?GetSilent@CHtmlView@@QBEHXZ @ 6888 NONAME
 ?GetSite@CPrintDialogEx@@UAGJABU_GUID@@PAPAX@Z @ 6889 NONAME
 ?GetSite@XObjectWithSite@CDocument@@UAGJABU_GUID@@PAPAX@Z @ 6890 NONAME
 ?GetSize@CD2DBitmap@@QBE?AVCD2DSizeF@@XZ @ 6891 NONAME
 ?GetSize@CD2DLayer@@QBE?AVCD2DSizeF@@XZ @ 6892 NONAME
 ?GetSize@CMFCAutoHideButton@@QBE?AVCSize@@XZ @ 6893 NONAME
 ?GetSize@CPropertySection@@QAEKXZ @ 6894 NONAME
 ?GetSize@CRenderTarget@@QBE?AVCD2DSizeF@@XZ @ 6895 NONAME
 ?GetSizeInDialogUnits@CDialogTemplate@@QBEXPAUtagSIZE@@@Z @ 6896 NONAME
 ?GetSizeInPixels@CDialogTemplate@@QBEXPAUtagSIZE@@@Z @ 6897 NONAME
 ?GetSizeMax@CBlobProperty@@UAGJPAT_ULARGE_INTEGER@@@Z @ 6898 NONAME
 ?GetSizeMax@XPersistMemory@COleControl@@UAGJPAK@Z @ 6899 NONAME
 ?GetSizeMax@XPersistStreamInit@COleControl@@UAGJPAT_ULARGE_INTEGER@@@Z @ 6900 NONAME
 ?GetSizingParent@CSplitterWnd@@IAEPAVCWnd@@XZ @ 6901 NONAME
 ?GetSmartDockingBaseGuideColors@CMFCVisualManager@@UAEXAAK0@Z @ 6902 NONAME
 ?GetSmartDockingBaseGuideColors@CMFCVisualManagerOffice2003@@UAEXAAK0@Z @ 6903 NONAME
 ?GetSmartDockingBaseGuideColors@CMFCVisualManagerOfficeXP@@MAEXAAK0@Z @ 6904 NONAME
 ?GetSmartDockingHighlightToneColor@CMFCVisualManager@@UAEKXZ @ 6905 NONAME
 ?GetSmartDockingHighlightToneColor@CMFCVisualManagerOffice2003@@UAEKXZ @ 6906 NONAME
 ?GetSmartDockingTheme@CMFCVisualManagerOffice2007@@UAE?AW4AFX_SMARTDOCK_THEME@@XZ @ 6907 NONAME
 ?GetSmartDockingTheme@CMFCVisualManagerVS2008@@UAE?AW4AFX_SMARTDOCK_THEME@@XZ @ 6908 NONAME
 ?GetSockName@CAsyncSocket@@QAEHAAV?$CStringT@DV?$StrTraitMFC_DLL@DV?$ChTraitsCRT@D@ATL@@@@@ATL@@AAI@Z @ 6909 NONAME
 ?GetSortColumn@CMFCHeaderCtrl@@QBEHXZ @ 6910 NONAME
 ?GetSource@CHtmlView@@UAEHAAV?$CStringT@DV?$StrTraitMFC_DLL@DV?$ChTraitsCRT@D@ATL@@@@@ATL@@@Z @ 6911 NONAME
 ?GetSourceTableName@CDaoTableDef@@QAE?AV?$CStringT@DV?$StrTraitMFC_DLL@DV?$ChTraitsCRT@D@ATL@@@@@ATL@@XZ @ 6912 NONAME
 ?GetSQL@CDaoQueryDef@@QAE?AV?$CStringT@DV?$StrTraitMFC_DLL@DV?$ChTraitsCRT@D@ATL@@@@@ATL@@XZ @ 6913 NONAME
 ?GetSQL@CDaoRecordset@@QBE?AV?$CStringT@DV?$StrTraitMFC_DLL@DV?$ChTraitsCRT@D@ATL@@@@@ATL@@XZ @ 6914 NONAME
 ?GetStackSize@CCmdTarget@@KGIPBEG@Z @ 6915 NONAME
 ?GetStandardProp@CCmdTarget@@IAEXPBUAFX_DISPMAP_ENTRY@@PAUtagVARIANT@@PAI@Z @ 6916 NONAME
 ?GetStandardWindowsTheme@CMFCBaseVisualManager@@UAE?AW4WinXpTheme@1@XZ @ 6917 NONAME
 ?GetStartDocument@CHtmlEditCtrl@@UAEPBDXZ @ 6918 NONAME
 ?GetStartDocument@CHtmlEditView@@UAEPBDXZ @ 6919 NONAME
 ?GetStartPoint@CD2DLinearGradientBrush@@QBE?AVCD2DPointF@@XZ @ 6920 NONAME
 ?GetStartPosition@CConnectionPoint@@QBEPAU__POSITION@@XZ @ 6921 NONAME
 ?GetStartPosition@COleDocument@@UBEPAU__POSITION@@XZ @ 6922 NONAME
 ?GetStartPosition@CRichEditDoc@@UBEPAU__POSITION@@XZ @ 6923 NONAME
 ?GetStatus@CFile@@QBEHAAUCFileStatus@@@Z @ 6924 NONAME
 ?GetStatus@CFile@@SGHPBDAAUCFileStatus@@PAVCAtlTransactionManager@ATL@@@Z @ 6925 NONAME
 ?GetStatus@CMemFile@@QBEHAAUCFileStatus@@@Z @ 6926 NONAME
 ?GetStatus@COleStreamFile@@QBEHAAUCFileStatus@@@Z @ 6927 NONAME
 ?GetStatusBar@CHtmlView@@QBEHXZ @ 6928 NONAME
 ?GetStatusBarPaneTextColor@CMFCVisualManager@@UAEKPAVCMFCStatusBar@@PAVCMFCStatusBarPaneInfo@@@Z @ 6929 NONAME
 ?GetStatusBarPaneTextColor@CMFCVisualManagerOffice2007@@UAEKPAVCMFCStatusBar@@PAVCMFCStatusBarPaneInfo@@@Z @ 6930 NONAME
 ?GetStdButtonNum@CVSListBoxBase@@IBEHI@Z @ 6931 NONAME
 ?GetStockTextMetrics@COleControl@@QAEXPAUtagTEXTMETRICA@@@Z @ 6932 NONAME
 ?GetStorageName@COleStreamFile@@UBE?BV?$CStringT@DV?$StrTraitMFC_DLL@DV?$ChTraitsCRT@D@ATL@@@@@ATL@@XZ @ 6933 NONAME
 ?GetStream@COleStreamFile@@QBEPAUIStream@@XZ @ 6934 NONAME
 ?GetString@?$CSimpleStringT@_W$00@ATL@@QBEPB_WXZ @ 6935 NONAME
 ?GetString@?$CSimpleStringT@D$00@ATL@@QBEPBDXZ @ 6936 NONAME
 ?GetString@CToolBarCtrl@@QBEHHAAV?$CStringT@DV?$StrTraitMFC_DLL@DV?$ChTraitsCRT@D@ATL@@@@@ATL@@@Z @ 6937 NONAME
 ?GetString@CWinAppEx@@QAE?AV?$CStringT@DV?$StrTraitMFC_DLL@DV?$ChTraitsCRT@D@ATL@@@@@ATL@@PBD0@Z @ 6938 NONAME
 ?GetStyle@CMFCVisualManagerOffice2007@@SG?AW4Style@1@XZ @ 6939 NONAME
 ?GetStyle@COleControlSite@@UBEKXZ @ 6940 NONAME
 ?GetStyle@COleControlSiteOrWnd@@QBEKXZ @ 6941 NONAME
 ?GetStyle@CWnd@@QBEKXZ @ 6942 NONAME
 ?GetStyleResourceID@CMFCVisualManagerOffice2007@@KG?AV?$CStringT@DV?$StrTraitMFC_DLL@DV?$ChTraitsCRT@D@ATL@@@@@ATL@@W4Style@1@@Z @ 6943 NONAME
 ?GetStyleResourceID@CMFCVisualManagerWindows7@@KG?AV?$CStringT@DV?$StrTraitMFC_DLL@DV?$ChTraitsCRT@D@ATL@@@@@ATL@@XZ @ 6944 NONAME
 ?GetSubItem@CMFCPropertyGridProperty@@QBEPAV1@H@Z @ 6945 NONAME
 ?GetSubItemRect@CListCtrl@@QBEHHHHAAVCRect@@@Z @ 6946 NONAME
 ?GetSuperWndProcAddr@CWnd@@MAEPAP6GJPAUHWND__@@IIJ@ZXZ @ 6947 NONAME
 ?GetSysButton@CFrameImpl@@IAEPAVCMFCCaptionButtonEx@@I@Z @ 6948 NONAME
 ?GetSysPolicyValue@CWinApp@@QAEHKPAH@Z @ 6949 NONAME
 ?GetSystemBorders@CGlobalUtils@@QAE?AVCSize@@K@Z @ 6950 NONAME
 ?GetSystemBorders@CGlobalUtils@@QAE?AVCSize@@PAVCWnd@@@Z @ 6951 NONAME
 ?GetSystemBorders@CMFCVisualManagerOffice2007@@IBE?AVCSize@@H@Z @ 6952 NONAME
 ?GetSystemBorders@CMFCVisualManagerWindows7@@IBE?AVCSize@@H@Z @ 6953 NONAME
 ?GetSystemButton@CMFCMenuBar@@QBEPAVCMFCToolBarMenuButtonsButton@@IH@Z @ 6954 NONAME
 ?GetSystemMenu@CMFCMenuBar@@QBEPAVCMFCToolBarSystemMenuButton@@XZ @ 6955 NONAME
 ?GetTab@CMFCPropertySheet@@QBEAAVCMFCTabCtrl@@XZ @ 6956 NONAME
 ?GetTabArea@CMFCOutlookBar@@UBEXAAVCRect@@0@Z @ 6957 NONAME
 ?GetTabArea@CMFCOutlookBarTabCtrl@@UBEXAAVCRect@@0@Z @ 6958 NONAME
 ?GetTabArea@CTabbedPane@@UBEXAAVCRect@@0@Z @ 6959 NONAME
 ?GetTabBkColor@CMFCBaseTabCtrl@@UBEKH@Z @ 6960 NONAME
 ?GetTabByID@CMFCBaseTabCtrl@@UBEHH@Z @ 6961 NONAME
 ?GetTabFrameColors@CMFCVisualManager@@UAEXPBVCMFCBaseTabCtrl@@AAK11111AAPAVCBrush@@2@Z @ 6962 NONAME
 ?GetTabFrameColors@CMFCVisualManagerOffice2003@@UAEXPBVCMFCBaseTabCtrl@@AAK11111AAPAVCBrush@@2@Z @ 6963 NONAME
 ?GetTabFrameColors@CMFCVisualManagerOffice2007@@UAEXPBVCMFCBaseTabCtrl@@AAK11111AAPAVCBrush@@2@Z @ 6964 NONAME
 ?GetTabFrameColors@CMFCVisualManagerVS2005@@UAEXPBVCMFCBaseTabCtrl@@AAK11111AAPAVCBrush@@2@Z @ 6965 NONAME
 ?GetTabFrameColors@CMFCVisualManagerVS2008@@UAEXPBVCMFCBaseTabCtrl@@AAK11111AAPAVCBrush@@2@Z @ 6966 NONAME
 ?GetTabFromHwnd@CMFCBaseTabCtrl@@UBEHPAUHWND__@@@Z @ 6967 NONAME
 ?GetTabFromPoint@CMFCBaseTabCtrl@@UBEHAAVCPoint@@@Z @ 6968 NONAME
 ?GetTabFromPoint@CMFCTabCtrl@@UBEHAAVCPoint@@@Z @ 6969 NONAME
 ?GetTabFullWidth@CMFCBaseTabCtrl@@UBEHH@Z @ 6970 NONAME
 ?GetTabHicon@CMFCBaseTabCtrl@@UBEPAUHICON__@@H@Z @ 6971 NONAME
 ?GetTabHorzMargin@CMFCVisualManagerOffice2007@@UAEHPBVCMFCBaseTabCtrl@@@Z @ 6972 NONAME
 ?GetTabIcon@CMFCBaseTabCtrl@@UBEIH@Z @ 6973 NONAME
 ?GetTabID@CMFCBaseTabCtrl@@QBEHH@Z @ 6974 NONAME
 ?GetTabLabel@CMFCBaseTabCtrl@@UBEHHAAV?$CStringT@DV?$StrTraitMFC_DLL@DV?$ChTraitsCRT@D@ATL@@@@@ATL@@@Z @ 6975 NONAME
 ?GetTableDefCount@CDaoDatabase@@QAEFXZ @ 6976 NONAME
 ?GetTableDefInfo@CDaoDatabase@@QAEXHAAUCDaoTableDefInfo@@K@Z @ 6977 NONAME
 ?GetTableDefInfo@CDaoDatabase@@QAEXPBDAAUCDaoTableDefInfo@@K@Z @ 6978 NONAME
 ?GetTabNumberToDetach@CMFCBaseTabCtrl@@MBEHH@Z @ 6979 NONAME
 ?GetTabNumberToDetach@CMFCOutlookBarTabCtrl@@MBEHH@Z @ 6980 NONAME
 ?GetTabRect@CMFCBaseTabCtrl@@UBEHHAAVCRect@@@Z @ 6981 NONAME
 ?GetTabTextColor@CMFCBaseTabCtrl@@UBEKH@Z @ 6982 NONAME
 ?GetTabTextColor@CMFCVisualManagerOffice2007@@UAEKPBVCMFCBaseTabCtrl@@HH@Z @ 6983 NONAME
 ?GetTabWnd@CMFCBaseTabCtrl@@UBEPAVCWnd@@H@Z @ 6984 NONAME
 ?GetTabWndNoWrapper@CMFCBaseTabCtrl@@UBEPAVCWnd@@H@Z @ 6985 NONAME
 ?GetTags@CRenderTarget@@QBEXPA_K0@Z @ 6986 NONAME
 ?GetTask@CMFCTasksPane@@QBEPAVCMFCTasksPaneTask@@HH@Z @ 6987 NONAME
 ?GetTaskbarPreviewWnd@CMDIChildWndEx@@UAEPAVCWnd@@XZ @ 6988 NONAME
 ?GetTaskbarThumbnailClipRect@CMDIChildWndEx@@UBE?AVCRect@@XZ @ 6989 NONAME
 ?GetTaskGroup@CMFCTasksPane@@QBEPAVCMFCTasksPaneTaskGroup@@H@Z @ 6990 NONAME
 ?GetTaskLocation@CMFCTasksPane@@QBEHIAAH0@Z @ 6991 NONAME
 ?GetTaskLocation@CMFCTasksPane@@QBEHPAUHWND__@@AAH1@Z @ 6992 NONAME
 ?GetTaskLocation@CMFCTasksPane@@QBEHPAVCMFCTasksPaneTask@@AAH1@Z @ 6993 NONAME
 ?GetTasksGroupBorders@CMFCTasksPane@@MBE?AVCSize@@XZ @ 6994 NONAME
 ?GetTemplateSize@CDialogTemplate@@KAIPBUDLGTEMPLATE@@@Z @ 6995 NONAME
 ?GetText@CListBox@@QBEXHAAV?$CStringT@DV?$StrTraitMFC_DLL@DV?$ChTraitsCRT@D@ATL@@@@@ATL@@@Z @ 6996 NONAME
 ?GetText@CMFCDropDownListBox@@QBEXHAAV?$CStringT@DV?$StrTraitMFC_DLL@DV?$ChTraitsCRT@D@ATL@@@@@ATL@@@Z @ 6997 NONAME
 ?GetText@COleControl@@QAEPA_WXZ @ 6998 NONAME
 ?GetText@CStatusBarCtrl@@QBE?AV?$CStringT@DV?$StrTraitMFC_DLL@DV?$ChTraitsCRT@D@ATL@@@@@ATL@@HPAH@Z @ 6999 NONAME
 ?GetText@CStatusBarCtrl@@QBEHPADHPAH@Z @ 7000 NONAME
 ?GetText@CToolTipCtrl@@QBEXAAV?$CStringT@DV?$StrTraitMFC_DLL@DV?$ChTraitsCRT@D@ATL@@@@@ATL@@PAVCWnd@@I@Z @ 7001 NONAME
 ?GetTextAll@CMFCToolBarComboBoxButton@@SGPBDI@Z @ 7002 NONAME
 ?GetTextAntialiasMode@CRenderTarget@@QBE?AW4D2D1_TEXT_ANTIALIAS_MODE@@XZ @ 7003 NONAME
 ?GetTextHorzOffsets@CMFCToolBarMenuButton@@KGXAAH0@Z @ 7004 NONAME
 ?GetTextLen@CRecordset@@SGJFK@Z @ 7005 NONAME
 ?GetTextLength@CStatusBarCtrl@@QBEHHPAH@Z @ 7006 NONAME
 ?GetTextLengthEx@CRichEditCtrl@@QBEJKI@Z @ 7007 NONAME
 ?GetTextRange@CRichEditCtrl@@QBEHHHAAV?$CStringT@DV?$StrTraitMFC_DLL@DV?$ChTraitsCRT@D@ATL@@@@@ATL@@@Z @ 7008 NONAME
 ?GetTextRenderingParams@CRenderTarget@@QAEXPAPAUIDWriteRenderingParams@@@Z @ 7009 NONAME
 ?GetTextSize@CMFCAutoHideButton@@UBE?AVCSize@@XZ @ 7010 NONAME
 ?GetTextSize@CMFCCaptionBar@@MAE?AVCSize@@PAVCDC@@ABV?$CStringT@DV?$StrTraitMFC_DLL@DV?$ChTraitsCRT@D@ATL@@@@@ATL@@@Z @ 7011 NONAME
 ?GetTextTopLine@CMFCRibbonCategory@@QBEHXZ @ 7012 NONAME
 ?GetTheaterMode@CHtmlView@@QBEHXZ @ 7013 NONAME
 ?GetThemeColor@CMFCVisualManagerOffice2003@@IBEKPAXH@Z @ 7014 NONAME
 ?GetThisClass@CAnimateCtrl@@SGPAUCRuntimeClass@@XZ @ 7015 NONAME
 ?GetThisClass@CAnimationBaseObject@@SGPAUCRuntimeClass@@XZ @ 7016 NONAME
 ?GetThisClass@CAnimationColor@@SGPAUCRuntimeClass@@XZ @ 7017 NONAME
 ?GetThisClass@CAnimationController@@SGPAUCRuntimeClass@@XZ @ 7018 NONAME
 ?GetThisClass@CAnimationPoint@@SGPAUCRuntimeClass@@XZ @ 7019 NONAME
 ?GetThisClass@CAnimationRect@@SGPAUCRuntimeClass@@XZ @ 7020 NONAME
 ?GetThisClass@CAnimationSize@@SGPAUCRuntimeClass@@XZ @ 7021 NONAME
 ?GetThisClass@CAnimationValue@@SGPAUCRuntimeClass@@XZ @ 7022 NONAME
 ?GetThisClass@CArchiveException@@SGPAUCRuntimeClass@@XZ @ 7023 NONAME
 ?GetThisClass@CAsyncMonikerFile@@SGPAUCRuntimeClass@@XZ @ 7024 NONAME
 ?GetThisClass@CAsyncSocket@@SGPAUCRuntimeClass@@XZ @ 7025 NONAME
 ?GetThisClass@CAutoHideDockSite@@SGPAUCRuntimeClass@@XZ @ 7026 NONAME
 ?GetThisClass@CBaseKeyFrame@@SGPAUCRuntimeClass@@XZ @ 7027 NONAME
 ?GetThisClass@CBasePane@@SGPAUCRuntimeClass@@XZ @ 7028 NONAME
 ?GetThisClass@CBaseTabbedPane@@SGPAUCRuntimeClass@@XZ @ 7029 NONAME
 ?GetThisClass@CBaseTransition@@SGPAUCRuntimeClass@@XZ @ 7030 NONAME
 ?GetThisClass@CBitmap@@SGPAUCRuntimeClass@@XZ @ 7031 NONAME
 ?GetThisClass@CBitmapButton@@SGPAUCRuntimeClass@@XZ @ 7032 NONAME
 ?GetThisClass@CBitmapRenderTarget@@SGPAUCRuntimeClass@@XZ @ 7033 NONAME
 ?GetThisClass@CBrush@@SGPAUCRuntimeClass@@XZ @ 7034 NONAME
 ?GetThisClass@CButton@@SGPAUCRuntimeClass@@XZ @ 7035 NONAME
 ?GetThisClass@CByteArray@@SGPAUCRuntimeClass@@XZ @ 7036 NONAME
 ?GetThisClass@CCachedDataPathProperty@@SGPAUCRuntimeClass@@XZ @ 7037 NONAME
 ?GetThisClass@CCheckListBox@@SGPAUCRuntimeClass@@XZ @ 7038 NONAME
 ?GetThisClass@CClientDC@@SGPAUCRuntimeClass@@XZ @ 7039 NONAME
 ?GetThisClass@CCmdTarget@@SGPAUCRuntimeClass@@XZ @ 7040 NONAME
 ?GetThisClass@CColorDialog@@SGPAUCRuntimeClass@@XZ @ 7041 NONAME
 ?GetThisClass@CComboBox@@SGPAUCRuntimeClass@@XZ @ 7042 NONAME
 ?GetThisClass@CComboBoxEx@@SGPAUCRuntimeClass@@XZ @ 7043 NONAME
 ?GetThisClass@CCommonDialog@@SGPAUCRuntimeClass@@XZ @ 7044 NONAME
 ?GetThisClass@CControlBar@@SGPAUCRuntimeClass@@XZ @ 7045 NONAME
 ?GetThisClass@CCriticalSection@@SGPAUCRuntimeClass@@XZ @ 7046 NONAME
 ?GetThisClass@CCtrlView@@SGPAUCRuntimeClass@@XZ @ 7047 NONAME
 ?GetThisClass@CD2DBitmap@@SGPAUCRuntimeClass@@XZ @ 7048 NONAME
 ?GetThisClass@CD2DBitmapBrush@@SGPAUCRuntimeClass@@XZ @ 7049 NONAME
 ?GetThisClass@CD2DBrush@@SGPAUCRuntimeClass@@XZ @ 7050 NONAME
 ?GetThisClass@CD2DGeometry@@SGPAUCRuntimeClass@@XZ @ 7051 NONAME
 ?GetThisClass@CD2DGradientBrush@@SGPAUCRuntimeClass@@XZ @ 7052 NONAME
 ?GetThisClass@CD2DLayer@@SGPAUCRuntimeClass@@XZ @ 7053 NONAME
 ?GetThisClass@CD2DLinearGradientBrush@@SGPAUCRuntimeClass@@XZ @ 7054 NONAME
 ?GetThisClass@CD2DMesh@@SGPAUCRuntimeClass@@XZ @ 7055 NONAME
 ?GetThisClass@CD2DPathGeometry@@SGPAUCRuntimeClass@@XZ @ 7056 NONAME
 ?GetThisClass@CD2DRadialGradientBrush@@SGPAUCRuntimeClass@@XZ @ 7057 NONAME
 ?GetThisClass@CD2DResource@@SGPAUCRuntimeClass@@XZ @ 7058 NONAME
 ?GetThisClass@CD2DSolidColorBrush@@SGPAUCRuntimeClass@@XZ @ 7059 NONAME
 ?GetThisClass@CD2DTextFormat@@SGPAUCRuntimeClass@@XZ @ 7060 NONAME
 ?GetThisClass@CD2DTextLayout@@SGPAUCRuntimeClass@@XZ @ 7061 NONAME
 ?GetThisClass@CDaoDatabase@@SGPAUCRuntimeClass@@XZ @ 7062 NONAME
 ?GetThisClass@CDaoException@@SGPAUCRuntimeClass@@XZ @ 7063 NONAME
 ?GetThisClass@CDaoQueryDef@@SGPAUCRuntimeClass@@XZ @ 7064 NONAME
 ?GetThisClass@CDaoRecordset@@SGPAUCRuntimeClass@@XZ @ 7065 NONAME
 ?GetThisClass@CDaoRecordView@@SGPAUCRuntimeClass@@XZ @ 7066 NONAME
 ?GetThisClass@CDaoTableDef@@SGPAUCRuntimeClass@@XZ @ 7067 NONAME
 ?GetThisClass@CDaoWorkspace@@SGPAUCRuntimeClass@@XZ @ 7068 NONAME
 ?GetThisClass@CDatabase@@SGPAUCRuntimeClass@@XZ @ 7069 NONAME
 ?GetThisClass@CDataPathProperty@@SGPAUCRuntimeClass@@XZ @ 7070 NONAME
 ?GetThisClass@CDateTimeCtrl@@SGPAUCRuntimeClass@@XZ @ 7071 NONAME
 ?GetThisClass@CDBException@@SGPAUCRuntimeClass@@XZ @ 7072 NONAME
 ?GetThisClass@CDC@@SGPAUCRuntimeClass@@XZ @ 7073 NONAME
 ?GetThisClass@CDCRenderTarget@@SGPAUCRuntimeClass@@XZ @ 7074 NONAME
 ?GetThisClass@CDHtmlDialog@@SGPAUCRuntimeClass@@XZ @ 7075 NONAME
 ?GetThisClass@CDialog@@SGPAUCRuntimeClass@@XZ @ 7076 NONAME
 ?GetThisClass@CDialogBar@@SGPAUCRuntimeClass@@XZ @ 7077 NONAME
 ?GetThisClass@CDialogEx@@SGPAUCRuntimeClass@@XZ @ 7078 NONAME
 ?GetThisClass@CDocItem@@SGPAUCRuntimeClass@@XZ @ 7079 NONAME
 ?GetThisClass@CDockablePane@@SGPAUCRuntimeClass@@XZ @ 7080 NONAME
 ?GetThisClass@CDockablePaneAdapter@@SGPAUCRuntimeClass@@XZ @ 7081 NONAME
 ?GetThisClass@CDockBar@@SGPAUCRuntimeClass@@XZ @ 7082 NONAME
 ?GetThisClass@CDockingPanesRow@@SGPAUCRuntimeClass@@XZ @ 7083 NONAME
 ?GetThisClass@CDockSite@@SGPAUCRuntimeClass@@XZ @ 7084 NONAME
 ?GetThisClass@CDockState@@SGPAUCRuntimeClass@@XZ @ 7085 NONAME
 ?GetThisClass@CDocManager@@SGPAUCRuntimeClass@@XZ @ 7086 NONAME
 ?GetThisClass@CDocObjectServer@@SGPAUCRuntimeClass@@XZ @ 7087 NONAME
 ?GetThisClass@CDocObjectServerItem@@SGPAUCRuntimeClass@@XZ @ 7088 NONAME
 ?GetThisClass@CDocTemplate@@SGPAUCRuntimeClass@@XZ @ 7089 NONAME
 ?GetThisClass@CDocument@@SGPAUCRuntimeClass@@XZ @ 7090 NONAME
 ?GetThisClass@CDragListBox@@SGPAUCRuntimeClass@@XZ @ 7091 NONAME
 ?GetThisClass@CDWordArray@@SGPAUCRuntimeClass@@XZ @ 7092 NONAME
 ?GetThisClass@CDynLinkLibrary@@SGPAUCRuntimeClass@@XZ @ 7093 NONAME
 ?GetThisClass@CEdit@@SGPAUCRuntimeClass@@XZ @ 7094 NONAME
 ?GetThisClass@CEditView@@SGPAUCRuntimeClass@@XZ @ 7095 NONAME
 ?GetThisClass@CEvent@@SGPAUCRuntimeClass@@XZ @ 7096 NONAME
 ?GetThisClass@CException@@SGPAUCRuntimeClass@@XZ @ 7097 NONAME
 ?GetThisClass@CFile@@SGPAUCRuntimeClass@@XZ @ 7098 NONAME
 ?GetThisClass@CFileDialog@@SGPAUCRuntimeClass@@XZ @ 7099 NONAME
 ?GetThisClass@CFileException@@SGPAUCRuntimeClass@@XZ @ 7100 NONAME
 ?GetThisClass@CFileFind@@SGPAUCRuntimeClass@@XZ @ 7101 NONAME
 ?GetThisClass@CFindReplaceDialog@@SGPAUCRuntimeClass@@XZ @ 7102 NONAME
 ?GetThisClass@CFolderPickerDialog@@SGPAUCRuntimeClass@@XZ @ 7103 NONAME
 ?GetThisClass@CFont@@SGPAUCRuntimeClass@@XZ @ 7104 NONAME
 ?GetThisClass@CFontDialog@@SGPAUCRuntimeClass@@XZ @ 7105 NONAME
 ?GetThisClass@CFormView@@SGPAUCRuntimeClass@@XZ @ 7106 NONAME
 ?GetThisClass@CFrameWnd@@SGPAUCRuntimeClass@@XZ @ 7107 NONAME
 ?GetThisClass@CFrameWndEx@@SGPAUCRuntimeClass@@XZ @ 7108 NONAME
 ?GetThisClass@CFtpConnection@@SGPAUCRuntimeClass@@XZ @ 7109 NONAME
 ?GetThisClass@CFtpFileFind@@SGPAUCRuntimeClass@@XZ @ 7110 NONAME
 ?GetThisClass@CGdiObject@@SGPAUCRuntimeClass@@XZ @ 7111 NONAME
 ?GetThisClass@CGopherConnection@@SGPAUCRuntimeClass@@XZ @ 7112 NONAME
 ?GetThisClass@CGopherFile@@SGPAUCRuntimeClass@@XZ @ 7113 NONAME
 ?GetThisClass@CGopherFileFind@@SGPAUCRuntimeClass@@XZ @ 7114 NONAME
 ?GetThisClass@CHeaderCtrl@@SGPAUCRuntimeClass@@XZ @ 7115 NONAME
 ?GetThisClass@CHelpComboBoxButton@@SGPAUCRuntimeClass@@XZ @ 7116 NONAME
 ?GetThisClass@CHotKeyCtrl@@SGPAUCRuntimeClass@@XZ @ 7117 NONAME
 ?GetThisClass@CHtmlEditDoc@@SGPAUCRuntimeClass@@XZ @ 7118 NONAME
 ?GetThisClass@CHtmlEditView@@SGPAUCRuntimeClass@@XZ @ 7119 NONAME
 ?GetThisClass@CHtmlView@@SGPAUCRuntimeClass@@XZ @ 7120 NONAME
 ?GetThisClass@CHttpConnection@@SGPAUCRuntimeClass@@XZ @ 7121 NONAME
 ?GetThisClass@CHttpFile@@SGPAUCRuntimeClass@@XZ @ 7122 NONAME
 ?GetThisClass@CHwndRenderTarget@@SGPAUCRuntimeClass@@XZ @ 7123 NONAME
 ?GetThisClass@CImageList@@SGPAUCRuntimeClass@@XZ @ 7124 NONAME
 ?GetThisClass@CInternetConnection@@SGPAUCRuntimeClass@@XZ @ 7125 NONAME
 ?GetThisClass@CInternetException@@SGPAUCRuntimeClass@@XZ @ 7126 NONAME
 ?GetThisClass@CInternetFile@@SGPAUCRuntimeClass@@XZ @ 7127 NONAME
 ?GetThisClass@CInternetSession@@SGPAUCRuntimeClass@@XZ @ 7128 NONAME
 ?GetThisClass@CInvalidArgException@@SGPAUCRuntimeClass@@XZ @ 7129 NONAME
 ?GetThisClass@CIPAddressCtrl@@SGPAUCRuntimeClass@@XZ @ 7130 NONAME
 ?GetThisClass@CKeyFrame@@SGPAUCRuntimeClass@@XZ @ 7131 NONAME
 ?GetThisClass@CLinkCtrl@@SGPAUCRuntimeClass@@XZ @ 7132 NONAME
 ?GetThisClass@CListBox@@SGPAUCRuntimeClass@@XZ @ 7133 NONAME
 ?GetThisClass@CListCtrl@@SGPAUCRuntimeClass@@XZ @ 7134 NONAME
 ?GetThisClass@CListView@@SGPAUCRuntimeClass@@XZ @ 7135 NONAME
 ?GetThisClass@CLongBinary@@SGPAUCRuntimeClass@@XZ @ 7136 NONAME
 ?GetThisClass@CMapPtrToPtr@@SGPAUCRuntimeClass@@XZ @ 7137 NONAME
 ?GetThisClass@CMapPtrToWord@@SGPAUCRuntimeClass@@XZ @ 7138 NONAME
 ?GetThisClass@CMapStringToOb@@SGPAUCRuntimeClass@@XZ @ 7139 NONAME
 ?GetThisClass@CMapStringToPtr@@SGPAUCRuntimeClass@@XZ @ 7140 NONAME
 ?GetThisClass@CMapStringToString@@SGPAUCRuntimeClass@@XZ @ 7141 NONAME
 ?GetThisClass@CMapWordToOb@@SGPAUCRuntimeClass@@XZ @ 7142 NONAME
 ?GetThisClass@CMapWordToPtr@@SGPAUCRuntimeClass@@XZ @ 7143 NONAME
 ?GetThisClass@CMDIChildWnd@@SGPAUCRuntimeClass@@XZ @ 7144 NONAME
 ?GetThisClass@CMDIChildWndEx@@SGPAUCRuntimeClass@@XZ @ 7145 NONAME
 ?GetThisClass@CMDIClientAreaWnd@@SGPAUCRuntimeClass@@XZ @ 7146 NONAME
 ?GetThisClass@CMDIFrameWnd@@SGPAUCRuntimeClass@@XZ @ 7147 NONAME
 ?GetThisClass@CMDIFrameWndEx@@SGPAUCRuntimeClass@@XZ @ 7148 NONAME
 ?GetThisClass@CMDITabProxyWnd@@SGPAUCRuntimeClass@@XZ @ 7149 NONAME
 ?GetThisClass@CMemFile@@SGPAUCRuntimeClass@@XZ @ 7150 NONAME
 ?GetThisClass@CMemoryException@@SGPAUCRuntimeClass@@XZ @ 7151 NONAME
 ?GetThisClass@CMenu@@SGPAUCRuntimeClass@@XZ @ 7152 NONAME
 ?GetThisClass@CMetaFileDC@@SGPAUCRuntimeClass@@XZ @ 7153 NONAME
 ?GetThisClass@CMFCAutoHideBar@@SGPAUCRuntimeClass@@XZ @ 7154 NONAME
 ?GetThisClass@CMFCAutoHideButton@@SGPAUCRuntimeClass@@XZ @ 7155 NONAME
 ?GetThisClass@CMFCBaseAccessibleObject@@SGPAUCRuntimeClass@@XZ @ 7156 NONAME
 ?GetThisClass@CMFCBaseTabCtrl@@SGPAUCRuntimeClass@@XZ @ 7157 NONAME
 ?GetThisClass@CMFCBaseToolBar@@SGPAUCRuntimeClass@@XZ @ 7158 NONAME
 ?GetThisClass@CMFCButton@@SGPAUCRuntimeClass@@XZ @ 7159 NONAME
 ?GetThisClass@CMFCCaptionBar@@SGPAUCRuntimeClass@@XZ @ 7160 NONAME
 ?GetThisClass@CMFCColorBar@@SGPAUCRuntimeClass@@XZ @ 7161 NONAME
 ?GetThisClass@CMFCColorButton@@SGPAUCRuntimeClass@@XZ @ 7162 NONAME
 ?GetThisClass@CMFCColorMenuButton@@SGPAUCRuntimeClass@@XZ @ 7163 NONAME
 ?GetThisClass@CMFCColorPopupMenu@@SGPAUCRuntimeClass@@XZ @ 7164 NONAME
 ?GetThisClass@CMFCColorPropertySheet@@SGPAUCRuntimeClass@@XZ @ 7165 NONAME
 ?GetThisClass@CMFCControlRenderer@@SGPAUCRuntimeClass@@XZ @ 7166 NONAME
 ?GetThisClass@CMFCCustomColorsPropertyPage@@SGPAUCRuntimeClass@@XZ @ 7167 NONAME
 ?GetThisClass@CMFCCustomizeButton@@SGPAUCRuntimeClass@@XZ @ 7168 NONAME
 ?GetThisClass@CMFCCustomizeMenuButton@@SGPAUCRuntimeClass@@XZ @ 7169 NONAME
 ?GetThisClass@CMFCDesktopAlertDialog@@SGPAUCRuntimeClass@@XZ @ 7170 NONAME
 ?GetThisClass@CMFCDesktopAlertWnd@@SGPAUCRuntimeClass@@XZ @ 7171 NONAME
 ?GetThisClass@CMFCDropDownFrame@@SGPAUCRuntimeClass@@XZ @ 7172 NONAME
 ?GetThisClass@CMFCDropDownListBox@@SGPAUCRuntimeClass@@XZ @ 7173 NONAME
 ?GetThisClass@CMFCDropDownToolBar@@SGPAUCRuntimeClass@@XZ @ 7174 NONAME
 ?GetThisClass@CMFCDropDownToolbarButton@@SGPAUCRuntimeClass@@XZ @ 7175 NONAME
 ?GetThisClass@CMFCEditBrowseCtrl@@SGPAUCRuntimeClass@@XZ @ 7176 NONAME
 ?GetThisClass@CMFCHeaderCtrl@@SGPAUCRuntimeClass@@XZ @ 7177 NONAME
 ?GetThisClass@CMFCLinkCtrl@@SGPAUCRuntimeClass@@XZ @ 7178 NONAME
 ?GetThisClass@CMFCListCtrl@@SGPAUCRuntimeClass@@XZ @ 7179 NONAME
 ?GetThisClass@CMFCMaskedEdit@@SGPAUCRuntimeClass@@XZ @ 7180 NONAME
 ?GetThisClass@CMFCMenuBar@@SGPAUCRuntimeClass@@XZ @ 7181 NONAME
 ?GetThisClass@CMFCMenuButton@@SGPAUCRuntimeClass@@XZ @ 7182 NONAME
 ?GetThisClass@CMFCMousePropertyPage@@SGPAUCRuntimeClass@@XZ @ 7183 NONAME
 ?GetThisClass@CMFCOutlookBar@@SGPAUCRuntimeClass@@XZ @ 7184 NONAME
 ?GetThisClass@CMFCOutlookBarPane@@SGPAUCRuntimeClass@@XZ @ 7185 NONAME
 ?GetThisClass@CMFCOutlookBarPaneAdapter@@SGPAUCRuntimeClass@@XZ @ 7186 NONAME
 ?GetThisClass@CMFCOutlookBarPaneButton@@SGPAUCRuntimeClass@@XZ @ 7187 NONAME
 ?GetThisClass@CMFCOutlookBarTabCtrl@@SGPAUCRuntimeClass@@XZ @ 7188 NONAME
 ?GetThisClass@CMFCOutlookBarToolBar@@SGPAUCRuntimeClass@@XZ @ 7189 NONAME
 ?GetThisClass@CMFCPopupMenu@@SGPAUCRuntimeClass@@XZ @ 7190 NONAME
 ?GetThisClass@CMFCPopupMenuBar@@SGPAUCRuntimeClass@@XZ @ 7191 NONAME
 ?GetThisClass@CMFCPreviewCtrlImpl@@SGPAUCRuntimeClass@@XZ @ 7192 NONAME
 ?GetThisClass@CMFCPrintPreviewToolBar@@SGPAUCRuntimeClass@@XZ @ 7193 NONAME
 ?GetThisClass@CMFCPropertyGridColorProperty@@SGPAUCRuntimeClass@@XZ @ 7194 NONAME
 ?GetThisClass@CMFCPropertyGridCtrl@@SGPAUCRuntimeClass@@XZ @ 7195 NONAME
 ?GetThisClass@CMFCPropertyGridFileProperty@@SGPAUCRuntimeClass@@XZ @ 7196 NONAME
 ?GetThisClass@CMFCPropertyGridFontProperty@@SGPAUCRuntimeClass@@XZ @ 7197 NONAME
 ?GetThisClass@CMFCPropertyGridProperty@@SGPAUCRuntimeClass@@XZ @ 7198 NONAME
 ?GetThisClass@CMFCPropertyGridToolTipCtrl@@SGPAUCRuntimeClass@@XZ @ 7199 NONAME
 ?GetThisClass@CMFCPropertyPage@@SGPAUCRuntimeClass@@XZ @ 7200 NONAME
 ?GetThisClass@CMFCPropertySheet@@SGPAUCRuntimeClass@@XZ @ 7201 NONAME
 ?GetThisClass@CMFCPropertySheetCategoryInfo@@SGPAUCRuntimeClass@@XZ @ 7202 NONAME
 ?GetThisClass@CMFCReBar@@SGPAUCRuntimeClass@@XZ @ 7203 NONAME
 ?GetThisClass@CMFCRibbonApplicationButton@@SGPAUCRuntimeClass@@XZ @ 7204 NONAME
 ?GetThisClass@CMFCRibbonBar@@SGPAUCRuntimeClass@@XZ @ 7205 NONAME
 ?GetThisClass@CMFCRibbonBaseElement@@SGPAUCRuntimeClass@@XZ @ 7206 NONAME
 ?GetThisClass@CMFCRibbonButton@@SGPAUCRuntimeClass@@XZ @ 7207 NONAME
 ?GetThisClass@CMFCRibbonButtonsGroup@@SGPAUCRuntimeClass@@XZ @ 7208 NONAME
 ?GetThisClass@CMFCRibbonCaptionButton@@SGPAUCRuntimeClass@@XZ @ 7209 NONAME
 ?GetThisClass@CMFCRibbonCategory@@SGPAUCRuntimeClass@@XZ @ 7210 NONAME
 ?GetThisClass@CMFCRibbonCheckBox@@SGPAUCRuntimeClass@@XZ @ 7211 NONAME
 ?GetThisClass@CMFCRibbonColorButton@@SGPAUCRuntimeClass@@XZ @ 7212 NONAME
 ?GetThisClass@CMFCRibbonColorMenuButton@@SGPAUCRuntimeClass@@XZ @ 7213 NONAME
 ?GetThisClass@CMFCRibbonComboBox@@SGPAUCRuntimeClass@@XZ @ 7214 NONAME
 ?GetThisClass@CMFCRibbonContextCaption@@SGPAUCRuntimeClass@@XZ @ 7215 NONAME
 ?GetThisClass@CMFCRibbonCustomizeCategory@@SGPAUCRuntimeClass@@XZ @ 7216 NONAME
 ?GetThisClass@CMFCRibbonCustomizeDialog@@SGPAUCRuntimeClass@@XZ @ 7217 NONAME
 ?GetThisClass@CMFCRibbonCustomizePropertyPage@@SGPAUCRuntimeClass@@XZ @ 7218 NONAME
 ?GetThisClass@CMFCRibbonDefaultPanelButton@@SGPAUCRuntimeClass@@XZ @ 7219 NONAME
 ?GetThisClass@CMFCRibbonEdit@@SGPAUCRuntimeClass@@XZ @ 7220 NONAME
 ?GetThisClass@CMFCRibbonFontComboBox@@SGPAUCRuntimeClass@@XZ @ 7221 NONAME
 ?GetThisClass@CMFCRibbonGallery@@SGPAUCRuntimeClass@@XZ @ 7222 NONAME
 ?GetThisClass@CMFCRibbonGalleryIcon@@SGPAUCRuntimeClass@@XZ @ 7223 NONAME
 ?GetThisClass@CMFCRibbonGalleryMenuButton@@SGPAUCRuntimeClass@@XZ @ 7224 NONAME
 ?GetThisClass@CMFCRibbonLabel@@SGPAUCRuntimeClass@@XZ @ 7225 NONAME
 ?GetThisClass@CMFCRibbonLaunchButton@@SGPAUCRuntimeClass@@XZ @ 7226 NONAME
 ?GetThisClass@CMFCRibbonLinkCtrl@@SGPAUCRuntimeClass@@XZ @ 7227 NONAME
 ?GetThisClass@CMFCRibbonMainPanel@@SGPAUCRuntimeClass@@XZ @ 7228 NONAME
 ?GetThisClass@CMFCRibbonMainPanelButton@@SGPAUCRuntimeClass@@XZ @ 7229 NONAME
 ?GetThisClass@CMFCRibbonMiniToolBar@@SGPAUCRuntimeClass@@XZ @ 7230 NONAME
 ?GetThisClass@CMFCRibbonPanel@@SGPAUCRuntimeClass@@XZ @ 7231 NONAME
 ?GetThisClass@CMFCRibbonPanelMenu@@SGPAUCRuntimeClass@@XZ @ 7232 NONAME
 ?GetThisClass@CMFCRibbonPanelMenuBar@@SGPAUCRuntimeClass@@XZ @ 7233 NONAME
 ?GetThisClass@CMFCRibbonProgressBar@@SGPAUCRuntimeClass@@XZ @ 7234 NONAME
 ?GetThisClass@CMFCRibbonQuickAccessCustomizeButton@@SGPAUCRuntimeClass@@XZ @ 7235 NONAME
 ?GetThisClass@CMFCRibbonQuickAccessToolBar@@SGPAUCRuntimeClass@@XZ @ 7236 NONAME
 ?GetThisClass@CMFCRibbonRecentFilesList@@SGPAUCRuntimeClass@@XZ @ 7237 NONAME
 ?GetThisClass@CMFCRibbonRichEditCtrl@@SGPAUCRuntimeClass@@XZ @ 7238 NONAME
 ?GetThisClass@CMFCRibbonSeparator@@SGPAUCRuntimeClass@@XZ @ 7239 NONAME
 ?GetThisClass@CMFCRibbonSlider@@SGPAUCRuntimeClass@@XZ @ 7240 NONAME
 ?GetThisClass@CMFCRibbonStatusBar@@SGPAUCRuntimeClass@@XZ @ 7241 NONAME
 ?GetThisClass@CMFCRibbonStatusBarCustomizeButton@@SGPAUCRuntimeClass@@XZ @ 7242 NONAME
 ?GetThisClass@CMFCRibbonStatusBarPane@@SGPAUCRuntimeClass@@XZ @ 7243 NONAME
 ?GetThisClass@CMFCRibbonTab@@SGPAUCRuntimeClass@@XZ @ 7244 NONAME
 ?GetThisClass@CMFCRibbonTabsGroup@@SGPAUCRuntimeClass@@XZ @ 7245 NONAME
 ?GetThisClass@CMFCRibbonUndoButton@@SGPAUCRuntimeClass@@XZ @ 7246 NONAME
 ?GetThisClass@CMFCShadowRenderer@@SGPAUCRuntimeClass@@XZ @ 7247 NONAME
 ?GetThisClass@CMFCShellListCtrl@@SGPAUCRuntimeClass@@XZ @ 7248 NONAME
 ?GetThisClass@CMFCShellTreeCtrl@@SGPAUCRuntimeClass@@XZ @ 7249 NONAME
 ?GetThisClass@CMFCShowAllButton@@SGPAUCRuntimeClass@@XZ @ 7250 NONAME
 ?GetThisClass@CMFCStandardColorsPropertyPage@@SGPAUCRuntimeClass@@XZ @ 7251 NONAME
 ?GetThisClass@CMFCStatusBar@@SGPAUCRuntimeClass@@XZ @ 7252 NONAME
 ?GetThisClass@CMFCTabCtrl@@SGPAUCRuntimeClass@@XZ @ 7253 NONAME
 ?GetThisClass@CMFCTasksPane@@SGPAUCRuntimeClass@@XZ @ 7254 NONAME
 ?GetThisClass@CMFCTasksPaneFrameWnd@@SGPAUCRuntimeClass@@XZ @ 7255 NONAME
 ?GetThisClass@CMFCTasksPaneToolBar@@SGPAUCRuntimeClass@@XZ @ 7256 NONAME
 ?GetThisClass@CMFCToolBar@@SGPAUCRuntimeClass@@XZ @ 7257 NONAME
 ?GetThisClass@CMFCToolBarButton@@SGPAUCRuntimeClass@@XZ @ 7258 NONAME
 ?GetThisClass@CMFCToolBarColorButton@@SGPAUCRuntimeClass@@XZ @ 7259 NONAME
 ?GetThisClass@CMFCToolBarComboBoxButton@@SGPAUCRuntimeClass@@XZ @ 7260 NONAME
 ?GetThisClass@CMFCToolBarDateTimeCtrl@@SGPAUCRuntimeClass@@XZ @ 7261 NONAME
 ?GetThisClass@CMFCToolBarEditBoxButton@@SGPAUCRuntimeClass@@XZ @ 7262 NONAME
 ?GetThisClass@CMFCToolBarFontComboBox@@SGPAUCRuntimeClass@@XZ @ 7263 NONAME
 ?GetThisClass@CMFCToolBarFontSizeComboBox@@SGPAUCRuntimeClass@@XZ @ 7264 NONAME
 ?GetThisClass@CMFCToolBarMenuButton@@SGPAUCRuntimeClass@@XZ @ 7265 NONAME
 ?GetThisClass@CMFCToolBarMenuButtonsButton@@SGPAUCRuntimeClass@@XZ @ 7266 NONAME
 ?GetThisClass@CMFCToolBarsCommandsPropertyPage@@SGPAUCRuntimeClass@@XZ @ 7267 NONAME
 ?GetThisClass@CMFCToolBarsCustomizeDialog@@SGPAUCRuntimeClass@@XZ @ 7268 NONAME
 ?GetThisClass@CMFCToolBarsKeyboardPropertyPage@@SGPAUCRuntimeClass@@XZ @ 7269 NONAME
 ?GetThisClass@CMFCToolBarsListPropertyPage@@SGPAUCRuntimeClass@@XZ @ 7270 NONAME
 ?GetThisClass@CMFCToolBarsMenuPropertyPage@@SGPAUCRuntimeClass@@XZ @ 7271 NONAME
 ?GetThisClass@CMFCToolBarsOptionsPropertyPage@@SGPAUCRuntimeClass@@XZ @ 7272 NONAME
 ?GetThisClass@CMFCToolBarSpinEditBoxButton@@SGPAUCRuntimeClass@@XZ @ 7273 NONAME
 ?GetThisClass@CMFCToolBarSystemMenuButton@@SGPAUCRuntimeClass@@XZ @ 7274 NONAME
 ?GetThisClass@CMFCToolTipCtrl@@SGPAUCRuntimeClass@@XZ @ 7275 NONAME
 ?GetThisClass@CMFCVisualManager@@SGPAUCRuntimeClass@@XZ @ 7276 NONAME
 ?GetThisClass@CMFCVisualManagerOffice2003@@SGPAUCRuntimeClass@@XZ @ 7277 NONAME
 ?GetThisClass@CMFCVisualManagerOffice2007@@SGPAUCRuntimeClass@@XZ @ 7278 NONAME
 ?GetThisClass@CMFCVisualManagerOfficeXP@@SGPAUCRuntimeClass@@XZ @ 7279 NONAME
 ?GetThisClass@CMFCVisualManagerVS2005@@SGPAUCRuntimeClass@@XZ @ 7280 NONAME
 ?GetThisClass@CMFCVisualManagerVS2008@@SGPAUCRuntimeClass@@XZ @ 7281 NONAME
 ?GetThisClass@CMFCVisualManagerWindows@@SGPAUCRuntimeClass@@XZ @ 7282 NONAME
 ?GetThisClass@CMFCVisualManagerWindows7@@SGPAUCRuntimeClass@@XZ @ 7283 NONAME
 ?GetThisClass@CMiniDockFrameWnd@@SGPAUCRuntimeClass@@XZ @ 7284 NONAME
 ?GetThisClass@CMiniFrameWnd@@SGPAUCRuntimeClass@@XZ @ 7285 NONAME
 ?GetThisClass@CMonikerFile@@SGPAUCRuntimeClass@@XZ @ 7286 NONAME
 ?GetThisClass@CMonthCalCtrl@@SGPAUCRuntimeClass@@XZ @ 7287 NONAME
 ?GetThisClass@CMouseManager@@SGPAUCRuntimeClass@@XZ @ 7288 NONAME
 ?GetThisClass@CMultiDocTemplate@@SGPAUCRuntimeClass@@XZ @ 7289 NONAME
 ?GetThisClass@CMultiPageDHtmlDialog@@SGPAUCRuntimeClass@@XZ @ 7290 NONAME
 ?GetThisClass@CMultiPaneFrameWnd@@SGPAUCRuntimeClass@@XZ @ 7291 NONAME
 ?GetThisClass@CMutex@@SGPAUCRuntimeClass@@XZ @ 7292 NONAME
 ?GetThisClass@CNotSupportedException@@SGPAUCRuntimeClass@@XZ @ 7293 NONAME
 ?GetThisClass@CObArray@@SGPAUCRuntimeClass@@XZ @ 7294 NONAME
 ?GetThisClass@CObject@@SGPAUCRuntimeClass@@XZ @ 7295 NONAME
 ?GetThisClass@CObList@@SGPAUCRuntimeClass@@XZ @ 7296 NONAME
 ?GetThisClass@COleBusyDialog@@SGPAUCRuntimeClass@@XZ @ 7297 NONAME
 ?GetThisClass@COleChangeIconDialog@@SGPAUCRuntimeClass@@XZ @ 7298 NONAME
 ?GetThisClass@COleChangeSourceDialog@@SGPAUCRuntimeClass@@XZ @ 7299 NONAME
 ?GetThisClass@COleClientItem@@SGPAUCRuntimeClass@@XZ @ 7300 NONAME
 ?GetThisClass@COleCntrFrameWndEx@@SGPAUCRuntimeClass@@XZ @ 7301 NONAME
 ?GetThisClass@COleControl@@SGPAUCRuntimeClass@@XZ @ 7302 NONAME
 ?GetThisClass@COleControlModule@@SGPAUCRuntimeClass@@XZ @ 7303 NONAME
 ?GetThisClass@COleConvertDialog@@SGPAUCRuntimeClass@@XZ @ 7304 NONAME
 ?GetThisClass@COleDBRecordView@@SGPAUCRuntimeClass@@XZ @ 7305 NONAME
 ?GetThisClass@COleDialog@@SGPAUCRuntimeClass@@XZ @ 7306 NONAME
 ?GetThisClass@COleDispatchException@@SGPAUCRuntimeClass@@XZ @ 7307 NONAME
 ?GetThisClass@COleDocIPFrameWnd@@SGPAUCRuntimeClass@@XZ @ 7308 NONAME
 ?GetThisClass@COleDocIPFrameWndEx@@SGPAUCRuntimeClass@@XZ @ 7309 NONAME
 ?GetThisClass@COleDocObjectItem@@SGPAUCRuntimeClass@@XZ @ 7310 NONAME
 ?GetThisClass@COleDocument@@SGPAUCRuntimeClass@@XZ @ 7311 NONAME
 ?GetThisClass@COleException@@SGPAUCRuntimeClass@@XZ @ 7312 NONAME
 ?GetThisClass@COleInsertDialog@@SGPAUCRuntimeClass@@XZ @ 7313 NONAME
 ?GetThisClass@COleIPFrameWnd@@SGPAUCRuntimeClass@@XZ @ 7314 NONAME
 ?GetThisClass@COleIPFrameWndEx@@SGPAUCRuntimeClass@@XZ @ 7315 NONAME
 ?GetThisClass@COleLinkingDoc@@SGPAUCRuntimeClass@@XZ @ 7316 NONAME
 ?GetThisClass@COleLinksDialog@@SGPAUCRuntimeClass@@XZ @ 7317 NONAME
 ?GetThisClass@COleObjectFactory@@SGPAUCRuntimeClass@@XZ @ 7318 NONAME
 ?GetThisClass@COlePasteSpecialDialog@@SGPAUCRuntimeClass@@XZ @ 7319 NONAME
 ?GetThisClass@COlePropertiesDialog@@SGPAUCRuntimeClass@@XZ @ 7320 NONAME
 ?GetThisClass@COlePropertyPage@@SGPAUCRuntimeClass@@XZ @ 7321 NONAME
 ?GetThisClass@COleResizeBar@@SGPAUCRuntimeClass@@XZ @ 7322 NONAME
 ?GetThisClass@COleServerDoc@@SGPAUCRuntimeClass@@XZ @ 7323 NONAME
 ?GetThisClass@COleServerDocEx@@SGPAUCRuntimeClass@@XZ @ 7324 NONAME
 ?GetThisClass@COleServerItem@@SGPAUCRuntimeClass@@XZ @ 7325 NONAME
 ?GetThisClass@COleStreamFile@@SGPAUCRuntimeClass@@XZ @ 7326 NONAME
 ?GetThisClass@COleUpdateDialog@@SGPAUCRuntimeClass@@XZ @ 7327 NONAME
 ?GetThisClass@COutlookCustomizeButton@@SGPAUCRuntimeClass@@XZ @ 7328 NONAME
 ?GetThisClass@CPagerCtrl@@SGPAUCRuntimeClass@@XZ @ 7329 NONAME
 ?GetThisClass@CPageSetupDialog@@SGPAUCRuntimeClass@@XZ @ 7330 NONAME
 ?GetThisClass@CPaintDC@@SGPAUCRuntimeClass@@XZ @ 7331 NONAME
 ?GetThisClass@CPalette@@SGPAUCRuntimeClass@@XZ @ 7332 NONAME
 ?GetThisClass@CPane@@SGPAUCRuntimeClass@@XZ @ 7333 NONAME
 ?GetThisClass@CPaneContainer@@SGPAUCRuntimeClass@@XZ @ 7334 NONAME
 ?GetThisClass@CPaneContainerManager@@SGPAUCRuntimeClass@@XZ @ 7335 NONAME
 ?GetThisClass@CPaneDialog@@SGPAUCRuntimeClass@@XZ @ 7336 NONAME
 ?GetThisClass@CPaneDivider@@SGPAUCRuntimeClass@@XZ @ 7337 NONAME
 ?GetThisClass@CPaneFrameWnd@@SGPAUCRuntimeClass@@XZ @ 7338 NONAME
 ?GetThisClass@CPen@@SGPAUCRuntimeClass@@XZ @ 7339 NONAME
 ?GetThisClass@CPreviewDC@@SGPAUCRuntimeClass@@XZ @ 7340 NONAME
 ?GetThisClass@CPreviewView@@SGPAUCRuntimeClass@@XZ @ 7341 NONAME
 ?GetThisClass@CPreviewViewEx@@SGPAUCRuntimeClass@@XZ @ 7342 NONAME
 ?GetThisClass@CPrintDialog@@SGPAUCRuntimeClass@@XZ @ 7343 NONAME
 ?GetThisClass@CPrintDialogEx@@SGPAUCRuntimeClass@@XZ @ 7344 NONAME
 ?GetThisClass@CProgressCtrl@@SGPAUCRuntimeClass@@XZ @ 7345 NONAME
 ?GetThisClass@CPropertyPage@@SGPAUCRuntimeClass@@XZ @ 7346 NONAME
 ?GetThisClass@CPropertySheet@@SGPAUCRuntimeClass@@XZ @ 7347 NONAME
 ?GetThisClass@CPtrArray@@SGPAUCRuntimeClass@@XZ @ 7348 NONAME
 ?GetThisClass@CPtrList@@SGPAUCRuntimeClass@@XZ @ 7349 NONAME
 ?GetThisClass@CReBar@@SGPAUCRuntimeClass@@XZ @ 7350 NONAME
 ?GetThisClass@CReBarCtrl@@SGPAUCRuntimeClass@@XZ @ 7351 NONAME
 ?GetThisClass@CRecordset@@SGPAUCRuntimeClass@@XZ @ 7352 NONAME
 ?GetThisClass@CRecordView@@SGPAUCRuntimeClass@@XZ @ 7353 NONAME
 ?GetThisClass@CRenderTarget@@SGPAUCRuntimeClass@@XZ @ 7354 NONAME
 ?GetThisClass@CResourceException@@SGPAUCRuntimeClass@@XZ @ 7355 NONAME
 ?GetThisClass@CRgn@@SGPAUCRuntimeClass@@XZ @ 7356 NONAME
 ?GetThisClass@CRibbonUndoLabel@@SGPAUCRuntimeClass@@XZ @ 7357 NONAME
 ?GetThisClass@CRichEditCntrItem@@SGPAUCRuntimeClass@@XZ @ 7358 NONAME
 ?GetThisClass@CRichEditCtrl@@SGPAUCRuntimeClass@@XZ @ 7359 NONAME
 ?GetThisClass@CRichEditDoc@@SGPAUCRuntimeClass@@XZ @ 7360 NONAME
 ?GetThisClass@CRichEditView@@SGPAUCRuntimeClass@@XZ @ 7361 NONAME
 ?GetThisClass@CScrollBar@@SGPAUCRuntimeClass@@XZ @ 7362 NONAME
 ?GetThisClass@CScrollView@@SGPAUCRuntimeClass@@XZ @ 7363 NONAME
 ?GetThisClass@CSemaphore@@SGPAUCRuntimeClass@@XZ @ 7364 NONAME
 ?GetThisClass@CSettingsStore@@SGPAUCRuntimeClass@@XZ @ 7365 NONAME
 ?GetThisClass@CSharedFile@@SGPAUCRuntimeClass@@XZ @ 7366 NONAME
 ?GetThisClass@CSimpleException@@SGPAUCRuntimeClass@@XZ @ 7367 NONAME
 ?GetThisClass@CSingleDocTemplate@@SGPAUCRuntimeClass@@XZ @ 7368 NONAME
 ?GetThisClass@CSliderCtrl@@SGPAUCRuntimeClass@@XZ @ 7369 NONAME
 ?GetThisClass@CSmartDockingGroupGuidesManager@@SGPAUCRuntimeClass@@XZ @ 7370 NONAME
 ?GetThisClass@CSmartDockingStandaloneGuide@@SGPAUCRuntimeClass@@XZ @ 7371 NONAME
 ?GetThisClass@CSocket@@SGPAUCRuntimeClass@@XZ @ 7372 NONAME
 ?GetThisClass@CSocketFile@@SGPAUCRuntimeClass@@XZ @ 7373 NONAME
 ?GetThisClass@CSpinButtonCtrl@@SGPAUCRuntimeClass@@XZ @ 7374 NONAME
 ?GetThisClass@CSplitterWnd@@SGPAUCRuntimeClass@@XZ @ 7375 NONAME
 ?GetThisClass@CSplitterWndEx@@SGPAUCRuntimeClass@@XZ @ 7376 NONAME
 ?GetThisClass@CStatic@@SGPAUCRuntimeClass@@XZ @ 7377 NONAME
 ?GetThisClass@CStatusBar@@SGPAUCRuntimeClass@@XZ @ 7378 NONAME
 ?GetThisClass@CStatusBarCtrl@@SGPAUCRuntimeClass@@XZ @ 7379 NONAME
 ?GetThisClass@CStdioFile@@SGPAUCRuntimeClass@@XZ @ 7380 NONAME
 ?GetThisClass@CStringArray@@SGPAUCRuntimeClass@@XZ @ 7381 NONAME
 ?GetThisClass@CStringList@@SGPAUCRuntimeClass@@XZ @ 7382 NONAME
 ?GetThisClass@CSyncObject@@SGPAUCRuntimeClass@@XZ @ 7383 NONAME
 ?GetThisClass@CTabbedPane@@SGPAUCRuntimeClass@@XZ @ 7384 NONAME
 ?GetThisClass@CTabCtrl@@SGPAUCRuntimeClass@@XZ @ 7385 NONAME
 ?GetThisClass@CTabView@@SGPAUCRuntimeClass@@XZ @ 7386 NONAME
 ?GetThisClass@CTasksPaneHistoryButton@@SGPAUCRuntimeClass@@XZ @ 7387 NONAME
 ?GetThisClass@CTasksPaneMenuButton@@SGPAUCRuntimeClass@@XZ @ 7388 NONAME
 ?GetThisClass@CTasksPaneNavigateButton@@SGPAUCRuntimeClass@@XZ @ 7389 NONAME
 ?GetThisClass@CToolBar@@SGPAUCRuntimeClass@@XZ @ 7390 NONAME
 ?GetThisClass@CToolBarCtrl@@SGPAUCRuntimeClass@@XZ @ 7391 NONAME
 ?GetThisClass@CToolTipCtrl@@SGPAUCRuntimeClass@@XZ @ 7392 NONAME
 ?GetThisClass@CTreeCtrl@@SGPAUCRuntimeClass@@XZ @ 7393 NONAME
 ?GetThisClass@CTreeView@@SGPAUCRuntimeClass@@XZ @ 7394 NONAME
 ?GetThisClass@CUIntArray@@SGPAUCRuntimeClass@@XZ @ 7395 NONAME
 ?GetThisClass@CUserException@@SGPAUCRuntimeClass@@XZ @ 7396 NONAME
 ?GetThisClass@CUserTool@@SGPAUCRuntimeClass@@XZ @ 7397 NONAME
 ?GetThisClass@CView@@SGPAUCRuntimeClass@@XZ @ 7398 NONAME
 ?GetThisClass@CVSListBox@@SGPAUCRuntimeClass@@XZ @ 7399 NONAME
 ?GetThisClass@CVSListBoxBase@@SGPAUCRuntimeClass@@XZ @ 7400 NONAME
 ?GetThisClass@CVSListBoxEditCtrl@@SGPAUCRuntimeClass@@XZ @ 7401 NONAME
 ?GetThisClass@CWinApp@@SGPAUCRuntimeClass@@XZ @ 7402 NONAME
 ?GetThisClass@CWinAppEx@@SGPAUCRuntimeClass@@XZ @ 7403 NONAME
 ?GetThisClass@CWindowDC@@SGPAUCRuntimeClass@@XZ @ 7404 NONAME
 ?GetThisClass@CWindowlessDC@@SGPAUCRuntimeClass@@XZ @ 7405 NONAME
 ?GetThisClass@CWinThread@@SGPAUCRuntimeClass@@XZ @ 7406 NONAME
 ?GetThisClass@CWnd@@SGPAUCRuntimeClass@@XZ @ 7407 NONAME
 ?GetThisClass@CWordArray@@SGPAUCRuntimeClass@@XZ @ 7408 NONAME
 ?GetThisCommandMap@CCmdTarget@@KGPBUAFX_OLECMDMAP@@XZ @ 7409 NONAME
 ?GetThisCommandMap@COleDocObjectItem@@KGPBUAFX_OLECMDMAP@@XZ @ 7410 NONAME
 ?GetThisConnectionMap@CCmdTarget@@KGPBUAFX_CONNECTIONMAP@@XZ @ 7411 NONAME
 ?GetThisConnectionMap@COleControl@@KGPBUAFX_CONNECTIONMAP@@XZ @ 7412 NONAME
 ?GetThisDispatchMap@CCmdTarget@@KGPBUAFX_DISPMAP@@XZ @ 7413 NONAME
 ?GetThisDispatchMap@COleControlContainer@@KGPBUAFX_DISPMAP@@XZ @ 7414 NONAME
 ?GetThisEventMap@COleControl@@KGPBUAFX_EVENTMAP@@XZ @ 7415 NONAME
 ?GetThisEventSinkMap@CCmdTarget@@KGPBUAFX_EVENTSINKMAP@@XZ @ 7416 NONAME
 ?GetThisEventSinkMap@CDHtmlDialog@@KGPBUAFX_EVENTSINKMAP@@XZ @ 7417 NONAME
 ?GetThisEventSinkMap@CHtmlEditCtrl@@KGPBUAFX_EVENTSINKMAP@@XZ @ 7418 NONAME
 ?GetThisEventSinkMap@CHtmlView@@KGPBUAFX_EVENTSINKMAP@@XZ @ 7419 NONAME
 ?GetThisInterfaceMap@CCmdTarget@@KGPBUAFX_INTERFACEMAP@@XZ @ 7420 NONAME
 ?GetThisInterfaceMap@CDocObjectServer@@KGPBUAFX_INTERFACEMAP@@XZ @ 7421 NONAME
 ?GetThisInterfaceMap@CDocument@@KGPBUAFX_INTERFACEMAP@@XZ @ 7422 NONAME
 ?GetThisInterfaceMap@CEnumConnections@@KGPBUAFX_INTERFACEMAP@@XZ @ 7423 NONAME
 ?GetThisInterfaceMap@CEnumConnPoints@@KGPBUAFX_INTERFACEMAP@@XZ @ 7424 NONAME
 ?GetThisInterfaceMap@CEnumFormatEtc@@KGPBUAFX_INTERFACEMAP@@XZ @ 7425 NONAME
 ?GetThisInterfaceMap@CEnumOleVerb@@KGPBUAFX_INTERFACEMAP@@XZ @ 7426 NONAME
 ?GetThisInterfaceMap@CEnumUnknown@@KGPBUAFX_INTERFACEMAP@@XZ @ 7427 NONAME
 ?GetThisInterfaceMap@CFileDialog@@KGPBUAFX_INTERFACEMAP@@XZ @ 7428 NONAME
 ?GetThisInterfaceMap@CHtmlControlSite@@KGPBUAFX_INTERFACEMAP@@XZ @ 7429 NONAME
 ?GetThisInterfaceMap@CMFCBaseAccessibleObject@@KGPBUAFX_INTERFACEMAP@@XZ @ 7430 NONAME
 ?GetThisInterfaceMap@COleClientItem@@KGPBUAFX_INTERFACEMAP@@XZ @ 7431 NONAME
 ?GetThisInterfaceMap@COleControl@@KGPBUAFX_INTERFACEMAP@@XZ @ 7432 NONAME
 ?GetThisInterfaceMap@COleControlContainer@@KGPBUAFX_INTERFACEMAP@@XZ @ 7433 NONAME
 ?GetThisInterfaceMap@COleControlSite@@KGPBUAFX_INTERFACEMAP@@XZ @ 7434 NONAME
 ?GetThisInterfaceMap@COleDataSource@@KGPBUAFX_INTERFACEMAP@@XZ @ 7435 NONAME
 ?GetThisInterfaceMap@COleDocObjectItem@@KGPBUAFX_INTERFACEMAP@@XZ @ 7436 NONAME
 ?GetThisInterfaceMap@COleDropSource@@KGPBUAFX_INTERFACEMAP@@XZ @ 7437 NONAME
 ?GetThisInterfaceMap@COleDropTarget@@KGPBUAFX_INTERFACEMAP@@XZ @ 7438 NONAME
 ?GetThisInterfaceMap@COleFrameHook@@KGPBUAFX_INTERFACEMAP@@XZ @ 7439 NONAME
 ?GetThisInterfaceMap@COleLinkingDoc@@KGPBUAFX_INTERFACEMAP@@XZ @ 7440 NONAME
 ?GetThisInterfaceMap@COleMessageFilter@@KGPBUAFX_INTERFACEMAP@@XZ @ 7441 NONAME
 ?GetThisInterfaceMap@COleObjectFactory@@KGPBUAFX_INTERFACEMAP@@XZ @ 7442 NONAME
 ?GetThisInterfaceMap@COlePropertyPage@@KGPBUAFX_INTERFACEMAP@@XZ @ 7443 NONAME
 ?GetThisInterfaceMap@COleServerDoc@@KGPBUAFX_INTERFACEMAP@@XZ @ 7444 NONAME
 ?GetThisInterfaceMap@COleServerItem@@KGPBUAFX_INTERFACEMAP@@XZ @ 7445 NONAME
 ?GetThisInterfaceMap@CRichEditView@@KGPBUAFX_INTERFACEMAP@@XZ @ 7446 NONAME
 ?GetThisInterfaceMap@CWnd@@KGPBUAFX_INTERFACEMAP@@XZ @ 7447 NONAME
 ?GetThisMessageMap@CAutoHideDockSite@@KGPBUAFX_MSGMAP@@XZ @ 7448 NONAME
 ?GetThisMessageMap@CBasePane@@KGPBUAFX_MSGMAP@@XZ @ 7449 NONAME
 ?GetThisMessageMap@CBaseTabbedPane@@KGPBUAFX_MSGMAP@@XZ @ 7450 NONAME
 ?GetThisMessageMap@CCheckListBox@@KGPBUAFX_MSGMAP@@XZ @ 7451 NONAME
 ?GetThisMessageMap@CCmdTarget@@KGPBUAFX_MSGMAP@@XZ @ 7452 NONAME
 ?GetThisMessageMap@CCommonDialog@@KGPBUAFX_MSGMAP@@XZ @ 7453 NONAME
 ?GetThisMessageMap@CControlBar@@KGPBUAFX_MSGMAP@@XZ @ 7454 NONAME
 ?GetThisMessageMap@CControlFrameWnd@@KGPBUAFX_MSGMAP@@XZ @ 7455 NONAME
 ?GetThisMessageMap@CCtrlView@@KGPBUAFX_MSGMAP@@XZ @ 7456 NONAME
 ?GetThisMessageMap@CDaoRecordView@@KGPBUAFX_MSGMAP@@XZ @ 7457 NONAME
 ?GetThisMessageMap@CDHtmlDialog@@KGPBUAFX_MSGMAP@@XZ @ 7458 NONAME
 ?GetThisMessageMap@CDialog@@KGPBUAFX_MSGMAP@@XZ @ 7459 NONAME
 ?GetThisMessageMap@CDialogBar@@KGPBUAFX_MSGMAP@@XZ @ 7460 NONAME
 ?GetThisMessageMap@CDialogEx@@KGPBUAFX_MSGMAP@@XZ @ 7461 NONAME
 ?GetThisMessageMap@CDockablePane@@KGPBUAFX_MSGMAP@@XZ @ 7462 NONAME
 ?GetThisMessageMap@CDockablePaneAdapter@@KGPBUAFX_MSGMAP@@XZ @ 7463 NONAME
 ?GetThisMessageMap@CDockBar@@KGPBUAFX_MSGMAP@@XZ @ 7464 NONAME
 ?GetThisMessageMap@CDockSite@@KGPBUAFX_MSGMAP@@XZ @ 7465 NONAME
 ?GetThisMessageMap@CDocObjectServer@@KGPBUAFX_MSGMAP@@XZ @ 7466 NONAME
 ?GetThisMessageMap@CDocument@@KGPBUAFX_MSGMAP@@XZ @ 7467 NONAME
 ?GetThisMessageMap@CDummyDockablePane@@KGPBUAFX_MSGMAP@@XZ @ 7468 NONAME
 ?GetThisMessageMap@CEditView@@KGPBUAFX_MSGMAP@@XZ @ 7469 NONAME
 ?GetThisMessageMap@CFormView@@KGPBUAFX_MSGMAP@@XZ @ 7470 NONAME
 ?GetThisMessageMap@CFrameWnd@@KGPBUAFX_MSGMAP@@XZ @ 7471 NONAME
 ?GetThisMessageMap@CFrameWndEx@@KGPBUAFX_MSGMAP@@XZ @ 7472 NONAME
 ?GetThisMessageMap@CHtmlEditView@@KGPBUAFX_MSGMAP@@XZ @ 7473 NONAME
 ?GetThisMessageMap@CHtmlView@@KGPBUAFX_MSGMAP@@XZ @ 7474 NONAME
 ?GetThisMessageMap@CListCtrl@@KGPBUAFX_MSGMAP@@XZ @ 7475 NONAME
 ?GetThisMessageMap@CListView@@KGPBUAFX_MSGMAP@@XZ @ 7476 NONAME
 ?GetThisMessageMap@CMDIChildWnd@@KGPBUAFX_MSGMAP@@XZ @ 7477 NONAME
 ?GetThisMessageMap@CMDIChildWndEx@@KGPBUAFX_MSGMAP@@XZ @ 7478 NONAME
 ?GetThisMessageMap@CMDIClientAreaWnd@@KGPBUAFX_MSGMAP@@XZ @ 7479 NONAME
 ?GetThisMessageMap@CMDIFrameWnd@@KGPBUAFX_MSGMAP@@XZ @ 7480 NONAME
 ?GetThisMessageMap@CMDIFrameWndEx@@KGPBUAFX_MSGMAP@@XZ @ 7481 NONAME
 ?GetThisMessageMap@CMDITabProxyWnd@@KGPBUAFX_MSGMAP@@XZ @ 7482 NONAME
 ?GetThisMessageMap@CMFCAcceleratorKeyAssignCtrl@@KGPBUAFX_MSGMAP@@XZ @ 7483 NONAME
 ?GetThisMessageMap@CMFCAutoHideBar@@KGPBUAFX_MSGMAP@@XZ @ 7484 NONAME
 ?GetThisMessageMap@CMFCBaseTabCtrl@@KGPBUAFX_MSGMAP@@XZ @ 7485 NONAME
 ?GetThisMessageMap@CMFCBaseToolBar@@KGPBUAFX_MSGMAP@@XZ @ 7486 NONAME
 ?GetThisMessageMap@CMFCButton@@KGPBUAFX_MSGMAP@@XZ @ 7487 NONAME
 ?GetThisMessageMap@CMFCCaptionBar@@KGPBUAFX_MSGMAP@@XZ @ 7488 NONAME
 ?GetThisMessageMap@CMFCColorBar@@KGPBUAFX_MSGMAP@@XZ @ 7489 NONAME
 ?GetThisMessageMap@CMFCColorButton@@KGPBUAFX_MSGMAP@@XZ @ 7490 NONAME
 ?GetThisMessageMap@CMFCColorDialog@@KGPBUAFX_MSGMAP@@XZ @ 7491 NONAME
 ?GetThisMessageMap@CMFCColorPickerCtrl@@KGPBUAFX_MSGMAP@@XZ @ 7492 NONAME
 ?GetThisMessageMap@CMFCColorPopupMenu@@KGPBUAFX_MSGMAP@@XZ @ 7493 NONAME
 ?GetThisMessageMap@CMFCColorPropertySheet@@KGPBUAFX_MSGMAP@@XZ @ 7494 NONAME
 ?GetThisMessageMap@CMFCCustomColorsPropertyPage@@KGPBUAFX_MSGMAP@@XZ @ 7495 NONAME
 ?GetThisMessageMap@CMFCDesktopAlertDialog@@KGPBUAFX_MSGMAP@@XZ @ 7496 NONAME
 ?GetThisMessageMap@CMFCDesktopAlertWnd@@KGPBUAFX_MSGMAP@@XZ @ 7497 NONAME
 ?GetThisMessageMap@CMFCDropDownFrame@@KGPBUAFX_MSGMAP@@XZ @ 7498 NONAME
 ?GetThisMessageMap@CMFCDropDownListBox@@KGPBUAFX_MSGMAP@@XZ @ 7499 NONAME
 ?GetThisMessageMap@CMFCDropDownToolBar@@KGPBUAFX_MSGMAP@@XZ @ 7500 NONAME
 ?GetThisMessageMap@CMFCEditBrowseCtrl@@KGPBUAFX_MSGMAP@@XZ @ 7501 NONAME
 ?GetThisMessageMap@CMFCFontComboBox@@KGPBUAFX_MSGMAP@@XZ @ 7502 NONAME
 ?GetThisMessageMap@CMFCHeaderCtrl@@KGPBUAFX_MSGMAP@@XZ @ 7503 NONAME
 ?GetThisMessageMap@CMFCImageEditorDialog@@KGPBUAFX_MSGMAP@@XZ @ 7504 NONAME
 ?GetThisMessageMap@CMFCImagePaintArea@@KGPBUAFX_MSGMAP@@XZ @ 7505 NONAME
 ?GetThisMessageMap@CMFCKeyMapDialog@@KGPBUAFX_MSGMAP@@XZ @ 7506 NONAME
 ?GetThisMessageMap@CMFCLinkCtrl@@KGPBUAFX_MSGMAP@@XZ @ 7507 NONAME
 ?GetThisMessageMap@CMFCListCtrl@@KGPBUAFX_MSGMAP@@XZ @ 7508 NONAME
 ?GetThisMessageMap@CMFCMaskedEdit@@KGPBUAFX_MSGMAP@@XZ @ 7509 NONAME
 ?GetThisMessageMap@CMFCMenuBar@@KGPBUAFX_MSGMAP@@XZ @ 7510 NONAME
 ?GetThisMessageMap@CMFCMenuButton@@KGPBUAFX_MSGMAP@@XZ @ 7511 NONAME
 ?GetThisMessageMap@CMFCMousePropertyPage@@KGPBUAFX_MSGMAP@@XZ @ 7512 NONAME
 ?GetThisMessageMap@CMFCOutlookBar@@KGPBUAFX_MSGMAP@@XZ @ 7513 NONAME
 ?GetThisMessageMap@CMFCOutlookBarPane@@KGPBUAFX_MSGMAP@@XZ @ 7514 NONAME
 ?GetThisMessageMap@CMFCOutlookBarPaneAdapter@@KGPBUAFX_MSGMAP@@XZ @ 7515 NONAME
 ?GetThisMessageMap@CMFCOutlookBarTabCtrl@@KGPBUAFX_MSGMAP@@XZ @ 7516 NONAME
 ?GetThisMessageMap@CMFCOutlookBarToolBar@@KGPBUAFX_MSGMAP@@XZ @ 7517 NONAME
 ?GetThisMessageMap@CMFCPopupMenu@@KGPBUAFX_MSGMAP@@XZ @ 7518 NONAME
 ?GetThisMessageMap@CMFCPopupMenuBar@@KGPBUAFX_MSGMAP@@XZ @ 7519 NONAME
 ?GetThisMessageMap@CMFCPreviewCtrlImpl@@KGPBUAFX_MSGMAP@@XZ @ 7520 NONAME
 ?GetThisMessageMap@CMFCPrintPreviewToolBar@@KGPBUAFX_MSGMAP@@XZ @ 7521 NONAME
 ?GetThisMessageMap@CMFCPropertyGridCtrl@@KGPBUAFX_MSGMAP@@XZ @ 7522 NONAME
 ?GetThisMessageMap@CMFCPropertyGridToolTipCtrl@@KGPBUAFX_MSGMAP@@XZ @ 7523 NONAME
 ?GetThisMessageMap@CMFCPropertyPage@@KGPBUAFX_MSGMAP@@XZ @ 7524 NONAME
 ?GetThisMessageMap@CMFCPropertySheet@@KGPBUAFX_MSGMAP@@XZ @ 7525 NONAME
 ?GetThisMessageMap@CMFCPropertySheetListBox@@KGPBUAFX_MSGMAP@@XZ @ 7526 NONAME
 ?GetThisMessageMap@CMFCReBar@@KGPBUAFX_MSGMAP@@XZ @ 7527 NONAME
 ?GetThisMessageMap@CMFCRibbonBar@@KGPBUAFX_MSGMAP@@XZ @ 7528 NONAME
 ?GetThisMessageMap@CMFCRibbonCommandsListBox@@KGPBUAFX_MSGMAP@@XZ @ 7529 NONAME
 ?GetThisMessageMap@CMFCRibbonCustomizePropertyPage@@KGPBUAFX_MSGMAP@@XZ @ 7530 NONAME
 ?GetThisMessageMap@CMFCRibbonKeyboardCustomizeDialog@@KGPBUAFX_MSGMAP@@XZ @ 7531 NONAME
 ?GetThisMessageMap@CMFCRibbonKeyTip@@KGPBUAFX_MSGMAP@@XZ @ 7532 NONAME
 ?GetThisMessageMap@CMFCRibbonMiniToolBar@@KGPBUAFX_MSGMAP@@XZ @ 7533 NONAME
 ?GetThisMessageMap@CMFCRibbonPanelMenu@@KGPBUAFX_MSGMAP@@XZ @ 7534 NONAME
 ?GetThisMessageMap@CMFCRibbonPanelMenuBar@@KGPBUAFX_MSGMAP@@XZ @ 7535 NONAME
 ?GetThisMessageMap@CMFCRibbonRichEditCtrl@@KGPBUAFX_MSGMAP@@XZ @ 7536 NONAME
 ?GetThisMessageMap@CMFCRibbonSpinButtonCtrl@@KGPBUAFX_MSGMAP@@XZ @ 7537 NONAME
 ?GetThisMessageMap@CMFCRibbonStatusBar@@KGPBUAFX_MSGMAP@@XZ @ 7538 NONAME
 ?GetThisMessageMap@CMFCShadowWnd@@KGPBUAFX_MSGMAP@@XZ @ 7539 NONAME
 ?GetThisMessageMap@CMFCShellListCtrl@@KGPBUAFX_MSGMAP@@XZ @ 7540 NONAME
 ?GetThisMessageMap@CMFCShellTreeCtrl@@KGPBUAFX_MSGMAP@@XZ @ 7541 NONAME
 ?GetThisMessageMap@CMFCSpinButtonCtrl@@KGPBUAFX_MSGMAP@@XZ @ 7542 NONAME
 ?GetThisMessageMap@CMFCStandardColorsPropertyPage@@KGPBUAFX_MSGMAP@@XZ @ 7543 NONAME
 ?GetThisMessageMap@CMFCStatusBar@@KGPBUAFX_MSGMAP@@XZ @ 7544 NONAME
 ?GetThisMessageMap@CMFCTabCtrl@@KGPBUAFX_MSGMAP@@XZ @ 7545 NONAME
 ?GetThisMessageMap@CMFCTasksPane@@KGPBUAFX_MSGMAP@@XZ @ 7546 NONAME
 ?GetThisMessageMap@CMFCTasksPaneFrameWnd@@KGPBUAFX_MSGMAP@@XZ @ 7547 NONAME
 ?GetThisMessageMap@CMFCTasksPaneToolBar@@KGPBUAFX_MSGMAP@@XZ @ 7548 NONAME
 ?GetThisMessageMap@CMFCToolBar@@KGPBUAFX_MSGMAP@@XZ @ 7549 NONAME
 ?GetThisMessageMap@CMFCToolBarButtonCustomizeDialog@@KGPBUAFX_MSGMAP@@XZ @ 7550 NONAME
 ?GetThisMessageMap@CMFCToolBarButtonsListButton@@KGPBUAFX_MSGMAP@@XZ @ 7551 NONAME
 ?GetThisMessageMap@CMFCToolBarComboBoxEdit@@KGPBUAFX_MSGMAP@@XZ @ 7552 NONAME
 ?GetThisMessageMap@CMFCToolBarDateTimeCtrlImpl@@KGPBUAFX_MSGMAP@@XZ @ 7553 NONAME
 ?GetThisMessageMap@CMFCToolBarDropSource@@KGPBUAFX_MSGMAP@@XZ @ 7554 NONAME
 ?GetThisMessageMap@CMFCToolBarDropTarget@@KGPBUAFX_MSGMAP@@XZ @ 7555 NONAME
 ?GetThisMessageMap@CMFCToolBarEditCtrl@@KGPBUAFX_MSGMAP@@XZ @ 7556 NONAME
 ?GetThisMessageMap@CMFCToolBarNameDialog@@KGPBUAFX_MSGMAP@@XZ @ 7557 NONAME
 ?GetThisMessageMap@CMFCToolBarsCommandsListBox@@KGPBUAFX_MSGMAP@@XZ @ 7558 NONAME
 ?GetThisMessageMap@CMFCToolBarsCommandsPropertyPage@@KGPBUAFX_MSGMAP@@XZ @ 7559 NONAME
 ?GetThisMessageMap@CMFCToolBarsCustomizeDialog@@KGPBUAFX_MSGMAP@@XZ @ 7560 NONAME
 ?GetThisMessageMap@CMFCToolBarsKeyboardPropertyPage@@KGPBUAFX_MSGMAP@@XZ @ 7561 NONAME
 ?GetThisMessageMap@CMFCToolBarsListCheckBox@@KGPBUAFX_MSGMAP@@XZ @ 7562 NONAME
 ?GetThisMessageMap@CMFCToolBarsListPropertyPage@@KGPBUAFX_MSGMAP@@XZ @ 7563 NONAME
 ?GetThisMessageMap@CMFCToolBarsMenuPropertyPage@@KGPBUAFX_MSGMAP@@XZ @ 7564 NONAME
 ?GetThisMessageMap@CMFCToolBarsOptionsPropertyPage@@KGPBUAFX_MSGMAP@@XZ @ 7565 NONAME
 ?GetThisMessageMap@CMFCToolBarsToolsPropertyPage@@KGPBUAFX_MSGMAP@@XZ @ 7566 NONAME
 ?GetThisMessageMap@CMFCToolTipCtrl@@KGPBUAFX_MSGMAP@@XZ @ 7567 NONAME
 ?GetThisMessageMap@CMFCWindowsManagerDialog@@KGPBUAFX_MSGMAP@@XZ @ 7568 NONAME
 ?GetThisMessageMap@CMiniDockFrameWnd@@KGPBUAFX_MSGMAP@@XZ @ 7569 NONAME
 ?GetThisMessageMap@CMiniFrameWnd@@KGPBUAFX_MSGMAP@@XZ @ 7570 NONAME
 ?GetThisMessageMap@CMultiPaneFrameWnd@@KGPBUAFX_MSGMAP@@XZ @ 7571 NONAME
 ?GetThisMessageMap@COleCntrFrameWndEx@@KGPBUAFX_MSGMAP@@XZ @ 7572 NONAME
 ?GetThisMessageMap@COleControl@@KGPBUAFX_MSGMAP@@XZ @ 7573 NONAME
 ?GetThisMessageMap@COleDBRecordView@@KGPBUAFX_MSGMAP@@XZ @ 7574 NONAME
 ?GetThisMessageMap@COleDocIPFrameWnd@@KGPBUAFX_MSGMAP@@XZ @ 7575 NONAME
 ?GetThisMessageMap@COleDocIPFrameWndEx@@KGPBUAFX_MSGMAP@@XZ @ 7576 NONAME
 ?GetThisMessageMap@COleIPFrameWnd@@KGPBUAFX_MSGMAP@@XZ @ 7577 NONAME
 ?GetThisMessageMap@COleIPFrameWndEx@@KGPBUAFX_MSGMAP@@XZ @ 7578 NONAME
 ?GetThisMessageMap@COlePropertyPage@@KGPBUAFX_MSGMAP@@XZ @ 7579 NONAME
 ?GetThisMessageMap@COleResizeBar@@KGPBUAFX_MSGMAP@@XZ @ 7580 NONAME
 ?GetThisMessageMap@COleServerDoc@@KGPBUAFX_MSGMAP@@XZ @ 7581 NONAME
 ?GetThisMessageMap@COleServerDocEx@@KGPBUAFX_MSGMAP@@XZ @ 7582 NONAME
 ?GetThisMessageMap@COutlookOptionsDlg@@KGPBUAFX_MSGMAP@@XZ @ 7583 NONAME
 ?GetThisMessageMap@CPane@@KGPBUAFX_MSGMAP@@XZ @ 7584 NONAME
 ?GetThisMessageMap@CPaneDialog@@KGPBUAFX_MSGMAP@@XZ @ 7585 NONAME
 ?GetThisMessageMap@CPaneDivider@@KGPBUAFX_MSGMAP@@XZ @ 7586 NONAME
 ?GetThisMessageMap@CPaneFrameWnd@@KGPBUAFX_MSGMAP@@XZ @ 7587 NONAME
 ?GetThisMessageMap@CPreviewView@@KGPBUAFX_MSGMAP@@XZ @ 7588 NONAME
 ?GetThisMessageMap@CPreviewViewEx@@KGPBUAFX_MSGMAP@@XZ @ 7589 NONAME
 ?GetThisMessageMap@CPrintDialog@@KGPBUAFX_MSGMAP@@XZ @ 7590 NONAME
 ?GetThisMessageMap@CPrintDialogEx@@KGPBUAFX_MSGMAP@@XZ @ 7591 NONAME
 ?GetThisMessageMap@CPropertyPage@@KGPBUAFX_MSGMAP@@XZ @ 7592 NONAME
 ?GetThisMessageMap@CPropertySheet@@KGPBUAFX_MSGMAP@@XZ @ 7593 NONAME
 ?GetThisMessageMap@CReBar@@KGPBUAFX_MSGMAP@@XZ @ 7594 NONAME
 ?GetThisMessageMap@CRecordView@@KGPBUAFX_MSGMAP@@XZ @ 7595 NONAME
 ?GetThisMessageMap@CRichEditView@@KGPBUAFX_MSGMAP@@XZ @ 7596 NONAME
 ?GetThisMessageMap@CScreenWnd@@KGPBUAFX_MSGMAP@@XZ @ 7597 NONAME
 ?GetThisMessageMap@CScrollView@@KGPBUAFX_MSGMAP@@XZ @ 7598 NONAME
 ?GetThisMessageMap@CSmartDockingGroupGuidesWnd@@KGPBUAFX_MSGMAP@@XZ @ 7599 NONAME
 ?GetThisMessageMap@CSmartDockingHighlighterWnd@@KGPBUAFX_MSGMAP@@XZ @ 7600 NONAME
 ?GetThisMessageMap@CSmartDockingStandaloneGuideWnd@@KGPBUAFX_MSGMAP@@XZ @ 7601 NONAME
 ?GetThisMessageMap@CSocketWnd@@KGPBUAFX_MSGMAP@@XZ @ 7602 NONAME
 ?GetThisMessageMap@CSplitterWnd@@KGPBUAFX_MSGMAP@@XZ @ 7603 NONAME
 ?GetThisMessageMap@CSplitterWndEx@@KGPBUAFX_MSGMAP@@XZ @ 7604 NONAME
 ?GetThisMessageMap@CStatusBar@@KGPBUAFX_MSGMAP@@XZ @ 7605 NONAME
 ?GetThisMessageMap@CTabbedPane@@KGPBUAFX_MSGMAP@@XZ @ 7606 NONAME
 ?GetThisMessageMap@CTabCtrl@@KGPBUAFX_MSGMAP@@XZ @ 7607 NONAME
 ?GetThisMessageMap@CTabView@@KGPBUAFX_MSGMAP@@XZ @ 7608 NONAME
 ?GetThisMessageMap@CToolBar@@KGPBUAFX_MSGMAP@@XZ @ 7609 NONAME
 ?GetThisMessageMap@CToolBarCtrl@@KGPBUAFX_MSGMAP@@XZ @ 7610 NONAME
 ?GetThisMessageMap@CToolTipCtrl@@KGPBUAFX_MSGMAP@@XZ @ 7611 NONAME
 ?GetThisMessageMap@CTreeCtrl@@KGPBUAFX_MSGMAP@@XZ @ 7612 NONAME
 ?GetThisMessageMap@CTreeView@@KGPBUAFX_MSGMAP@@XZ @ 7613 NONAME
 ?GetThisMessageMap@CView@@KGPBUAFX_MSGMAP@@XZ @ 7614 NONAME
 ?GetThisMessageMap@CVSListBox@@KGPBUAFX_MSGMAP@@XZ @ 7615 NONAME
 ?GetThisMessageMap@CVSListBoxBase@@KGPBUAFX_MSGMAP@@XZ @ 7616 NONAME
 ?GetThisMessageMap@CVSListBoxEditCtrl@@KGPBUAFX_MSGMAP@@XZ @ 7617 NONAME
 ?GetThisMessageMap@CWinApp@@KGPBUAFX_MSGMAP@@XZ @ 7618 NONAME
 ?GetThisMessageMap@CWnd@@KGPBUAFX_MSGMAP@@XZ @ 7619 NONAME
 ?GetThumbnail@CDocument@@UAEHIPAPAUHBITMAP__@@PAW4WTS_ALPHATYPE@@@Z @ 7620 NONAME
 ?GetTime@CDateTimeCtrl@@QBEHAAVCOleDateTime@ATL@@@Z @ 7621 NONAME
 ?GetTime@CDateTimeCtrl@@QBEKAAVCTime@ATL@@@Z @ 7622 NONAME
 ?GetTimeAll@CMFCToolBarDateTimeCtrl@@SGHIAAVCOleDateTime@ATL@@@Z @ 7623 NONAME
 ?GetTimeAll@CMFCToolBarDateTimeCtrl@@SGKIAAVCTime@ATL@@@Z @ 7624 NONAME
 ?GetTimeAll@CMFCToolBarDateTimeCtrl@@SGKIPAU_SYSTEMTIME@@@Z @ 7625 NONAME
 ?GetTipText@CMFCStatusBar@@QBE?AV?$CStringT@DV?$StrTraitMFC_DLL@DV?$ChTraitsCRT@D@ATL@@@@@ATL@@H@Z @ 7626 NONAME
 ?GetTipText@CStatusBarCtrl@@QBE?AV?$CStringT@DV?$StrTraitMFC_DLL@DV?$ChTraitsCRT@D@ATL@@@@@ATL@@H@Z @ 7627 NONAME
 ?GetToday@CMonthCalCtrl@@QBEHAAVCOleDateTime@ATL@@@Z @ 7628 NONAME
 ?GetToday@CMonthCalCtrl@@QBEHAAVCTime@ATL@@@Z @ 7629 NONAME
 ?GetToolBar@CHtmlView@@QBEHXZ @ 7630 NONAME
 ?GetToolbarButtonTextColor@CMFCVisualManager@@UAEKPAVCMFCToolBarButton@@W4AFX_BUTTON_STATE@1@@Z @ 7631 NONAME
 ?GetToolbarButtonTextColor@CMFCVisualManagerOffice2007@@UAEKPAVCMFCToolBarButton@@W4AFX_BUTTON_STATE@CMFCVisualManager@@@Z @ 7632 NONAME
 ?GetToolbarButtonTextColor@CMFCVisualManagerOfficeXP@@MAEKPAVCMFCToolBarButton@@W4AFX_BUTTON_STATE@CMFCVisualManager@@@Z @ 7633 NONAME
 ?GetToolbarButtonTextColor@CMFCVisualManagerWindows@@UAEKPAVCMFCToolBarButton@@W4AFX_BUTTON_STATE@CMFCVisualManager@@@Z @ 7634 NONAME
 ?GetToolbarDisabledTextColor@CMFCVisualManager@@UAEKXZ @ 7635 NONAME
 ?GetToolbarHighlightColor@CMFCVisualManager@@UAEKXZ @ 7636 NONAME
 ?GetToolInfo@CToolTipCtrl@@QBEHAAVCToolInfo@@PAVCWnd@@I@Z @ 7637 NONAME
 ?GetToolTipInfo@CMFCVisualManager@@UAEHAAVCMFCToolTipInfo@@I@Z @ 7638 NONAME
 ?GetToolTipInfo@CMFCVisualManagerOffice2003@@UAEHAAVCMFCToolTipInfo@@I@Z @ 7639 NONAME
 ?GetToolTipInfo@CMFCVisualManagerOffice2007@@UAEHAAVCMFCToolTipInfo@@I@Z @ 7640 NONAME
 ?GetTooltipManager@CWinAppEx@@QAEPAVCTooltipManager@@XZ @ 7641 NONAME
 ?GetToolTipText@CMFCRibbonBaseElement@@UBE?AV?$CStringT@DV?$StrTraitMFC_DLL@DV?$ChTraitsCRT@D@ATL@@@@@ATL@@XZ @ 7642 NONAME
 ?GetToolTipText@CMFCRibbonButton@@UBE?AV?$CStringT@DV?$StrTraitMFC_DLL@DV?$ChTraitsCRT@D@ATL@@@@@ATL@@XZ @ 7643 NONAME
 ?GetToolTipText@CMFCRibbonGalleryIcon@@MBE?AV?$CStringT@DV?$StrTraitMFC_DLL@DV?$ChTraitsCRT@D@ATL@@@@@ATL@@XZ @ 7644 NONAME
 ?GetToolTipText@CMFCRibbonStatusBarPane@@MBE?AV?$CStringT@DV?$StrTraitMFC_DLL@DV?$ChTraitsCRT@D@ATL@@@@@ATL@@XZ @ 7645 NONAME
 ?GetToolTipText@CMFCRibbonTab@@UBE?AV?$CStringT@DV?$StrTraitMFC_DLL@DV?$ChTraitsCRT@D@ATL@@@@@ATL@@XZ @ 7646 NONAME
 ?GetTop@CHtmlView@@QBEJXZ @ 7647 NONAME
 ?GetTopLevelContainer@CHtmlView@@QBEHXZ @ 7648 NONAME
 ?GetTopLevelFrame@CWnd@@QBEPAVCFrameWnd@@XZ @ 7649 NONAME
 ?GetTopLevelOwner@CWnd@@QBEPAV1@XZ @ 7650 NONAME
 ?GetTopLevelParent@CWnd@@QBEPAV1@XZ @ 7651 NONAME
 ?GetTopLevelRibbonBar@CMFCRibbonBaseElement@@QBEPAVCMFCRibbonBar@@XZ @ 7652 NONAME
 ?GetTopLevelRibbonBar@CMFCRibbonPanelMenuBar@@QBEPAVCMFCRibbonBar@@XZ @ 7653 NONAME
 ?GetTotalItems@CMFCPropertyGridCtrl@@IBEHH@Z @ 7654 NONAME
 ?GetTotalRefCount@CPaneContainerManager@@QBEHXZ @ 7655 NONAME
