EXPORTS
 ??$CopyElements@VCOleVariant@@@@YAXPEAVCOleVariant@@PEBV0@_J@Z @ 256 NONAME
 ??$DumpElements@VCOleVariant@@@@YAXAEAVCDumpContext@@PEBVCOleVariant@@_J@Z @ 257 NONAME
 ??$HashKey@AEBUtagVARIANT@@@@YAIAEBUtagVARIANT@@@Z @ 258 NONAME
 ??$HashKey@PEB_W@@YAIPEB_W@Z @ 259 NONAME
 ??$HashKey@PEBD@@YAIPEBD@Z @ 260 NONAME
 ??$HashKey@VCComBSTR@ATL@@@@YAIVCComBSTR@ATL@@@Z @ 261 NONAME
 ??$SerializeElements@V?$CStringT@_WV?$StrTraitMFC_DLL@_WV?$ChTraitsCRT@_W@ATL@@@@@ATL@@@@YAXAEAVCArchive@@PEAV?$CStringT@_WV?$StrTraitMFC_DLL@_WV?$ChTraitsCRT@_W@ATL@@@@@ATL@@_J@Z @ 262 NONAME
 ??$SerializeElements@V?$CStringT@DV?$StrTraitMFC_DLL@DV?$ChTraitsCRT@D@ATL@@@@@ATL@@@@YAXAEAVCArchive@@PEAV?$CStringT@DV?$StrTraitMFC_DLL@DV?$ChTraitsCRT@D@ATL@@@@@ATL@@_J@Z @ 263 NONAME
 ??$SerializeElements@VCComBSTR@ATL@@@@YAXAEAVCArchive@@PEAVCComBSTR@ATL@@_J@Z @ 264 NONAME
 ??$SerializeElements@VCOleVariant@@@@YAXAEAVCArchive@@PEAVCOleVariant@@_J@Z @ 265 NONAME
 ??_0COleCurrency@@QEAAAEBV0@J@Z @ 266 NONAME
 ??_U@YAPEAX_K@Z @ 267 NONAME
 ??_U@YAPEAX_KHPEBDH@Z @ 268 NONAME
 ??_U@YAPEAX_KPEBDH@Z @ 269 NONAME
 ??_V@YAXPEAX@Z @ 270 NONAME
 ??_V@YAXPEAXHPEBDH@Z @ 271 NONAME
 ??_V@YAXPEAXPEBDH@Z @ 272 NONAME
 ??0?$CSimpleStringT@_W$00@ATL@@QEAA@AEBV?$CSimpleStringT@_W$0A@@1@@Z @ 273 NONAME
 ??0?$CSimpleStringT@_W$00@ATL@@QEAA@AEBV01@@Z @ 274 NONAME
 ??0?$CSimpleStringT@_W$00@ATL@@QEAA@PEAUIAtlStringMgr@1@@Z @ 275 NONAME
 ??0?$CSimpleStringT@_W$00@ATL@@QEAA@PEB_WHPEAUIAtlStringMgr@1@@Z @ 276 NONAME
 ??0?$CSimpleStringT@_W$00@ATL@@QEAA@PEB_WPEAUIAtlStringMgr@1@@Z @ 277 NONAME
 ??0?$CSimpleStringT@D$00@ATL@@QEAA@AEBV?$CSimpleStringT@D$0A@@1@@Z @ 278 NONAME
 ??0?$CSimpleStringT@D$00@ATL@@QEAA@AEBV01@@Z @ 279 NONAME
 ??0?$CSimpleStringT@D$00@ATL@@QEAA@PEAUIAtlStringMgr@1@@Z @ 280 NONAME
 ??0?$CSimpleStringT@D$00@ATL@@QEAA@PEBDHPEAUIAtlStringMgr@1@@Z @ 281 NONAME
 ??0?$CSimpleStringT@D$00@ATL@@QEAA@PEBDPEAUIAtlStringMgr@1@@Z @ 282 NONAME
 ??0?$CStringT@_WV?$StrTraitMFC_DLL@_WV?$ChTraitsCRT@_W@ATL@@@@@ATL@@QEAA@_WH@Z @ 283 NONAME
 ??0?$CStringT@_WV?$StrTraitMFC_DLL@_WV?$ChTraitsCRT@_W@ATL@@@@@ATL@@QEAA@AEBUtagVARIANT@@@Z @ 284 NONAME
 ??0?$CStringT@_WV?$StrTraitMFC_DLL@_WV?$ChTraitsCRT@_W@ATL@@@@@ATL@@QEAA@AEBUtagVARIANT@@PEAUIAtlStringMgr@1@@Z @ 285 NONAME
 ??0?$CStringT@_WV?$StrTraitMFC_DLL@_WV?$ChTraitsCRT@_W@ATL@@@@@ATL@@QEAA@AEBV01@@Z @ 286 NONAME
 ??0?$CStringT@_WV?$StrTraitMFC_DLL@_WV?$ChTraitsCRT@_W@ATL@@@@@ATL@@QEAA@DH@Z @ 287 NONAME
 ??0?$CStringT@_WV?$StrTraitMFC_DLL@_WV?$ChTraitsCRT@_W@ATL@@@@@ATL@@QEAA@PEA_W@Z @ 288 NONAME
 ??0?$CStringT@_WV?$StrTraitMFC_DLL@_WV?$ChTraitsCRT@_W@ATL@@@@@ATL@@QEAA@PEAD@Z @ 289 NONAME
 ??0?$CStringT@_WV?$StrTraitMFC_DLL@_WV?$ChTraitsCRT@_W@ATL@@@@@ATL@@QEAA@PEAE@Z @ 290 NONAME
 ??0?$CStringT@_WV?$StrTraitMFC_DLL@_WV?$ChTraitsCRT@_W@ATL@@@@@ATL@@QEAA@PEAUIAtlStringMgr@1@@Z @ 291 NONAME
 ??0?$CStringT@_WV?$StrTraitMFC_DLL@_WV?$ChTraitsCRT@_W@ATL@@@@@ATL@@QEAA@PEB_W@Z @ 292 NONAME
 ??0?$CStringT@_WV?$StrTraitMFC_DLL@_WV?$ChTraitsCRT@_W@ATL@@@@@ATL@@QEAA@PEB_WH@Z @ 293 NONAME
 ??0?$CStringT@_WV?$StrTraitMFC_DLL@_WV?$ChTraitsCRT@_W@ATL@@@@@ATL@@QEAA@PEB_WHPEAUIAtlStringMgr@1@@Z @ 294 NONAME
 ??0?$CStringT@_WV?$StrTraitMFC_DLL@_WV?$ChTraitsCRT@_W@ATL@@@@@ATL@@QEAA@PEB_WPEAUIAtlStringMgr@1@@Z @ 295 NONAME
 ??0?$CStringT@_WV?$StrTraitMFC_DLL@_WV?$ChTraitsCRT@_W@ATL@@@@@ATL@@QEAA@PEBD@Z @ 296 NONAME
 ??0?$CStringT@_WV?$StrTraitMFC_DLL@_WV?$ChTraitsCRT@_W@ATL@@@@@ATL@@QEAA@PEBDH@Z @ 297 NONAME
 ??0?$CStringT@_WV?$StrTraitMFC_DLL@_WV?$ChTraitsCRT@_W@ATL@@@@@ATL@@QEAA@PEBDHPEAUIAtlStringMgr@1@@Z @ 298 NONAME
 ??0?$CStringT@_WV?$StrTraitMFC_DLL@_WV?$ChTraitsCRT@_W@ATL@@@@@ATL@@QEAA@PEBDPEAUIAtlStringMgr@1@@Z @ 299 NONAME
 ??0?$CStringT@_WV?$StrTraitMFC_DLL@_WV?$ChTraitsCRT@_W@ATL@@@@@ATL@@QEAA@PEBE@Z @ 300 NONAME
 ??0?$CStringT@_WV?$StrTraitMFC_DLL@_WV?$ChTraitsCRT@_W@ATL@@@@@ATL@@QEAA@PEBEPEAUIAtlStringMgr@1@@Z @ 301 NONAME
 ??0?$CStringT@_WV?$StrTraitMFC_DLL@_WV?$ChTraitsCRT@_W@ATL@@@@@ATL@@QEAA@XZ @ 302 NONAME
 ??0?$CStringT@DV?$StrTraitMFC_DLL@DV?$ChTraitsCRT@D@ATL@@@@@ATL@@QEAA@_WH@Z @ 303 NONAME
 ??0?$CStringT@DV?$StrTraitMFC_DLL@DV?$ChTraitsCRT@D@ATL@@@@@ATL@@QEAA@AEBUtagVARIANT@@@Z @ 304 NONAME
 ??0?$CStringT@DV?$StrTraitMFC_DLL@DV?$ChTraitsCRT@D@ATL@@@@@ATL@@QEAA@AEBUtagVARIANT@@PEAUIAtlStringMgr@1@@Z @ 305 NONAME
 ??0?$CStringT@DV?$StrTraitMFC_DLL@DV?$ChTraitsCRT@D@ATL@@@@@ATL@@QEAA@AEBV01@@Z @ 306 NONAME
 ??0?$CStringT@DV?$StrTraitMFC_DLL@DV?$ChTraitsCRT@D@ATL@@@@@ATL@@QEAA@DH@Z @ 307 NONAME
 ??0?$CStringT@DV?$StrTraitMFC_DLL@DV?$ChTraitsCRT@D@ATL@@@@@ATL@@QEAA@PEA_W@Z @ 308 NONAME
 ??0?$CStringT@DV?$StrTraitMFC_DLL@DV?$ChTraitsCRT@D@ATL@@@@@ATL@@QEAA@PEAD@Z @ 309 NONAME
 ??0?$CStringT@DV?$StrTraitMFC_DLL@DV?$ChTraitsCRT@D@ATL@@@@@ATL@@QEAA@PEAE@Z @ 310 NONAME
 ??0?$CStringT@DV?$StrTraitMFC_DLL@DV?$ChTraitsCRT@D@ATL@@@@@ATL@@QEAA@PEAUIAtlStringMgr@1@@Z @ 311 NONAME
 ??0?$CStringT@DV?$StrTraitMFC_DLL@DV?$ChTraitsCRT@D@ATL@@@@@ATL@@QEAA@PEB_W@Z @ 312 NONAME
 ??0?$CStringT@DV?$StrTraitMFC_DLL@DV?$ChTraitsCRT@D@ATL@@@@@ATL@@QEAA@PEB_WH@Z @ 313 NONAME
 ??0?$CStringT@DV?$StrTraitMFC_DLL@DV?$ChTraitsCRT@D@ATL@@@@@ATL@@QEAA@PEB_WHPEAUIAtlStringMgr@1@@Z @ 314 NONAME
 ??0?$CStringT@DV?$StrTraitMFC_DLL@DV?$ChTraitsCRT@D@ATL@@@@@ATL@@QEAA@PEB_WPEAUIAtlStringMgr@1@@Z @ 315 NONAME
 ??0?$CStringT@DV?$StrTraitMFC_DLL@DV?$ChTraitsCRT@D@ATL@@@@@ATL@@QEAA@PEBD@Z @ 316 NONAME
 ??0?$CStringT@DV?$StrTraitMFC_DLL@DV?$ChTraitsCRT@D@ATL@@@@@ATL@@QEAA@PEBDH@Z @ 317 NONAME
 ??0?$CStringT@DV?$StrTraitMFC_DLL@DV?$ChTraitsCRT@D@ATL@@@@@ATL@@QEAA@PEBDHPEAUIAtlStringMgr@1@@Z @ 318 NONAME
 ??0?$CStringT@DV?$StrTraitMFC_DLL@DV?$ChTraitsCRT@D@ATL@@@@@ATL@@QEAA@PEBDPEAUIAtlStringMgr@1@@Z @ 319 NONAME
 ??0?$CStringT@DV?$StrTraitMFC_DLL@DV?$ChTraitsCRT@D@ATL@@@@@ATL@@QEAA@PEBE@Z @ 320 NONAME
 ??0?$CStringT@DV?$StrTraitMFC_DLL@DV?$ChTraitsCRT@D@ATL@@@@@ATL@@QEAA@PEBEPEAUIAtlStringMgr@1@@Z @ 321 NONAME
 ??0?$CStringT@DV?$StrTraitMFC_DLL@DV?$ChTraitsCRT@D@ATL@@@@@ATL@@QEAA@XZ @ 322 NONAME
 ??0_AFX_CHECKLIST_STATE@@QEAA@XZ @ 323 NONAME
 ??0_AFX_COLOR_STATE@@QEAA@XZ @ 324 NONAME
 ??0_AFX_D2D_STATE@@QEAA@XZ @ 325 NONAME
 ??0_AFX_DEBUG_STATE@@QEAA@XZ @ 326 NONAME
 ??0_AFX_EDIT_STATE@@QEAA@XZ @ 327 NONAME
 ??0_AFX_OLE_STATE@@QEAA@XZ @ 328 NONAME
 ??0_AFX_THREAD_STATE@@QEAA@XZ @ 329 NONAME
 ??0_AFXCTL_AMBIENT_CACHE@@QEAA@XZ @ 330 NONAME
 ??0_AFXCTL_UIACTIVE_INFO@@QEAA@PEAUHMENU__@@PEAUIOleInPlaceFrame@@@Z @ 331 NONAME
 ??0AFX_DDPDATA@@QEAA@PEAXHH0IPEB_W@Z @ 332 NONAME
 ??0AFX_EXCEPTION_LINK@@QEAA@XZ @ 333 NONAME
 ??0AFX_GLOBAL_DATA@@QEAA@XZ @ 334 NONAME
 ??0AFX_MAINTAIN_STATE@@QEAA@PEAVAFX_MODULE_STATE@@@Z @ 335 NONAME
 ??0AFX_MAINTAIN_STATE2@@QEAA@PEAVAFX_MODULE_STATE@@@Z @ 336 NONAME
 ??0AFX_MODULE_STATE@@QEAA@HP6A_JPEAUHWND__@@I_K_J@ZKH@Z @ 337 NONAME
 ??0AFX_MODULE_THREAD_STATE@@QEAA@XZ @ 338 NONAME
 ??0CAnimateCtrl@@QEAA@XZ @ 339 NONAME
 ??0CAnimationBaseObject@@QEAA@II_K@Z @ 340 NONAME
 ??0CAnimationBaseObject@@QEAA@XZ @ 341 NONAME
 ??0CAnimationColor@@QEAA@KII_K@Z @ 342 NONAME
 ??0CAnimationColor@@QEAA@XZ @ 343 NONAME
 ??0CAnimationController@@QEAA@XZ @ 344 NONAME
 ??0CAnimationGroup@@QEAA@PEAVCAnimationController@@I@Z @ 345 NONAME
 ??0CAnimationPoint@@QEAA@AEBVCPoint@@II_K@Z @ 346 NONAME
 ??0CAnimationPoint@@QEAA@XZ @ 347 NONAME
 ??0CAnimationRect@@QEAA@AEBVCPoint@@AEBVCSize@@II_K@Z @ 348 NONAME
 ??0CAnimationRect@@QEAA@AEBVCRect@@II_K@Z @ 349 NONAME
 ??0CAnimationRect@@QEAA@HHHHII_K@Z @ 350 NONAME
 ??0CAnimationRect@@QEAA@XZ @ 351 NONAME
 ??0CAnimationSize@@QEAA@AEBVCSize@@II_K@Z @ 352 NONAME
 ??0CAnimationSize@@QEAA@XZ @ 353 NONAME
 ??0CAnimationValue@@QEAA@NII_K@Z @ 354 NONAME
 ??0CAnimationValue@@QEAA@XZ @ 355 NONAME
 ??0CAnimationVariable@@QEAA@N@Z @ 356 NONAME
 ??0CAppDestinations@@QEAA@PEB_W@Z @ 357 NONAME
 ??0CAppDestinations@@QEAA@XZ @ 358 NONAME
 ??0CArchive@@IEAA@AEBV0@@Z @ 359 NONAME
 ??0CArchive@@QEAA@PEAVCFile@@IHPEAX@Z @ 360 NONAME
 ??0CArchiveException@@QEAA@HPEB_W@Z @ 361 NONAME
 ??0CArchivePropExchange@@QEAA@AEAVCArchive@@@Z @ 362 NONAME
 ??0CArchiveStream@@QEAA@PEAVCArchive@@@Z @ 363 NONAME
 ??0CAsyncMonikerFile@@QEAA@XZ @ 364 NONAME
 ??0CAsyncPropExchange@@QEAA@K@Z @ 365 NONAME
 ??0CAsyncSocket@@QEAA@XZ @ 366 NONAME
 ??0CAutoHideDockSite@@QEAA@XZ @ 367 NONAME
 ??0CBasePane@@QEAA@XZ @ 368 NONAME
 ??0CBaseTabbedPane@@QEAA@H@Z @ 369 NONAME
 ??0CBitmap@@QEAA@XZ @ 370 NONAME
 ??0CBitmapButton@@QEAA@XZ @ 371 NONAME
 ??0CBlobProperty@@QEAA@PEAX@Z @ 372 NONAME
 ??0CBrowserControlSite@@QEAA@PEAVCOleControlContainer@@PEAVCDHtmlDialog@@@Z @ 373 NONAME
 ??0CBrush@@QEAA@HK@Z @ 374 NONAME
 ??0CBrush@@QEAA@K@Z @ 375 NONAME
 ??0CBrush@@QEAA@PEAVCBitmap@@@Z @ 376 NONAME
 ??0CBrush@@QEAA@XZ @ 377 NONAME
 ??0CButton@@QEAA@XZ @ 378 NONAME
 ??0CByteArray@@QEAA@XZ @ 379 NONAME
 ??0CCachedDataPathProperty@@QEAA@PEAVCOleControl@@@Z @ 380 NONAME
 ??0CCachedDataPathProperty@@QEAA@PEB_WPEAVCOleControl@@@Z @ 381 NONAME
 ??0CCheckListBox@@QEAA@XZ @ 382 NONAME
 ??0CChevronOwnerDrawMenu@@QEAA@XZ @ 383 NONAME
 ??0CClientDC@@QEAA@PEAVCWnd@@@Z @ 384 NONAME
 ??0CCmdTarget@@QEAA@XZ @ 385 NONAME
 ??0CCmdUI@@QEAA@XZ @ 386 NONAME
 ??0CColorDialog@@QEAA@KKPEAVCWnd@@@Z @ 387 NONAME
 ??0CComboBox@@QEAA@XZ @ 388 NONAME
 ??0CComboBoxEx@@QEAA@XZ @ 389 NONAME
 ??0CCommandLineInfo@@QEAA@XZ @ 390 NONAME
 ??0CCommandManager@@IEAA@XZ @ 391 NONAME
 ??0CCommonDialog@@QEAA@PEAVCWnd@@@Z @ 392 NONAME
 ??0CConnectionPoint@@QEAA@XZ @ 393 NONAME
 ??0CContextMenuManager@@QEAA@XZ @ 394 NONAME
 ??0CControlBar@@IEAA@XZ @ 395 NONAME
 ??0CControlBarInfo@@QEAA@XZ @ 396 NONAME
 ??0CControlCreationInfo@@QEAA@XZ @ 397 NONAME
 ??0CControlDataSource@COleControl@@QEAA@PEAV1@@Z @ 398 NONAME
 ??0CControlFrameWnd@@QEAA@PEAVCOleControl@@@Z @ 399 NONAME
 ??0CControlSiteFactoryMgr@@QEAA@XZ @ 400 NONAME
 ??0CCreateContext@@QEAA@XZ @ 401 NONAME
 ??0CCriticalSection@@QEAA@XZ @ 402 NONAME
 ??0CCtrlView@@QEAA@PEB_WK@Z @ 403 NONAME
 ??0CD2DBitmap@@IEAA@PEAVCRenderTarget@@H@Z @ 404 NONAME
 ??0CD2DBitmap@@QEAA@PEAVCRenderTarget@@IPEB_WVCD2DSizeU@@H@Z @ 405 NONAME
 ??0CD2DBitmap@@QEAA@PEAVCRenderTarget@@PEAUHBITMAP__@@VCD2DSizeU@@H@Z @ 406 NONAME
 ??0CD2DBitmap@@QEAA@PEAVCRenderTarget@@PEB_WVCD2DSizeU@@H@Z @ 407 NONAME
 ??0CD2DBitmapBrush@@QEAA@PEAVCRenderTarget@@IPEB_WVCD2DSizeU@@PEAUD2D1_BITMAP_BRUSH_PROPERTIES@@PEAVCD2DBrushProperties@@H@Z @ 408 NONAME
 ??0CD2DBitmapBrush@@QEAA@PEAVCRenderTarget@@PEAUD2D1_BITMAP_BRUSH_PROPERTIES@@PEAVCD2DBrushProperties@@H@Z @ 409 NONAME
 ??0CD2DBitmapBrush@@QEAA@PEAVCRenderTarget@@PEB_WVCD2DSizeU@@PEAUD2D1_BITMAP_BRUSH_PROPERTIES@@PEAVCD2DBrushProperties@@H@Z @ 410 NONAME
 ??0CD2DBrush@@IEAA@PEAVCRenderTarget@@PEAVCD2DBrushProperties@@H@Z @ 411 NONAME
 ??0CD2DBrushProperties@@QEAA@M@Z @ 412 NONAME
 ??0CD2DBrushProperties@@QEAA@UD2D_MATRIX_3X2_F@@M@Z @ 413 NONAME
 ??0CD2DBrushProperties@@QEAA@XZ @ 414 NONAME
 ??0CD2DEllipse@@QEAA@AEBUD2D1_ELLIPSE@@@Z @ 415 NONAME
 ??0CD2DEllipse@@QEAA@AEBVCD2DPointF@@AEBVCD2DSizeF@@@Z @ 416 NONAME
 ??0CD2DEllipse@@QEAA@AEBVCD2DRectF@@@Z @ 417 NONAME
 ??0CD2DEllipse@@QEAA@PEBUD2D1_ELLIPSE@@@Z @ 418 NONAME
 ??0CD2DGeometry@@QEAA@PEAVCRenderTarget@@H@Z @ 419 NONAME
 ??0CD2DGeometrySink@@QEAA@AEAVCD2DPathGeometry@@@Z @ 420 NONAME
 ??0CD2DGradientBrush@@QEAA@PEAVCRenderTarget@@PEBUD2D1_GRADIENT_STOP@@IW4D2D1_GAMMA@@W4D2D1_EXTEND_MODE@@PEAVCD2DBrushProperties@@H@Z @ 421 NONAME
 ??0CD2DLayer@@QEAA@PEAVCRenderTarget@@H@Z @ 422 NONAME
 ??0CD2DLinearGradientBrush@@QEAA@PEAVCRenderTarget@@PEBUD2D1_GRADIENT_STOP@@IUD2D1_LINEAR_GRADIENT_BRUSH_PROPERTIES@@W4D2D1_GAMMA@@W4D2D1_EXTEND_MODE@@PEAVCD2DBrushProperties@@H@Z @ 423 NONAME
 ??0CD2DMesh@@QEAA@PEAVCRenderTarget@@H@Z @ 424 NONAME
 ??0CD2DPathGeometry@@QEAA@PEAVCRenderTarget@@H@Z @ 425 NONAME
 ??0CD2DPointF@@QEAA@AEBUD2D_POINT_2F@@@Z @ 426 NONAME
 ??0CD2DPointF@@QEAA@AEBVCPoint@@@Z @ 427 NONAME
 ??0CD2DPointF@@QEAA@MM@Z @ 428 NONAME
 ??0CD2DPointF@@QEAA@PEBUD2D_POINT_2F@@@Z @ 429 NONAME
 ??0CD2DPointU@@QEAA@AEBUD2D_POINT_2U@@@Z @ 430 NONAME
 ??0CD2DPointU@@QEAA@AEBVCPoint@@@Z @ 431 NONAME
 ??0CD2DPointU@@QEAA@II@Z @ 432 NONAME
 ??0CD2DPointU@@QEAA@PEBUD2D_POINT_2U@@@Z @ 433 NONAME
 ??0CD2DRadialGradientBrush@@QEAA@PEAVCRenderTarget@@PEBUD2D1_GRADIENT_STOP@@IUD2D1_RADIAL_GRADIENT_BRUSH_PROPERTIES@@W4D2D1_GAMMA@@W4D2D1_EXTEND_MODE@@PEAVCD2DBrushProperties@@H@Z @ 434 NONAME
 ??0CD2DRectF@@QEAA@AEBUD2D_RECT_F@@@Z @ 435 NONAME
 ??0CD2DRectF@@QEAA@AEBVCRect@@@Z @ 436 NONAME
 ??0CD2DRectF@@QEAA@MMMM@Z @ 437 NONAME
 ??0CD2DRectF@@QEAA@PEBUD2D_RECT_F@@@Z @ 438 NONAME
 ??0CD2DRectU@@QEAA@AEBUD2D_RECT_U@@@Z @ 439 NONAME
 ??0CD2DRectU@@QEAA@AEBVCRect@@@Z @ 440 NONAME
 ??0CD2DRectU@@QEAA@IIII@Z @ 441 NONAME
 ??0CD2DRectU@@QEAA@PEBUD2D_RECT_U@@@Z @ 442 NONAME
 ??0CD2DResource@@IEAA@PEAVCRenderTarget@@H@Z @ 443 NONAME
 ??0CD2DRoundedRect@@QEAA@AEBUD2D1_ROUNDED_RECT@@@Z @ 444 NONAME
 ??0CD2DRoundedRect@@QEAA@AEBVCD2DRectF@@AEBVCD2DSizeF@@@Z @ 445 NONAME
 ??0CD2DRoundedRect@@QEAA@PEBUD2D1_ROUNDED_RECT@@@Z @ 446 NONAME
 ??0CD2DSizeF@@QEAA@AEBUD2D_SIZE_F@@@Z @ 447 NONAME
 ??0CD2DSizeF@@QEAA@AEBVCSize@@@Z @ 448 NONAME
 ??0CD2DSizeF@@QEAA@MM@Z @ 449 NONAME
 ??0CD2DSizeF@@QEAA@PEBUD2D_SIZE_F@@@Z @ 450 NONAME
 ??0CD2DSizeU@@QEAA@AEBUD2D_SIZE_U@@@Z @ 451 NONAME
 ??0CD2DSizeU@@QEAA@AEBVCSize@@@Z @ 452 NONAME
 ??0CD2DSizeU@@QEAA@II@Z @ 453 NONAME
 ??0CD2DSizeU@@QEAA@PEBUD2D_SIZE_U@@@Z @ 454 NONAME
 ??0CD2DSolidColorBrush@@QEAA@PEAVCRenderTarget@@KHPEAVCD2DBrushProperties@@H@Z @ 455 NONAME
 ??0CD2DSolidColorBrush@@QEAA@PEAVCRenderTarget@@U_D3DCOLORVALUE@@PEAVCD2DBrushProperties@@H@Z @ 456 NONAME
 ??0CD2DTextFormat@@QEAA@PEAVCRenderTarget@@AEBV?$CStringT@_WV?$StrTraitMFC_DLL@_WV?$ChTraitsCRT@_W@ATL@@@@@ATL@@MW4DWRITE_FONT_WEIGHT@@W4DWRITE_FONT_STYLE@@W4DWRITE_FONT_STRETCH@@1PEAUIDWriteFontCollection@@H@Z @ 457 NONAME
 ??0CD2DTextLayout@@QEAA@PEAVCRenderTarget@@AEBV?$CStringT@_WV?$StrTraitMFC_DLL@_WV?$ChTraitsCRT@_W@ATL@@@@@ATL@@AEAVCD2DTextFormat@@AEBVCD2DSizeF@@H@Z @ 458 NONAME
 ??0CDatabase@@QEAA@XZ @ 459 NONAME
 ??0CDataBoundProperty@@QEAA@PEAV0@JG@Z @ 460 NONAME
 ??0CDataExchange@@QEAA@PEAVCWnd@@H@Z @ 461 NONAME
 ??0CDataPathProperty@@QEAA@PEAVCOleControl@@@Z @ 462 NONAME
 ??0CDataPathProperty@@QEAA@PEB_WPEAVCOleControl@@@Z @ 463 NONAME
 ??0CDataRecoveryHandler@@QEAA@KH@Z @ 464 NONAME
 ??0CDataSourceControl@@QEAA@PEAVCOleControlSite@@@Z @ 465 NONAME
 ??0CDateTimeCtrl@@QEAA@XZ @ 466 NONAME
 ??0CDBException@@QEAA@F@Z @ 467 NONAME
 ??0CDBVariant@@QEAA@XZ @ 468 NONAME
 ??0CDC@@QEAA@XZ @ 469 NONAME
 ??0CDCRenderTarget@@QEAA@XZ @ 470 NONAME
 ??0CDHtmlControlSink@@QEAA@PEAUIUnknown@@PEAVCDHtmlSinkHandler@@PEB_W_K@Z @ 471 NONAME
 ??0CDHtmlControlSink@@QEAA@XZ @ 472 NONAME
 ??0CDHtmlDialog@@QEAA@IIPEAVCWnd@@@Z @ 473 NONAME
 ??0CDHtmlDialog@@QEAA@PEB_W0PEAVCWnd@@@Z @ 474 NONAME
 ??0CDHtmlDialog@@QEAA@XZ @ 475 NONAME
 ??0CDHtmlElementEventSink@@QEAA@PEAVCDHtmlEventSink@@PEAUIDispatch@@@Z @ 476 NONAME
 ??0CDialog@@QEAA@IPEAVCWnd@@@Z @ 477 NONAME
 ??0CDialog@@QEAA@PEB_WPEAVCWnd@@@Z @ 478 NONAME
 ??0CDialog@@QEAA@XZ @ 479 NONAME
 ??0CDialogBar@@QEAA@XZ @ 480 NONAME
 ??0CDialogEx@@QEAA@IPEAVCWnd@@@Z @ 481 NONAME
 ??0CDialogEx@@QEAA@PEB_WPEAVCWnd@@@Z @ 482 NONAME
 ??0CDialogEx@@QEAA@XZ @ 483 NONAME
 ??0CDialogImpl@@IEAA@AEAVCWnd@@@Z @ 484 NONAME
 ??0CDialogTemplate@@QEAA@PEAX@Z @ 485 NONAME
 ??0CDialogTemplate@@QEAA@PEBUDLGTEMPLATE@@@Z @ 486 NONAME
 ??0CDocItem@@IEAA@XZ @ 487 NONAME
 ??0CDockablePane@@QEAA@XZ @ 488 NONAME
 ??0CDockablePaneAdapter@@QEAA@XZ @ 489 NONAME
 ??0CDockBar@@QEAA@H@Z @ 490 NONAME
 ??0CDockContext@@QEAA@PEAVCControlBar@@@Z @ 491 NONAME
 ??0CDockingManager@@QEAA@XZ @ 492 NONAME
 ??0CDockingPanesRow@@QEAA@PEAVCDockSite@@HH@Z @ 493 NONAME
 ??0CDockSite@@QEAA@XZ @ 494 NONAME
 ??0CDockState@@QEAA@XZ @ 495 NONAME
 ??0CDocManager@@QEAA@XZ @ 496 NONAME
 ??0CDocObjectServer@@QEAA@PEAVCOleServerDoc@@PEAUIOleDocumentSite@@@Z @ 497 NONAME
 ??0CDocObjectServerItem@@IEAA@PEAVCOleServerDoc@@H@Z @ 498 NONAME
 ??0CDocTemplate@@IEAA@IPEAUCRuntimeClass@@00@Z @ 499 NONAME
 ??0CDocument@@QEAA@XZ @ 500 NONAME
 ??0CDragListBox@@QEAA@XZ @ 501 NONAME
 ??0CDrawingManager@@QEAA@AEAVCDC@@@Z @ 502 NONAME
 ??0CDumpContext@@IEAA@AEBV0@@Z @ 503 NONAME
 ??0CDumpContext@@QEAA@PEAVCFile@@@Z @ 504 NONAME
 ??0CDWordArray@@QEAA@XZ @ 505 NONAME
 ??0CDynLinkLibrary@@QEAA@AEAUAFX_EXTENSION_MODULE@@H@Z @ 506 NONAME
 ??0CDynLinkLibrary@@QEAA@PEAUHINSTANCE__@@0@Z @ 507 NONAME
 ??0CEdit@@QEAA@XZ @ 508 NONAME
 ??0CEditView@@QEAA@XZ @ 509 NONAME
 ??0CEnumArray@@QEAA@_KPEBXIH@Z @ 510 NONAME
 ??0CEnumConnections@@QEAA@PEBXI@Z @ 511 NONAME
 ??0CEnumConnPoints@@QEAA@PEBXI@Z @ 512 NONAME
 ??0CEnumFormatEtc@@QEAA@XZ @ 513 NONAME
 ??0CEvent@@QEAA@HHPEB_WPEAU_SECURITY_ATTRIBUTES@@@Z @ 514 NONAME
 ??0CException@@QEAA@H@Z @ 515 NONAME
 ??0CException@@QEAA@XZ @ 516 NONAME
 ??0CFieldExchange@@QEAA@IPEAVCRecordset@@PEAX@Z @ 517 NONAME
 ??0CFile@@QEAA@PEAVCAtlTransactionManager@ATL@@@Z @ 518 NONAME
 ??0CFile@@QEAA@PEAX@Z @ 519 NONAME
 ??0CFile@@QEAA@PEB_WI@Z @ 520 NONAME
 ??0CFile@@QEAA@PEB_WIPEAVCAtlTransactionManager@ATL@@@Z @ 521 NONAME
 ??0CFile@@QEAA@XZ @ 522 NONAME
 ??0CFileDialog@@QEAA@HPEB_W0K0PEAVCWnd@@KH@Z @ 523 NONAME
 ??0CFileException@@QEAA@HJPEB_W@Z @ 524 NONAME
 ??0CFileFind@@QEAA@PEAVCAtlTransactionManager@ATL@@@Z @ 525 NONAME
 ??0CFileFind@@QEAA@XZ @ 526 NONAME
 ??0CFindReplaceDialog@@QEAA@XZ @ 527 NONAME
 ??0CFixedAlloc@@QEAA@II@Z @ 528 NONAME
 ??0CFixedAllocNoSync@@QEAA@II@Z @ 529 NONAME
 ??0CFolderPickerDialog@@QEAA@PEB_WKPEAVCWnd@@KH@Z @ 530 NONAME
 ??0CFont@@QEAA@XZ @ 531 NONAME
 ??0CFontDialog@@QEAA@AEBU_charformatw@@KPEAVCDC@@PEAVCWnd@@@Z @ 532 NONAME
 ??0CFontDialog@@QEAA@PEAUtagLOGFONTW@@KPEAVCDC@@PEAVCWnd@@@Z @ 533 NONAME
 ??0CFontHolder@@QEAA@PEAUIPropertyNotifySink@@@Z @ 534 NONAME
 ??0CFormView@@IEAA@I@Z @ 535 NONAME
 ??0CFormView@@IEAA@PEB_W@Z @ 536 NONAME
 ??0CFrameImpl@@QEAA@PEAVCFrameWnd@@@Z @ 537 NONAME
 ??0CFrameWnd@@QEAA@XZ @ 538 NONAME
 ??0CFrameWndEx@@IEAA@XZ @ 539 NONAME
 ??0CFtpConnection@@QEAA@PEAVCInternetSession@@PEAXPEB_W_K@Z @ 540 NONAME
 ??0CFtpConnection@@QEAA@PEAVCInternetSession@@PEB_W11_KGH@Z @ 541 NONAME
 ??0CFtpFileFind@@QEAA@PEAVCFtpConnection@@_K@Z @ 542 NONAME
 ??0CFullScreenImpl@@QEAA@PEAVCFrameImpl@@@Z @ 543 NONAME
 ??0CGdiObject@@QEAA@XZ @ 544 NONAME
 ??0CGestureConfig@@QEAA@XZ @ 545 NONAME
 ??0CGlobalUtils@@QEAA@XZ @ 546 NONAME
 ??0CGopherConnection@@QEAA@PEAVCInternetSession@@PEAXPEB_W_K@Z @ 547 NONAME
 ??0CGopherConnection@@QEAA@PEAVCInternetSession@@PEB_W11_KG@Z @ 548 NONAME
 ??0CGopherFile@@IEAA@PEAX0PEB_WK_K@Z @ 549 NONAME
 ??0CGopherFile@@IEAA@PEAXAEAVCGopherLocator@@PEAVCGopherConnection@@@Z @ 550 NONAME
 ??0CGopherFileFind@@QEAA@PEAVCGopherConnection@@_K@Z @ 551 NONAME
 ??0CGopherLocator@@AEAA@PEB_WK@Z @ 552 NONAME
 ??0CGopherLocator@@QEAA@AEBV0@@Z @ 553 NONAME
 ??0CHandleMap@@QEAA@PEAUCRuntimeClass@@P6AXPEAVCObject@@@Z2_KH@Z @ 554 NONAME
 ??0CHeaderCtrl@@QEAA@XZ @ 555 NONAME
 ??0CHotKeyCtrl@@QEAA@XZ @ 556 NONAME
 ??0CHtmlControlSite@@QEAA@PEAVCOleControlContainer@@@Z @ 557 NONAME
 ??0CHtmlEditCtrl@@QEAA@XZ @ 558 NONAME
 ??0CHtmlEditDoc@@QEAA@XZ @ 559 NONAME
 ??0CHtmlEditView@@QEAA@XZ @ 560 NONAME
 ??0CHtmlView@@IEAA@XZ @ 561 NONAME
 ??0CHttpConnection@@QEAA@PEAVCInternetSession@@PEAXPEB_W_K@Z @ 562 NONAME
 ??0CHttpConnection@@QEAA@PEAVCInternetSession@@PEB_WG11_K@Z @ 563 NONAME
 ??0CHttpConnection@@QEAA@PEAVCInternetSession@@PEB_WKG11_K@Z @ 564 NONAME
 ??0CHttpFile@@IEAA@PEAX0PEB_W11_K@Z @ 565 NONAME
 ??0CHttpFile@@IEAA@PEAXPEB_W1PEAVCHttpConnection@@@Z @ 566 NONAME
 ??0CHwndRenderTarget@@QEAA@PEAUHWND__@@@Z @ 567 NONAME
 ??0CImageList@@QEAA@XZ @ 568 NONAME
 ??0CInternetConnection@@QEAA@PEAVCInternetSession@@PEB_WG_K@Z @ 569 NONAME
 ??0CInternetException@@QEAA@K@Z @ 570 NONAME
 ??0CInternetFile@@IEAA@PEAX0PEB_W1_KH@Z @ 571 NONAME
 ??0CInternetFile@@IEAA@PEAXPEB_WPEAVCInternetConnection@@H@Z @ 572 NONAME
 ??0CInternetSession@@QEAA@PEB_W_KK00K@Z @ 573 NONAME
 ??0CInvalidArgException@@QEAA@HI@Z @ 574 NONAME
 ??0CInvalidArgException@@QEAA@XZ @ 575 NONAME
 ??0CIPAddressCtrl@@QEAA@XZ @ 576 NONAME
 ??0CJumpList@@QEAA@H@Z @ 577 NONAME
 ??0CKeyboardManager@@QEAA@XZ @ 578 NONAME
 ??0CKeyFrame@@QEAA@PEAVCBaseKeyFrame@@N@Z @ 579 NONAME
 ??0CKeyFrame@@QEAA@PEAVCBaseTransition@@@Z @ 580 NONAME
 ??0CListBox@@QEAA@XZ @ 581 NONAME
 ??0CListCtrl@@QEAA@XZ @ 582 NONAME
 ??0CListView@@QEAA@XZ @ 583 NONAME
 ??0CLongBinary@@QEAA@XZ @ 584 NONAME
 ??0CMapPtrToPtr@@QEAA@_J@Z @ 585 NONAME
 ??0CMapPtrToWord@@QEAA@_J@Z @ 586 NONAME
 ??0CMapStringToOb@@QEAA@_J@Z @ 587 NONAME
 ??0CMapStringToPtr@@QEAA@_J@Z @ 588 NONAME
 ??0CMapStringToString@@QEAA@_J@Z @ 589 NONAME
 ??0CMapWordToOb@@QEAA@_J@Z @ 590 NONAME
 ??0CMapWordToPtr@@QEAA@_J@Z @ 591 NONAME
 ??0CMDIChildWnd@@QEAA@XZ @ 592 NONAME
 ??0CMDIChildWndEx@@IEAA@XZ @ 593 NONAME
 ??0CMDIClientAreaWnd@@QEAA@XZ @ 594 NONAME
 ??0CMDIFrameWnd@@QEAA@XZ @ 595 NONAME
 ??0CMDIFrameWndEx@@IEAA@XZ @ 596 NONAME
 ??0CMDITabInfo@@QEAA@XZ @ 597 NONAME
 ??0CMDITabProxyWnd@@QEAA@XZ @ 598 NONAME
 ??0CMemDC@@QEAA@AEAVCDC@@AEBVCRect@@@Z @ 599 NONAME
 ??0CMemDC@@QEAA@AEAVCDC@@PEAVCWnd@@@Z @ 600 NONAME
 ??0CMemFile@@QEAA@I@Z @ 601 NONAME
 ??0CMemFile@@QEAA@PEAEII@Z @ 602 NONAME
 ??0CMemoryException@@QEAA@HI@Z @ 603 NONAME
 ??0CMemoryException@@QEAA@XZ @ 604 NONAME
 ??0CMemoryState@@QEAA@XZ @ 605 NONAME
 ??0CMenu@@QEAA@XZ @ 606 NONAME
 ??0CMenuHash@@QEAA@XZ @ 607 NONAME
 ??0CMenuTearOffManager@@QEAA@XZ @ 608 NONAME
 ??0CMetaFileDC@@QEAA@XZ @ 609 NONAME
 ??0CMFCAcceleratorKey@@QEAA@PEAUtagACCEL@@@Z @ 610 NONAME
 ??0CMFCAcceleratorKey@@QEAA@XZ @ 611 NONAME
 ??0CMFCAcceleratorKeyAssignCtrl@@QEAA@XZ @ 612 NONAME
 ??0CMFCAutoHideBar@@QEAA@XZ @ 613 NONAME
 ??0CMFCAutoHideButton@@QEAA@XZ @ 614 NONAME
 ??0CMFCBaseAccessibleObject@@QEAA@XZ @ 615 NONAME
 ??0CMFCBaseTabCtrl@@QEAA@XZ @ 616 NONAME
 ??0CMFCBaseToolBar@@QEAA@XZ @ 617 NONAME
 ??0CMFCBaseVisualManager@@QEAA@XZ @ 618 NONAME
 ??0CMFCButton@@QEAA@XZ @ 619 NONAME
 ??0CMFCCaptionBar@@QEAA@XZ @ 620 NONAME
 ??0CMFCCaptionButton@@QEAA@IH@Z @ 621 NONAME
 ??0CMFCCaptionButton@@QEAA@XZ @ 622 NONAME
 ??0CMFCCaptionButtonEx@@QEAA@I@Z @ 623 NONAME
 ??0CMFCCaptionMenuButton@@QEAA@IH@Z @ 624 NONAME
 ??0CMFCCaptionMenuButton@@QEAA@XZ @ 625 NONAME
 ??0CMFCCmdUsageCount@@QEAA@XZ @ 626 NONAME
 ??0CMFCColorBar@@IEAA@AEAV0@I@Z @ 627 NONAME
 ??0CMFCColorBar@@IEAA@AEBV?$CArray@KK@@KPEB_W11AEAV?$CList@KK@@HHHKIPEAVCMFCColorButton@@@Z @ 628 NONAME
 ??0CMFCColorBar@@IEAA@AEBV?$CArray@KK@@KPEB_W11AEAV?$CList@KK@@HKIPEAVCMFCRibbonColorButton@@@Z @ 629 NONAME
 ??0CMFCColorBar@@QEAA@XZ @ 630 NONAME
 ??0CMFCColorBarCmdUI@@QEAA@XZ @ 631 NONAME
 ??0CMFCColorButton@@QEAA@XZ @ 632 NONAME
 ??0CMFCColorDialog@@QEAA@KKPEAVCWnd@@PEAUHPALETTE__@@@Z @ 633 NONAME
 ??0CMFCColorMenuButton@@QEAA@IPEB_WPEAVCPalette@@@Z @ 634 NONAME
 ??0CMFCColorMenuButton@@QEAA@XZ @ 635 NONAME
 ??0CMFCColorPickerCtrl@@QEAA@XZ @ 636 NONAME
 ??0CMFCColorPropertySheet@@QEAA@IPEAVCWnd@@I@Z @ 637 NONAME
 ??0CMFCColorPropertySheet@@QEAA@PEB_WPEAVCWnd@@I@Z @ 638 NONAME
 ??0CMFCControlBarImpl@@QEAA@PEAVCPane@@@Z @ 639 NONAME
 ??0CMFCControlContainer@@QEAA@PEAVCWnd@@@Z @ 640 NONAME
 ??0CMFCControlRenderer@@QEAA@XZ @ 641 NONAME
 ??0CMFCControlRendererInfo@@QEAA@AEBV0@@Z @ 642 NONAME
 ??0CMFCControlRendererInfo@@QEAA@IAEBVCRect@@000@Z @ 643 NONAME
 ??0CMFCControlRendererInfo@@QEAA@IKAEBVCRect@@000H@Z @ 644 NONAME
 ??0CMFCControlRendererInfo@@QEAA@PEB_WAEBVCRect@@111@Z @ 645 NONAME
 ??0CMFCControlRendererInfo@@QEAA@PEB_WKAEBVCRect@@111H@Z @ 646 NONAME
 ??0CMFCControlRendererInfo@@QEAA@XZ @ 647 NONAME
 ??0CMFCCustomColorsPropertyPage@@QEAA@XZ @ 648 NONAME
 ??0CMFCCustomizeButton@@QEAA@HAEBV?$CStringT@_WV?$StrTraitMFC_DLL@_WV?$ChTraitsCRT@_W@ATL@@@@@ATL@@@Z @ 649 NONAME
 ??0CMFCCustomizeButton@@QEAA@XZ @ 650 NONAME
 ??0CMFCCustomizeMenuButton@@QEAA@IPEAUHMENU__@@HPEB_WH@Z @ 651 NONAME
 ??0CMFCCustomizeMenuButton@@QEAA@XZ @ 652 NONAME
 ??0CMFCDesktopAlertDialog@@QEAA@XZ @ 653 NONAME
 ??0CMFCDesktopAlertWnd@@QEAA@XZ @ 654 NONAME
 ??0CMFCDragFrameImpl@@QEAA@XZ @ 655 NONAME
 ??0CMFCDropDownFrame@@QEAA@XZ @ 656 NONAME
 ??0CMFCDropDownListBox@@QEAA@PEAVCMFCRibbonComboBox@@@Z @ 657 NONAME
 ??0CMFCDropDownListBox@@QEAA@PEAVCWnd@@@Z @ 658 NONAME
 ??0CMFCDropDownListBox@@QEAA@XZ @ 659 NONAME
 ??0CMFCDropDownToolbarButton@@QEAA@PEB_WPEAVCMFCDropDownToolBar@@@Z @ 660 NONAME
 ??0CMFCDropDownToolbarButton@@QEAA@XZ @ 661 NONAME
 ??0CMFCEditBrowseCtrl@@QEAA@XZ @ 662 NONAME
 ??0CMFCFilterChunkValueImpl@@QEAA@XZ @ 663 NONAME
 ??0CMFCFontComboBox@@QEAA@XZ @ 664 NONAME
 ??0CMFCHeaderCtrl@@QEAA@XZ @ 665 NONAME
 ??0CMFCImageEditorDialog@@QEAA@PEAVCBitmap@@PEAVCWnd@@H@Z @ 666 NONAME
 ??0CMFCImagePaintArea@@QEAA@PEAVCMFCImageEditorDialog@@@Z @ 667 NONAME
 ??0CMFCKeyMapDialog@@QEAA@PEAVCFrameWnd@@H@Z @ 668 NONAME
 ??0CMFCLinkCtrl@@QEAA@XZ @ 669 NONAME
 ??0CMFCListCtrl@@QEAA@XZ @ 670 NONAME
 ??0CMFCMaskedEdit@@QEAA@XZ @ 671 NONAME
 ??0CMFCMenuBar@@QEAA@XZ @ 672 NONAME
 ??0CMFCMenuButton@@QEAA@XZ @ 673 NONAME
 ??0CMFCMousePropertyPage@@QEAA@XZ @ 674 NONAME
 ??0CMFCOutlookBar@@QEAA@XZ @ 675 NONAME
 ??0CMFCOutlookBarPane@@QEAA@XZ @ 676 NONAME
 ??0CMFCOutlookBarPaneAdapter@@QEAA@XZ @ 677 NONAME
 ??0CMFCOutlookBarPaneButton@@QEAA@XZ @ 678 NONAME
 ??0CMFCOutlookBarTabCtrl@@QEAA@XZ @ 679 NONAME
 ??0CMFCOutlookBarToolBar@@QEAA@PEAVCMFCOutlookBarTabCtrl@@@Z @ 680 NONAME
 ??0CMFCPopupMenu@@IEAA@PEAVCMFCToolBarsMenuPropertyPage@@PEB_W@Z @ 681 NONAME
 ??0CMFCPopupMenu@@QEAA@XZ @ 682 NONAME
 ??0CMFCPopupMenuBar@@QEAA@XZ @ 683 NONAME
 ??0CMFCPreviewCtrlImpl@@QEAA@XZ @ 684 NONAME
 ??0CMFCPropertyGridColorProperty@@QEAA@AEBV?$CStringT@_WV?$StrTraitMFC_DLL@_WV?$ChTraitsCRT@_W@ATL@@@@@ATL@@AEBKPEAVCPalette@@PEB_W_K@Z @ 685 NONAME
 ??0CMFCPropertyGridCtrl@@QEAA@XZ @ 686 NONAME
 ??0CMFCPropertyGridFileProperty@@QEAA@AEBV?$CStringT@_WV?$StrTraitMFC_DLL@_WV?$ChTraitsCRT@_W@ATL@@@@@ATL@@0_KPEB_W@Z @ 687 NONAME
 ??0CMFCPropertyGridFileProperty@@QEAA@AEBV?$CStringT@_WV?$StrTraitMFC_DLL@_WV?$ChTraitsCRT@_W@ATL@@@@@ATL@@H0PEB_WK11_K@Z @ 688 NONAME
 ??0CMFCPropertyGridFontProperty@@QEAA@AEBV?$CStringT@_WV?$StrTraitMFC_DLL@_WV?$ChTraitsCRT@_W@ATL@@@@@ATL@@AEAUtagLOGFONTW@@KPEB_W_KK@Z @ 689 NONAME
 ??0CMFCPropertyGridProperty@@QEAA@AEBV?$CStringT@_WV?$StrTraitMFC_DLL@_WV?$ChTraitsCRT@_W@ATL@@@@@ATL@@_KH@Z @ 690 NONAME
 ??0CMFCPropertyGridProperty@@QEAA@AEBV?$CStringT@_WV?$StrTraitMFC_DLL@_WV?$ChTraitsCRT@_W@ATL@@@@@ATL@@AEBVCOleVariant@@PEB_W_K222@Z @ 691 NONAME
 ??0CMFCPropertyGridToolTipCtrl@@QEAA@XZ @ 692 NONAME
 ??0CMFCPropertyPage@@QEAA@II@Z @ 693 NONAME
 ??0CMFCPropertyPage@@QEAA@PEB_WI@Z @ 694 NONAME
 ??0CMFCPropertyPage@@QEAA@XZ @ 695 NONAME
 ??0CMFCPropertySheet@@QEAA@IPEAVCWnd@@I@Z @ 696 NONAME
 ??0CMFCPropertySheet@@QEAA@PEB_WPEAVCWnd@@I@Z @ 697 NONAME
 ??0CMFCPropertySheet@@QEAA@XZ @ 698 NONAME
 ??0CMFCPropertySheetCategoryInfo@@QEAA@PEB_WHHPEBV0@AEAVCMFCPropertySheet@@@Z @ 699 NONAME
 ??0CMFCPropertySheetListBox@@AEAA@XZ @ 700 NONAME
 ??0CMFCPropertySheetTabCtrl@@AEAA@XZ @ 701 NONAME
 ??0CMFCReBar@@QEAA@XZ @ 702 NONAME
 ??0CMFCRibbonBar@@QEAA@H@Z @ 703 NONAME
 ??0CMFCRibbonBaseElement@@QEAA@XZ @ 704 NONAME
 ??0CMFCRibbonButton@@QEAA@IPEB_WHHH@Z @ 705 NONAME
 ??0CMFCRibbonButton@@QEAA@IPEB_WPEAUHICON__@@H1HH@Z @ 706 NONAME
 ??0CMFCRibbonButton@@QEAA@XZ @ 707 NONAME
 ??0CMFCRibbonButtonsGroup@@QEAA@PEAVCMFCRibbonBaseElement@@@Z @ 708 NONAME
 ??0CMFCRibbonButtonsGroup@@QEAA@XZ @ 709 NONAME
 ??0CMFCRibbonCaptionButton@@IEAA@IPEAUHWND__@@@Z @ 710 NONAME
 ??0CMFCRibbonCategory@@IEAA@PEAVCMFCRibbonBar@@PEB_WIIVCSize@@2@Z @ 711 NONAME
 ??0CMFCRibbonCategory@@IEAA@XZ @ 712 NONAME
 ??0CMFCRibbonCheckBox@@QEAA@IPEB_W@Z @ 713 NONAME
 ??0CMFCRibbonCheckBox@@QEAA@XZ @ 714 NONAME
 ??0CMFCRibbonCmdUI@@QEAA@XZ @ 715 NONAME
 ??0CMFCRibbonCollector@@QEAA@AEAVCMFCRibbonInfo@@K@Z @ 716 NONAME
 ??0CMFCRibbonColorButton@@QEAA@IPEB_WHHHK@Z @ 717 NONAME
 ??0CMFCRibbonColorButton@@QEAA@IPEB_WHK@Z @ 718 NONAME
 ??0CMFCRibbonColorButton@@QEAA@XZ @ 719 NONAME
 ??0CMFCRibbonComboBox@@IEAA@XZ @ 720 NONAME
 ??0CMFCRibbonComboBox@@QEAA@IHHPEB_WH@Z @ 721 NONAME
 ??0CMFCRibbonCommandsListBox@@QEAA@PEAVCMFCRibbonBar@@HHH@Z @ 722 NONAME
 ??0CMFCRibbonConstructor@@QEAA@AEBVCMFCRibbonInfo@@@Z @ 723 NONAME
 ??0CMFCRibbonContextCaption@@IEAA@PEB_WIW4AFX_RibbonCategoryColor@@@Z @ 724 NONAME
 ??0CMFCRibbonContextCaption@@IEAA@XZ @ 725 NONAME
 ??0CMFCRibbonCustomizeDialog@@QEAA@PEAVCWnd@@PEAVCMFCRibbonBar@@@Z @ 726 NONAME
 ??0CMFCRibbonCustomizePropertyPage@@QEAA@PEAVCMFCRibbonBar@@@Z @ 727 NONAME
 ??0CMFCRibbonDefaultPanelButton@@QEAA@PEAVCMFCRibbonPanel@@@Z @ 728 NONAME
 ??0CMFCRibbonEdit@@IEAA@XZ @ 729 NONAME
 ??0CMFCRibbonEdit@@QEAA@IHPEB_WH@Z @ 730 NONAME
 ??0CMFCRibbonFontComboBox@@IEAA@XZ @ 731 NONAME
 ??0CMFCRibbonFontComboBox@@QEAA@IHEEH@Z @ 732 NONAME
 ??0CMFCRibbonGallery@@QEAA@IPEB_WHHAEAVCMFCToolBarImages@@@Z @ 733 NONAME
 ??0CMFCRibbonGallery@@QEAA@IPEB_WHHIH@Z @ 734 NONAME
 ??0CMFCRibbonGallery@@QEAA@IPEB_WHHVCSize@@HH@Z @ 735 NONAME
 ??0CMFCRibbonGallery@@QEAA@XZ @ 736 NONAME
 ??0CMFCRibbonGalleryIcon@@QEAA@PEAVCMFCRibbonGallery@@H@Z @ 737 NONAME
 ??0CMFCRibbonGalleryMenuButton@@IEAA@XZ @ 738 NONAME
 ??0CMFCRibbonGalleryMenuButton@@QEAA@IHPEB_WAEAVCMFCToolBarImages@@@Z @ 739 NONAME
 ??0CMFCRibbonGalleryMenuButton@@QEAA@IHPEB_WIH@Z @ 740 NONAME
 ??0CMFCRibbonInfo@@QEAA@XZ @ 741 NONAME
 ??0CMFCRibbonInfoLoader@@QEAA@AEAVCMFCRibbonInfo@@@Z @ 742 NONAME
 ??0CMFCRibbonKeyboardCustomizeDialog@@QEAA@PEAVCMFCRibbonBar@@PEAVCWnd@@@Z @ 743 NONAME
 ??0CMFCRibbonKeyTip@@QEAA@PEAVCMFCRibbonBaseElement@@H@Z @ 744 NONAME
 ??0CMFCRibbonLabel@@IEAA@XZ @ 745 NONAME
 ??0CMFCRibbonLabel@@QEAA@PEB_WH@Z @ 746 NONAME
 ??0CMFCRibbonLaunchButton@@QEAA@XZ @ 747 NONAME
 ??0CMFCRibbonLinkCtrl@@QEAA@IPEB_W0@Z @ 748 NONAME
 ??0CMFCRibbonLinkCtrl@@QEAA@XZ @ 749 NONAME
 ??0CMFCRibbonMainPanel@@QEAA@XZ @ 750 NONAME
 ??0CMFCRibbonMainPanelButton@@QEAA@IPEB_WH@Z @ 751 NONAME
 ??0CMFCRibbonMainPanelButton@@QEAA@IPEB_WPEAUHICON__@@@Z @ 752 NONAME
 ??0CMFCRibbonMainPanelButton@@QEAA@XZ @ 753 NONAME
 ??0CMFCRibbonMiniToolBar@@QEAA@XZ @ 754 NONAME
 ??0CMFCRibbonPanel@@IEAA@PEAVCMFCRibbonGallery@@@Z @ 755 NONAME
 ??0CMFCRibbonPanel@@IEAA@PEB_WPEAUHICON__@@@Z @ 756 NONAME
 ??0CMFCRibbonPanelMenu@@IEAA@XZ @ 757 NONAME
 ??0CMFCRibbonPanelMenu@@QEAA@PEAVCMFCRibbonBar@@AEBV?$CArray@PEAVCMFCRibbonBaseElement@@PEAV1@@@H@Z @ 758 NONAME
 ??0CMFCRibbonPanelMenu@@QEAA@PEAVCMFCRibbonCategory@@VCSize@@@Z @ 759 NONAME
 ??0CMFCRibbonPanelMenu@@QEAA@PEAVCMFCRibbonGallery@@@Z @ 760 NONAME
 ??0CMFCRibbonPanelMenu@@QEAA@PEAVCMFCRibbonPanel@@@Z @ 761 NONAME
 ??0CMFCRibbonPanelMenuBar@@IEAA@XZ @ 762 NONAME
 ??0CMFCRibbonPanelMenuBar@@QEAA@PEAVCMFCRibbonBar@@AEBV?$CArray@PEAVCMFCRibbonBaseElement@@PEAV1@@@H@Z @ 763 NONAME
 ??0CMFCRibbonPanelMenuBar@@QEAA@PEAVCMFCRibbonCategory@@VCSize@@@Z @ 764 NONAME
 ??0CMFCRibbonPanelMenuBar@@QEAA@PEAVCMFCRibbonGallery@@@Z @ 765 NONAME
 ??0CMFCRibbonPanelMenuBar@@QEAA@PEAVCMFCRibbonPanel@@@Z @ 766 NONAME
 ??0CMFCRibbonProgressBar@@QEAA@IHH@Z @ 767 NONAME
 ??0CMFCRibbonProgressBar@@QEAA@XZ @ 768 NONAME
 ??0CMFCRibbonQuickAccessToolBar@@QEAA@XZ @ 769 NONAME
 ??0CMFCRibbonQuickAccessToolBarDefaultState@@QEAA@XZ @ 770 NONAME
 ??0CMFCRibbonRichEditCtrl@@QEAA@AEAVCMFCRibbonEdit@@@Z @ 771 NONAME
 ??0CMFCRibbonSeparator@@QEAA@H@Z @ 772 NONAME
 ??0CMFCRibbonSlider@@QEAA@IH@Z @ 773 NONAME
 ??0CMFCRibbonSlider@@QEAA@XZ @ 774 NONAME
 ??0CMFCRibbonStatusBar@@QEAA@XZ @ 775 NONAME
 ??0CMFCRibbonStatusBarPane@@QEAA@IPEB_WHPEAUHICON__@@0H@Z @ 776 NONAME
 ??0CMFCRibbonStatusBarPane@@QEAA@IPEB_WIHKPEAUHICON__@@HH@Z @ 777 NONAME
 ??0CMFCRibbonStatusBarPane@@QEAA@IPEB_WPEAUHBITMAP__@@HKPEAUHICON__@@HH@Z @ 778 NONAME
 ??0CMFCRibbonStatusBarPane@@QEAA@XZ @ 779 NONAME
 ??0CMFCRibbonTab@@QEAA@XZ @ 780 NONAME
 ??0CMFCRibbonTabsGroup@@QEAA@PEAVCMFCRibbonBaseElement@@@Z @ 781 NONAME
 ??0CMFCRibbonTabsGroup@@QEAA@XZ @ 782 NONAME
 ??0CMFCRibbonUndoButton@@QEAA@IPEB_WHH@Z @ 783 NONAME
 ??0CMFCRibbonUndoButton@@QEAA@IPEB_WPEAUHICON__@@@Z @ 784 NONAME
 ??0CMFCRibbonUndoButton@@QEAA@XZ @ 785 NONAME
 ??0CMFCShadowRenderer@@QEAA@XZ @ 786 NONAME
 ??0CMFCShellListCtrl@@QEAA@XZ @ 787 NONAME
 ??0CMFCShellTreeCtrl@@QEAA@XZ @ 788 NONAME
 ??0CMFCShowAllButton@@QEAA@XZ @ 789 NONAME
 ??0CMFCSpinButtonCtrl@@QEAA@XZ @ 790 NONAME
 ??0CMFCStandardColorsPropertyPage@@QEAA@XZ @ 791 NONAME
 ??0CMFCStatusBar@@QEAA@XZ @ 792 NONAME
 ??0CMFCTabCtrl@@QEAA@XZ @ 793 NONAME
 ??0CMFCTasksPane@@QEAA@XZ @ 794 NONAME
 ??0CMFCTasksPaneFrameWnd@@QEAA@XZ @ 795 NONAME
 ??0CMFCToolBar@@QEAA@XZ @ 796 NONAME
 ??0CMFCToolBarButton@@QEAA@IHPEB_WHH@Z @ 797 NONAME
 ??0CMFCToolBarButton@@QEAA@XZ @ 798 NONAME
 ??0CMFCToolBarButtonCustomizeDialog@@QEAA@PEAVCMFCToolBarButton@@PEAVCMFCToolBarImages@@PEAVCWnd@@HH@Z @ 799 NONAME
 ??0CMFCToolBarButtonsListButton@@QEAA@XZ @ 800 NONAME
 ??0CMFCToolBarComboBoxButton@@QEAA@IHKH@Z @ 801 NONAME
 ??0CMFCToolBarComboBoxButton@@QEAA@XZ @ 802 NONAME
 ??0CMFCToolBarComboBoxEdit@@QEAA@AEAVCMFCToolBarComboBoxButton@@@Z @ 803 NONAME
 ??0CMFCToolBarDateTimeCtrl@@QEAA@IHKH@Z @ 804 NONAME
 ??0CMFCToolBarDateTimeCtrl@@QEAA@XZ @ 805 NONAME
 ??0CMFCToolBarDropSource@@QEAA@XZ @ 806 NONAME
 ??0CMFCToolBarDropTarget@@QEAA@XZ @ 807 NONAME
 ??0CMFCToolBarEditBoxButton@@QEAA@IHKH@Z @ 808 NONAME
 ??0CMFCToolBarEditBoxButton@@QEAA@XZ @ 809 NONAME
 ??0CMFCToolBarEditCtrl@@QEAA@AEAVCMFCToolBarEditBoxButton@@@Z @ 810 NONAME
 ??0CMFCToolBarFontComboBox@@IEAA@PEAVCObList@@HEE@Z @ 811 NONAME
 ??0CMFCToolBarFontComboBox@@IEAA@XZ @ 812 NONAME
 ??0CMFCToolBarFontComboBox@@QEAA@IHHEKHE@Z @ 813 NONAME
 ??0CMFCToolBarFontSizeComboBox@@IEAA@XZ @ 814 NONAME
 ??0CMFCToolBarFontSizeComboBox@@QEAA@IHKH@Z @ 815 NONAME
 ??0CMFCToolBarImages@@QEAA@H@Z @ 816 NONAME
 ??0CMFCToolBarImages@@QEAA@XZ @ 817 NONAME
 ??0CMFCToolBarInfo@@QEAA@XZ @ 818 NONAME
 ??0CMFCToolBarMenuButton@@QEAA@AEBV0@@Z @ 819 NONAME
 ??0CMFCToolBarMenuButton@@QEAA@IPEAUHMENU__@@HPEB_WH@Z @ 820 NONAME
 ??0CMFCToolBarMenuButton@@QEAA@XZ @ 821 NONAME
 ??0CMFCToolBarMenuButtonsButton@@QEAA@I@Z @ 822 NONAME
 ??0CMFCToolBarMenuButtonsButton@@QEAA@XZ @ 823 NONAME
 ??0CMFCToolBarNameDialog@@QEAA@PEAVCWnd@@@Z @ 824 NONAME
 ??0CMFCToolBarsCommandsListBox@@QEAA@XZ @ 825 NONAME
 ??0CMFCToolBarsCommandsPropertyPage@@QEAA@XZ @ 826 NONAME
 ??0CMFCToolBarsCustomizeDialog@@QEAA@PEAVCFrameWnd@@HIPEAV?$CList@PEAUCRuntimeClass@@PEAU1@@@@Z @ 827 NONAME
 ??0CMFCToolBarsKeyboardPropertyPage@@QEAA@PEAVCFrameWnd@@H@Z @ 828 NONAME
 ??0CMFCToolBarsListCheckBox@@QEAA@XZ @ 829 NONAME
 ??0CMFCToolBarsListPropertyPage@@QEAA@PEAVCFrameWnd@@@Z @ 830 NONAME
 ??0CMFCToolBarsMenuPropertyPage@@QEAA@PEAVCFrameWnd@@H@Z @ 831 NONAME
 ??0CMFCToolBarsOptionsPropertyPage@@QEAA@H@Z @ 832 NONAME
 ??0CMFCToolBarSpinEditBoxButton@@QEAA@IHKH@Z @ 833 NONAME
 ??0CMFCToolBarSpinEditBoxButton@@QEAA@XZ @ 834 NONAME
 ??0CMFCToolBarsToolsPropertyPage@@QEAA@XZ @ 835 NONAME
 ??0CMFCToolBarSystemMenuButton@@QEAA@PEAUHMENU__@@PEAUHICON__@@@Z @ 836 NONAME
 ??0CMFCToolBarSystemMenuButton@@QEAA@XZ @ 837 NONAME
 ??0CMFCToolTipCtrl@@QEAA@PEAVCMFCToolTipInfo@@@Z @ 838 NONAME
 ??0CMFCVisualManager@@QEAA@H@Z @ 839 NONAME
 ??0CMFCVisualManagerBitmapCache@@QEAA@XZ @ 840 NONAME
 ??0CMFCVisualManagerBitmapCacheItem@CMFCVisualManagerBitmapCache@@QEAA@XZ @ 841 NONAME
 ??0CMFCVisualManagerOffice2003@@QEAA@XZ @ 842 NONAME
 ??0CMFCVisualManagerOffice2007@@IEAA@XZ @ 843 NONAME
 ??0CMFCVisualManagerOfficeXP@@IEAA@H@Z @ 844 NONAME
 ??0CMFCVisualManagerVS2005@@QEAA@XZ @ 845 NONAME
 ??0CMFCVisualManagerVS2008@@QEAA@XZ @ 846 NONAME
 ??0CMFCVisualManagerWindows@@QEAA@H@Z @ 847 NONAME
 ??0CMFCVisualManagerWindows7@@QEAA@XZ @ 848 NONAME
 ??0CMFCWindowsManagerDialog@@QEAA@PEAVCMDIFrameWndEx@@H@Z @ 849 NONAME
 ??0CMFCZoomKernel@@QEAA@XZ @ 850 NONAME
 ??0CMiniDockFrameWnd@@QEAA@XZ @ 851 NONAME
 ??0CMiniFrameWnd@@QEAA@XZ @ 852 NONAME
 ??0CMonikerFile@@QEAA@XZ @ 853 NONAME
 ??0CMonthCalCtrl@@QEAA@XZ @ 854 NONAME
 ??0CMouseManager@@QEAA@XZ @ 855 NONAME
 ??0CMultiDocTemplate@@QEAA@IPEAUCRuntimeClass@@00@Z @ 856 NONAME
 ??0CMultiLock@@QEAA@QEAPEAVCSyncObject@@KH@Z @ 857 NONAME
 ??0CMultiPageDHtmlDialog@@QEAA@IIPEAVCWnd@@@Z @ 858 NONAME
 ??0CMultiPageDHtmlDialog@@QEAA@PEB_W0PEAVCWnd@@@Z @ 859 NONAME
 ??0CMultiPageDHtmlDialog@@QEAA@XZ @ 860 NONAME
 ??0CMultiPaneFrameWnd@@QEAA@XZ @ 861 NONAME
 ??0CMutex@@QEAA@HPEB_WPEAU_SECURITY_ATTRIBUTES@@@Z @ 862 NONAME
 ??0CNotSupportedException@@QEAA@HI@Z @ 863 NONAME
 ??0CNotSupportedException@@QEAA@XZ @ 864 NONAME
 ??0CObArray@@QEAA@XZ @ 865 NONAME
 ??0CObject@@IEAA@XZ @ 866 NONAME
 ??0CObList@@QEAA@_J@Z @ 867 NONAME
 ??0COleBusyDialog@@QEAA@PEAUHTASK__@@HKPEAVCWnd@@@Z @ 868 NONAME
 ??0COleChangeIconDialog@@QEAA@PEAVCOleClientItem@@KPEAVCWnd@@@Z @ 869 NONAME
 ??0COleChangeSourceDialog@@QEAA@PEAVCOleClientItem@@PEAVCWnd@@@Z @ 870 NONAME
 ??0COleClientItem@@QEAA@PEAVCOleDocument@@@Z @ 871 NONAME
 ??0COleCmdUI@@QEAA@PEAU_tagOLECMD@@KPEBU_GUID@@@Z @ 872 NONAME
 ??0COleCntrFrameWnd@@QEAA@PEAVCOleIPFrameWnd@@@Z @ 873 NONAME
 ??0COleCntrFrameWndEx@@QEAA@PEAVCOleIPFrameWnd@@@Z @ 874 NONAME
 ??0COleControl@@QEAA@XZ @ 875 NONAME
 ??0COleControlContainer@@QEAA@PEAVCWnd@@@Z @ 876 NONAME
 ??0COleControlLock@@QEAA@AEBU_GUID@@@Z @ 877 NONAME
 ??0COleControlSite@@QEAA@PEAVCOleControlContainer@@@Z @ 878 NONAME
 ??0COleControlSiteOrWnd@@QEAA@PEAUHWND__@@H@Z @ 879 NONAME
 ??0COleControlSiteOrWnd@@QEAA@PEAVCOleControlSite@@@Z @ 880 NONAME
 ??0COleControlSiteOrWnd@@QEAA@XZ @ 881 NONAME
 ??0COleConvertDialog@@QEAA@PEAVCOleClientItem@@KPEAU_GUID@@PEAVCWnd@@@Z @ 882 NONAME
 ??0COleCurrency@@QEAA@AEBUtagVARIANT@@@Z @ 883 NONAME
 ??0COleCurrency@@QEAA@AEBV0@@Z @ 884 NONAME
 ??0COleCurrency@@QEAA@JJ@Z @ 885 NONAME
 ??0COleCurrency@@QEAA@TtagCY@@@Z @ 886 NONAME
 ??0COleCurrency@@QEAA@XZ @ 887 NONAME
 ??0COleDataObject@@QEAA@XZ @ 888 NONAME
 ??0COleDataSource@@QEAA@XZ @ 889 NONAME
 ??0COleDialog@@QEAA@PEAVCWnd@@@Z @ 890 NONAME
 ??0COleDispatchDriver@@QEAA@AEBV0@@Z @ 891 NONAME
 ??0COleDispatchDriver@@QEAA@PEAUIDispatch@@H@Z @ 892 NONAME
 ??0COleDispatchDriver@@QEAA@XZ @ 893 NONAME
 ??0COleDispatchException@@QEAA@PEB_WIG@Z @ 894 NONAME
 ??0COleDocIPFrameWnd@@QEAA@XZ @ 895 NONAME
 ??0COleDocIPFrameWndEx@@IEAA@XZ @ 896 NONAME
 ??0COleDocObjectItem@@QEAA@PEAVCOleDocument@@@Z @ 897 NONAME
 ??0COleDocument@@QEAA@XZ @ 898 NONAME
 ??0COleDropSource@@QEAA@XZ @ 899 NONAME
 ??0COleDropTarget@@QEAA@XZ @ 900 NONAME
 ??0COleException@@QEAA@XZ @ 901 NONAME
 ??0COleFrameHook@@QEAA@PEAVCFrameWnd@@PEAVCOleClientItem@@@Z @ 902 NONAME
 ??0COleInsertDialog@@QEAA@KPEAVCWnd@@@Z @ 903 NONAME
 ??0COleIPFrameWnd@@QEAA@XZ @ 904 NONAME
 ??0COleIPFrameWndEx@@IEAA@XZ @ 905 NONAME
 ??0COleLinkingDoc@@QEAA@XZ @ 906 NONAME
 ??0COleLinksDialog@@QEAA@PEAVCOleDocument@@PEAVCView@@KPEAVCWnd@@@Z @ 907 NONAME
 ??0COleMessageFilter@@QEAA@XZ @ 908 NONAME
 ??0COleObjectFactory@@QEAA@AEBU_GUID@@PEAUCRuntimeClass@@HHPEB_W@Z @ 909 NONAME
 ??0COleObjectFactory@@QEAA@AEBU_GUID@@PEAUCRuntimeClass@@HPEB_W@Z @ 910 NONAME
 ??0COlePasteSpecialDialog@@QEAA@KPEAVCOleDataObject@@PEAVCWnd@@@Z @ 911 NONAME
 ??0COlePropertiesDialog@@QEAA@PEAVCOleClientItem@@IIPEAVCWnd@@@Z @ 912 NONAME
 ??0COlePropertyPage@@QEAA@II@Z @ 913 NONAME
 ??0COleResizeBar@@QEAA@XZ @ 914 NONAME
 ??0COleSafeArray@@QEAA@AEBUtagSAFEARRAY@@G@Z @ 915 NONAME
 ??0COleSafeArray@@QEAA@AEBUtagVARIANT@@@Z @ 916 NONAME
 ??0COleSafeArray@@QEAA@AEBV0@@Z @ 917 NONAME
 ??0COleSafeArray@@QEAA@AEBVCOleVariant@@@Z @ 918 NONAME
 ??0COleSafeArray@@QEAA@PEBUtagSAFEARRAY@@G@Z @ 919 NONAME
 ??0COleSafeArray@@QEAA@PEBUtagVARIANT@@@Z @ 920 NONAME
 ??0COleSafeArray@@QEAA@XZ @ 921 NONAME
 ??0COleServerDoc@@QEAA@XZ @ 922 NONAME
 ??0COleServerDocEx@@IEAA@XZ @ 923 NONAME
 ??0COleServerItem@@IEAA@PEAVCOleServerDoc@@H@Z @ 924 NONAME
 ??0COleStreamFile@@QEAA@PEAUIStream@@@Z @ 925 NONAME
 ??0COleTemplateServer@@QEAA@XZ @ 926 NONAME
 ??0COleUILinkInfo@@QEAA@PEAVCOleClientItem@@@Z @ 927 NONAME
 ??0COleUILinkInfo@@QEAA@PEAVCOleDocument@@@Z @ 928 NONAME
 ??0COleUpdateDialog@@QEAA@PEAVCOleDocument@@HHPEAVCWnd@@@Z @ 929 NONAME
 ??0COleVariant@@QEAA@_J@Z @ 930 NONAME
 ??0COleVariant@@QEAA@_K@Z @ 931 NONAME
 ??0COleVariant@@QEAA@AEAV?$CStringT@_WV?$StrTraitMFC_DLL@_WV?$ChTraitsCRT@_W@ATL@@@@@ATL@@@Z @ 932 NONAME
 ??0COleVariant@@QEAA@AEBUtagVARIANT@@@Z @ 933 NONAME
 ??0COleVariant@@QEAA@AEBV0@@Z @ 934 NONAME
 ??0COleVariant@@QEAA@AEBVCByteArray@@@Z @ 935 NONAME
 ??0COleVariant@@QEAA@AEBVCLongBinary@@@Z @ 936 NONAME
 ??0COleVariant@@QEAA@AEBVCOleCurrency@@@Z @ 937 NONAME
 ??0COleVariant@@QEAA@AEBVCOleDateTime@ATL@@@Z @ 938 NONAME
 ??0COleVariant@@QEAA@E@Z @ 939 NONAME
 ??0COleVariant@@QEAA@FG@Z @ 940 NONAME
 ??0COleVariant@@QEAA@JG@Z @ 941 NONAME
 ??0COleVariant@@QEAA@M@Z @ 942 NONAME
 ??0COleVariant@@QEAA@N@Z @ 943 NONAME
 ??0COleVariant@@QEAA@PEB_W@Z @ 944 NONAME
 ??0COleVariant@@QEAA@PEB_WG@Z @ 945 NONAME
 ??0COleVariant@@QEAA@PEBUtagVARIANT@@@Z @ 946 NONAME
 ??0COleVariant@@QEAA@PEFBU_ITEMIDLIST@@@Z @ 947 NONAME
 ??0COleVariant@@QEAA@XZ @ 948 NONAME
 ??0COutlookOptionsDlg@@QEAA@AEAVCMFCOutlookBarTabCtrl@@@Z @ 949 NONAME
 ??0CPageSetupDialog@@QEAA@KPEAVCWnd@@@Z @ 950 NONAME
 ??0CPaintDC@@QEAA@PEAVCWnd@@@Z @ 951 NONAME
 ??0CPalette@@QEAA@XZ @ 952 NONAME
 ??0CPane@@IEAA@XZ @ 953 NONAME
 ??0CPaneContainer@@QEAA@PEAVCPaneContainerManager@@PEAVCDockablePane@@1PEAVCPaneDivider@@@Z @ 954 NONAME
 ??0CPaneContainerManager@@QEAA@XZ @ 955 NONAME
 ??0CPaneDialog@@QEAA@XZ @ 956 NONAME
 ??0CPaneDivider@@QEAA@HPEAVCWnd@@@Z @ 957 NONAME
 ??0CPaneDivider@@QEAA@XZ @ 958 NONAME
 ??0CPaneFrameWnd@@QEAA@XZ @ 959 NONAME
 ??0CPen@@QEAA@HHK@Z @ 960 NONAME
 ??0CPen@@QEAA@HHPEBUtagLOGBRUSH@@HPEBK@Z @ 961 NONAME
 ??0CPen@@QEAA@XZ @ 962 NONAME
 ??0CPictureHolder@@QEAA@XZ @ 963 NONAME
 ??0CPngImage@@QEAA@XZ @ 964 NONAME
 ??0CPreviewDC@@QEAA@XZ @ 965 NONAME
 ??0CPreviewView@@QEAA@XZ @ 966 NONAME
 ??0CPreviewViewEx@@IEAA@XZ @ 967 NONAME
 ??0CPrintDialog@@IEAA@AEAUtagPDW@@@Z @ 968 NONAME
 ??0CPrintDialog@@QEAA@HKPEAVCWnd@@@Z @ 969 NONAME
 ??0CPrintDialogEx@@QEAA@KPEAVCWnd@@@Z @ 970 NONAME
 ??0CPrintInfo@@QEAA@XZ @ 971 NONAME
 ??0CPrintPreviewState@@QEAA@XZ @ 972 NONAME
 ??0CProgressCtrl@@QEAA@XZ @ 973 NONAME
 ??0CPropbagPropExchange@@QEAA@PEAUIPropertyBag@@PEAUIErrorLog@@HH@Z @ 974 NONAME
 ??0CProperty@@QEAA@KQEAXK@Z @ 975 NONAME
 ??0CProperty@@QEAA@XZ @ 976 NONAME
 ??0CPropertyPage@@QEAA@IIIIK@Z @ 977 NONAME
 ??0CPropertyPage@@QEAA@IIK@Z @ 978 NONAME
 ??0CPropertyPage@@QEAA@PEB_WIIIK@Z @ 979 NONAME
 ??0CPropertyPage@@QEAA@PEB_WIK@Z @ 980 NONAME
 ??0CPropertyPage@@QEAA@XZ @ 981 NONAME
 ??0CPropertySection@@QEAA@U_GUID@@@Z @ 982 NONAME
 ??0CPropertySection@@QEAA@XZ @ 983 NONAME
 ??0CPropertySet@@QEAA@U_GUID@@@Z @ 984 NONAME
 ??0CPropertySet@@QEAA@XZ @ 985 NONAME
 ??0CPropertySheet@@QEAA@IPEAVCWnd@@I@Z @ 986 NONAME
 ??0CPropertySheet@@QEAA@IPEAVCWnd@@IPEAUHBITMAP__@@PEAUHPALETTE__@@1@Z @ 987 NONAME
 ??0CPropertySheet@@QEAA@PEB_WPEAVCWnd@@I@Z @ 988 NONAME
 ??0CPropertySheet@@QEAA@PEB_WPEAVCWnd@@IPEAUHBITMAP__@@PEAUHPALETTE__@@2@Z @ 989 NONAME
 ??0CPropertySheet@@QEAA@XZ @ 990 NONAME
 ??0CPropExchange@@IEAA@XZ @ 991 NONAME
 ??0CPropsetPropExchange@@QEAA@AEAVCPropertySection@@PEAUIStorage@@H@Z @ 992 NONAME
 ??0CPtrArray@@QEAA@XZ @ 993 NONAME
 ??0CPtrList@@QEAA@_J@Z @ 994 NONAME
 ??0CReBar@@QEAA@XZ @ 995 NONAME
 ??0CReBarCtrl@@QEAA@XZ @ 996 NONAME
 ??0CRecentDockSiteInfo@@QEAA@PEAVCPane@@@Z @ 997 NONAME
 ??0CRecentFileList@@QEAA@IPEB_W0HH@Z @ 998 NONAME
 ??0CRecentPaneContainerInfo@@QEAA@XZ @ 999 NONAME
 ??0CRecordset@@QEAA@PEAVCDatabase@@@Z @ 1000 NONAME
 ??0CRecordView@@IEAA@I@Z @ 1001 NONAME
 ??0CRecordView@@IEAA@PEB_W@Z @ 1002 NONAME
 ??0CRectTracker@@QEAA@PEBUtagRECT@@I@Z @ 1003 NONAME
 ??0CRectTracker@@QEAA@XZ @ 1004 NONAME
 ??0CRenderTarget@@QEAA@XZ @ 1005 NONAME
 ??0CReObject@@QEAA@PEAVCRichEditCntrItem@@@Z @ 1006 NONAME
 ??0CReObject@@QEAA@XZ @ 1007 NONAME
 ??0CResetPropExchange@@QEAA@XZ @ 1008 NONAME
 ??0CResourceException@@QEAA@HI@Z @ 1009 NONAME
 ??0CResourceException@@QEAA@XZ @ 1010 NONAME
 ??0CRgn@@QEAA@XZ @ 1011 NONAME
 ??0CRibbonCategoryScroll@@AEAA@XZ @ 1012 NONAME
 ??0CRichEditCntrItem@@QEAA@PEAU_reobject@@PEAVCRichEditDoc@@@Z @ 1013 NONAME
 ??0CRichEditCtrl@@QEAA@XZ @ 1014 NONAME
 ??0CRichEditDoc@@IEAA@XZ @ 1015 NONAME
 ??0CRichEditView@@QEAA@XZ @ 1016 NONAME
 ??0CScreenWnd@@QEAA@XZ @ 1017 NONAME
 ??0CScrollBar@@QEAA@XZ @ 1018 NONAME
 ??0CScrollView@@IEAA@XZ @ 1019 NONAME
 ??0CSemaphore@@QEAA@JJPEB_WPEAU_SECURITY_ATTRIBUTES@@@Z @ 1020 NONAME
 ??0CSettingsStore@@IEAA@XZ @ 1021 NONAME
 ??0CSettingsStore@@QEAA@HH@Z @ 1022 NONAME
 ??0CSharedFile@@QEAA@II@Z @ 1023 NONAME
 ??0CShellManager@@QEAA@XZ @ 1024 NONAME
 ??0CSimpleException@@QEAA@H@Z @ 1025 NONAME
 ??0CSimpleException@@QEAA@XZ @ 1026 NONAME
 ??0CSingleDocTemplate@@QEAA@IPEAUCRuntimeClass@@00@Z @ 1027 NONAME
 ??0CSingleLock@@QEAA@PEAVCSyncObject@@H@Z @ 1028 NONAME
 ??0CSliderCtrl@@QEAA@XZ @ 1029 NONAME
 ??0CSmartDockingGroupGuide@@QEAA@XZ @ 1030 NONAME
 ??0CSmartDockingGroupGuidesManager@@QEAA@XZ @ 1031 NONAME
 ??0CSmartDockingGroupGuidesWnd@@IEAA@XZ @ 1032 NONAME
 ??0CSmartDockingHighlighterWnd@@QEAA@XZ @ 1033 NONAME
 ??0CSmartDockingInfo@@QEAA@XZ @ 1034 NONAME
 ??0CSmartDockingManager@@QEAA@XZ @ 1035 NONAME
 ??0CSmartDockingStandaloneGuide@@QEAA@XZ @ 1036 NONAME
 ??0CSmartDockingStandaloneGuideWnd@@QEAA@XZ @ 1037 NONAME
 ??0CSocket@@QEAA@XZ @ 1038 NONAME
 ??0CSocketFile@@QEAA@PEAVCSocket@@H@Z @ 1039 NONAME
 ??0CSocketWnd@@QEAA@XZ @ 1040 NONAME
 ??0CSpinButtonCtrl@@QEAA@XZ @ 1041 NONAME
 ??0CSplitButton@@QEAA@II@Z @ 1042 NONAME
 ??0CSplitButton@@QEAA@PEAVCMenu@@@Z @ 1043 NONAME
 ??0CSplitButton@@QEAA@XZ @ 1044 NONAME
 ??0CSplitterWnd@@QEAA@XZ @ 1045 NONAME
 ??0CSplitterWndEx@@QEAA@XZ @ 1046 NONAME
 ??0CStatic@@QEAA@XZ @ 1047 NONAME
 ??0CStatusBar@@QEAA@XZ @ 1048 NONAME
 ??0CStatusBarCtrl@@QEAA@XZ @ 1049 NONAME
 ??0CStdioFile@@QEAA@PEAU_iobuf@@@Z @ 1050 NONAME
 ??0CStdioFile@@QEAA@PEAVCAtlTransactionManager@ATL@@@Z @ 1051 NONAME
 ??0CStdioFile@@QEAA@PEB_WI@Z @ 1052 NONAME
 ??0CStdioFile@@QEAA@PEB_WIPEAVCAtlTransactionManager@ATL@@@Z @ 1053 NONAME
 ??0CStdioFile@@QEAA@XZ @ 1054 NONAME
 ??0CStringArray@@QEAA@XZ @ 1055 NONAME
 ??0CStringList@@QEAA@_J@Z @ 1056 NONAME
 ??0CSyncObject@@QEAA@PEB_W@Z @ 1057 NONAME
 ??0CTabbedPane@@QEAA@H@Z @ 1058 NONAME
 ??0CTabCtrl@@QEAA@XZ @ 1059 NONAME
 ??0CTabView@@IEAA@XZ @ 1060 NONAME
 ??0CTagManager@@QEAA@PEB_W@Z @ 1061 NONAME
 ??0CTaskDialog@@QEAA@AEBV?$CStringT@_WV?$StrTraitMFC_DLL@_WV?$ChTraitsCRT@_W@ATL@@@@@ATL@@00HH0@Z @ 1062 NONAME
 ??0CTaskDialog@@QEAA@AEBV?$CStringT@_WV?$StrTraitMFC_DLL@_WV?$ChTraitsCRT@_W@ATL@@@@@ATL@@00HHHH0@Z @ 1063 NONAME
 ??0CTestCmdUI@@QEAA@XZ @ 1064 NONAME
 ??0CThreadSlotData@@QEAA@XZ @ 1065 NONAME
 ??0CToolBar@@QEAA@XZ @ 1066 NONAME
 ??0CToolBarCtrl@@QEAA@XZ @ 1067 NONAME
 ??0CToolTipCtrl@@QEAA@XZ @ 1068 NONAME
 ??0CTooltipManager@@QEAA@XZ @ 1069 NONAME
 ??0CTreeCtrl@@QEAA@XZ @ 1070 NONAME
 ??0CTreeView@@QEAA@XZ @ 1071 NONAME
 ??0CUIntArray@@QEAA@XZ @ 1072 NONAME
 ??0CUserException@@QEAA@HI@Z @ 1073 NONAME
 ??0CUserException@@QEAA@XZ @ 1074 NONAME
 ??0CUserTool@@QEAA@XZ @ 1075 NONAME
 ??0CUserToolsManager@@QEAA@IIIPEAUCRuntimeClass@@II@Z @ 1076 NONAME
 ??0CUserToolsManager@@QEAA@XZ @ 1077 NONAME
 ??0CView@@IEAA@XZ @ 1078 NONAME
 ??0CVSListBox@@QEAA@XZ @ 1079 NONAME
 ??0CVSListBoxBase@@IEAA@XZ @ 1080 NONAME
 ??0CVSListBoxEditCtrl@@QEAA@XZ @ 1081 NONAME
 ??0CWaitCursor@@QEAA@XZ @ 1082 NONAME
 ??0CWinApp@@QEAA@PEB_W@Z @ 1083 NONAME
 ??0CWinAppEx@@QEAA@H@Z @ 1084 NONAME
 ??0CWindowDC@@QEAA@PEAVCWnd@@@Z @ 1085 NONAME
 ??0CWindowlessDC@@QEAA@PEAUHDC__@@AEAVCPoint@@@Z @ 1086 NONAME
 ??0CWinThread@@QEAA@P6AIPEAX@Z0@Z @ 1087 NONAME
 ??0CWinThread@@QEAA@XZ @ 1088 NONAME
 ??0CWnd@@AEAA@PEAUHWND__@@@Z @ 1089 NONAME
 ??0CWnd@@QEAA@XZ @ 1090 NONAME
 ??0CWordArray@@QEAA@XZ @ 1091 NONAME
 ??0CXMLParserCollection@@IEAA@PEAUIXMLDOMNodeList@@@Z @ 1092 NONAME
 ??0PAGE_INFO@CPreviewView@@QEAA@XZ @ 1093 NONAME
 ??0XBase@CMFCRibbonInfo@@IEAA@W4XElementType@1@@Z @ 1094 NONAME
 ??0XCategory@CMFCRibbonInfo@@QEAA@XZ @ 1095 NONAME
 ??0XCategoryMain@CMFCRibbonInfo@@QEAA@XZ @ 1096 NONAME
 ??0XContext@CMFCRibbonInfo@@QEAA@XZ @ 1097 NONAME
 ??0XElement@CMFCRibbonInfo@@IEAA@W4XElementType@1@@Z @ 1098 NONAME
 ??0XElementButton@CMFCRibbonInfo@@IEAA@W4XElementType@1@@Z @ 1099 NONAME
 ??0XElementButton@CMFCRibbonInfo@@QEAA@XZ @ 1100 NONAME
 ??0XElementButtonApplication@CMFCRibbonInfo@@QEAA@XZ @ 1101 NONAME
 ??0XElementButtonCheck@CMFCRibbonInfo@@QEAA@XZ @ 1102 NONAME
 ??0XElementButtonColor@CMFCRibbonInfo@@QEAA@XZ @ 1103 NONAME
 ??0XElementButtonGallery@CMFCRibbonInfo@@IEAA@W4XElementType@1@@Z @ 1104 NONAME
 ??0XElementButtonGallery@CMFCRibbonInfo@@QEAA@XZ @ 1105 NONAME
 ??0XElementButtonLaunch@CMFCRibbonInfo@@QEAA@XZ @ 1106 NONAME
 ??0XElementButtonLinkCtrl@CMFCRibbonInfo@@QEAA@XZ @ 1107 NONAME
 ??0XElementButtonMainPanel@CMFCRibbonInfo@@QEAA@XZ @ 1108 NONAME
 ??0XElementButtonUndo@CMFCRibbonInfo@@QEAA@XZ @ 1109 NONAME
 ??0XElementComboBox@CMFCRibbonInfo@@IEAA@W4XElementType@1@@Z @ 1110 NONAME
 ??0XElementComboBox@CMFCRibbonInfo@@QEAA@XZ @ 1111 NONAME
 ??0XElementEdit@CMFCRibbonInfo@@IEAA@W4XElementType@1@@Z @ 1112 NONAME
 ??0XElementEdit@CMFCRibbonInfo@@QEAA@XZ @ 1113 NONAME
 ??0XElementFontComboBox@CMFCRibbonInfo@@QEAA@XZ @ 1114 NONAME
 ??0XElementGroup@CMFCRibbonInfo@@QEAA@XZ @ 1115 NONAME
 ??0XElementLabel@CMFCRibbonInfo@@QEAA@XZ @ 1116 NONAME
 ??0XElementProgressBar@CMFCRibbonInfo@@QEAA@XZ @ 1117 NONAME
 ??0XElementSeparator@CMFCRibbonInfo@@QEAA@XZ @ 1118 NONAME
 ??0XElementSlider@CMFCRibbonInfo@@QEAA@XZ @ 1119 NONAME
 ??0XGalleryGroup@XElementButtonGallery@CMFCRibbonInfo@@QEAA@XZ @ 1120 NONAME
 ??0XID@CMFCRibbonInfo@@QEAA@XZ @ 1121 NONAME
 ??0XImage@CMFCRibbonInfo@@QEAA@XZ @ 1122 NONAME
 ??0XInfoError@CMFCRibbonInfo@@QEAA@XZ @ 1123 NONAME
 ??0XPanel@CMFCRibbonInfo@@QEAA@XZ @ 1124 NONAME
 ??0XQAT@CMFCRibbonInfo@@QEAA@XZ @ 1125 NONAME
 ??0XQATItem@XQAT@CMFCRibbonInfo@@QEAA@XZ @ 1126 NONAME
 ??0XRibbonBar@CMFCRibbonInfo@@QEAA@XZ @ 1127 NONAME
 ??0XRibbonInfoParser@CMFCRibbonInfo@@IEAA@XZ @ 1128 NONAME
 ??0XRibbonInfoParserCollection@CMFCRibbonInfo@@IEAA@XZ @ 1129 NONAME
 ??0XRibbonInfoParserRoot@CMFCRibbonInfo@@IEAA@XZ @ 1130 NONAME
 ??1?$CSimpleStringT@_W$00@ATL@@QEAA@XZ @ 1131 NONAME
 ??1?$CSimpleStringT@D$00@ATL@@QEAA@XZ @ 1132 NONAME
 ??1?$CStringT@_WV?$StrTraitMFC_DLL@_WV?$ChTraitsCRT@_W@ATL@@@@@ATL@@QEAA@XZ @ 1133 NONAME
 ??1?$CStringT@DV?$StrTraitMFC_DLL@DV?$ChTraitsCRT@D@ATL@@@@@ATL@@QEAA@XZ @ 1134 NONAME
 ??1_AFX_CHECKLIST_STATE@@UEAA@XZ @ 1135 NONAME
 ??1_AFX_D2D_STATE@@UEAA@XZ @ 1136 NONAME
 ??1_AFX_DEBUG_STATE@@UEAA@XZ @ 1137 NONAME
 ??1_AFX_EDIT_STATE@@UEAA@XZ @ 1138 NONAME
 ??1_AFX_MAIL_STATE@@UEAA@XZ @ 1139 NONAME
 ??1_AFX_OLE_STATE@@UEAA@XZ @ 1140 NONAME
 ??1_AFX_RICHEDIT_STATE@@UEAA@XZ @ 1141 NONAME
 ??1_AFX_SOCK_STATE@@UEAA@XZ @ 1142 NONAME
 ??1_AFX_THREAD_STATE@@UEAA@XZ @ 1143 NONAME
 ??1_AFXCTL_UIACTIVE_INFO@@QEAA@XZ @ 1144 NONAME
 ??1AFX_GLOBAL_DATA@@QEAA@XZ @ 1145 NONAME
 ??1AFX_MAINTAIN_STATE@@QEAA@XZ @ 1146 NONAME
 ??1AFX_MAINTAIN_STATE2@@QEAA@XZ @ 1147 NONAME
 ??1AFX_MODULE_STATE@@UEAA@XZ @ 1148 NONAME
 ??1AFX_MODULE_THREAD_STATE@@UEAA@XZ @ 1149 NONAME
 ??1CAnimateCtrl@@UEAA@XZ @ 1150 NONAME
 ??1CAnimationBaseObject@@UEAA@XZ @ 1151 NONAME
 ??1CAnimationController@@UEAA@XZ @ 1152 NONAME
 ??1CAnimationGroup@@QEAA@XZ @ 1153 NONAME
 ??1CAnimationVariable@@UEAA@XZ @ 1154 NONAME
 ??1CArchive@@QEAA@XZ @ 1155 NONAME
 ??1CArchiveException@@UEAA@XZ @ 1156 NONAME
 ??1CAsyncMonikerFile@@UEAA@XZ @ 1157 NONAME
 ??1CAsyncSocket@@UEAA@XZ @ 1158 NONAME
 ??1CAutoHideDockSite@@UEAA@XZ @ 1159 NONAME
 ??1CBasePane@@UEAA@XZ @ 1160 NONAME
 ??1CBaseTabbedPane@@UEAA@XZ @ 1161 NONAME
 ??1CBitmap@@UEAA@XZ @ 1162 NONAME
 ??1CBrush@@UEAA@XZ @ 1163 NONAME
 ??1CButton@@UEAA@XZ @ 1164 NONAME
 ??1CByteArray@@UEAA@XZ @ 1165 NONAME
 ??1CClientDC@@UEAA@XZ @ 1166 NONAME
 ??1CCmdTarget@@UEAA@XZ @ 1167 NONAME
 ??1CComboBox@@UEAA@XZ @ 1168 NONAME
 ??1CComboBoxEx@@UEAA@XZ @ 1169 NONAME
 ??1CCommandLineInfo@@UEAA@XZ @ 1170 NONAME
 ??1CCommandManager@@UEAA@XZ @ 1171 NONAME
 ??1CConnectionPoint@@UEAA@XZ @ 1172 NONAME
 ??1CContextMenuManager@@UEAA@XZ @ 1173 NONAME
 ??1CControlBar@@UEAA@XZ @ 1174 NONAME
 ??1CControlSiteFactoryMgr@@UEAA@XZ @ 1175 NONAME
 ??1CCriticalSection@@UEAA@XZ @ 1176 NONAME
 ??1CCtrlView@@UEAA@XZ @ 1177 NONAME
 ??1CD2DBitmap@@UEAA@XZ @ 1178 NONAME
 ??1CD2DBitmapBrush@@UEAA@XZ @ 1179 NONAME
 ??1CD2DBrush@@MEAA@XZ @ 1180 NONAME
 ??1CD2DGeometry@@UEAA@XZ @ 1181 NONAME
 ??1CD2DGeometrySink@@UEAA@XZ @ 1182 NONAME
 ??1CD2DGradientBrush@@UEAA@XZ @ 1183 NONAME
 ??1CD2DLayer@@UEAA@XZ @ 1184 NONAME
 ??1CD2DLinearGradientBrush@@UEAA@XZ @ 1185 NONAME
 ??1CD2DMesh@@UEAA@XZ @ 1186 NONAME
 ??1CD2DRadialGradientBrush@@UEAA@XZ @ 1187 NONAME
 ??1CD2DResource@@MEAA@XZ @ 1188 NONAME
 ??1CD2DSolidColorBrush@@UEAA@XZ @ 1189 NONAME
 ??1CD2DTextFormat@@UEAA@XZ @ 1190 NONAME
 ??1CD2DTextLayout@@UEAA@XZ @ 1191 NONAME
 ??1CDatabase@@UEAA@XZ @ 1192 NONAME
 ??1CDataRecoveryHandler@@UEAA@XZ @ 1193 NONAME
 ??1CDateTimeCtrl@@UEAA@XZ @ 1195 NONAME
 ??1CDBException@@UEAA@XZ @ 1196 NONAME
 ??1CDBVariant@@UEAA@XZ @ 1197 NONAME
 ??1CDC@@UEAA@XZ @ 1198 NONAME
 ??1CDHtmlControlSink@@UEAA@XZ @ 1199 NONAME
 ??1CDHtmlDialog@@UEAA@XZ @ 1200 NONAME
 ??1CDialog@@UEAA@XZ @ 1201 NONAME
 ??1CDialogBar@@UEAA@XZ @ 1202 NONAME
 ??1CDialogImpl@@MEAA@XZ @ 1203 NONAME
 ??1CDialogTemplate@@QEAA@XZ @ 1204 NONAME
 ??1CDocItem@@UEAA@XZ @ 1205 NONAME
 ??1CDockablePane@@UEAA@XZ @ 1206 NONAME
 ??1CDockablePaneAdapter@@UEAA@XZ @ 1207 NONAME
 ??1CDockBar@@UEAA@XZ @ 1208 NONAME
 ??1CDockContext@@UEAA@XZ @ 1209 NONAME
 ??1CDockingManager@@UEAA@XZ @ 1210 NONAME
 ??1CDockingPanesRow@@UEAA@XZ @ 1211 NONAME
 ??1CDockSite@@UEAA@XZ @ 1212 NONAME
 ??1CDockState@@UEAA@XZ @ 1213 NONAME
 ??1CDocManager@@UEAA@XZ @ 1214 NONAME
 ??1CDocObjectServer@@UEAA@XZ @ 1215 NONAME
 ??1CDocObjectServerItem@@UEAA@XZ @ 1216 NONAME
 ??1CDocTemplate@@UEAA@XZ @ 1217 NONAME
 ??1CDocument@@UEAA@XZ @ 1218 NONAME
 ??1CDragListBox@@UEAA@XZ @ 1219 NONAME
 ??1CDrawingManager@@UEAA@XZ @ 1220 NONAME
 ??1CDWordArray@@UEAA@XZ @ 1221 NONAME
 ??1CDynLinkLibrary@@UEAA@XZ @ 1222 NONAME
 ??1CEdit@@UEAA@XZ @ 1223 NONAME
 ??1CEditView@@UEAA@XZ @ 1224 NONAME
 ??1CEnumArray@@UEAA@XZ @ 1225 NONAME
 ??1CEnumConnections@@UEAA@XZ @ 1226 NONAME
 ??1CEnumConnPoints@@UEAA@XZ @ 1227 NONAME
 ??1CEnumFormatEtc@@UEAA@XZ @ 1228 NONAME
 ??1CEnumOleVerb@@UEAA@XZ @ 1229 NONAME
 ??1CEnumUnknown@@UEAA@XZ @ 1230 NONAME
 ??1CEvent@@UEAA@XZ @ 1231 NONAME
 ??1CException@@UEAA@XZ @ 1232 NONAME
 ??1CFile@@UEAA@XZ @ 1233 NONAME
 ??1CFileDialog@@UEAA@XZ @ 1234 NONAME
 ??1CFileException@@UEAA@XZ @ 1235 NONAME
 ??1CFileFind@@UEAA@XZ @ 1236 NONAME
 ??1CFixedAlloc@@QEAA@XZ @ 1237 NONAME
 ??1CFixedAllocNoSync@@QEAA@XZ @ 1238 NONAME
 ??1CFolderPickerDialog@@UEAA@XZ @ 1239 NONAME
 ??1CFont@@UEAA@XZ @ 1240 NONAME
 ??1CFontHolder@@QEAA@XZ @ 1241 NONAME
 ??1CFormView@@UEAA@XZ @ 1242 NONAME
 ??1CFrameImpl@@UEAA@XZ @ 1243 NONAME
 ??1CFrameWnd@@UEAA@XZ @ 1244 NONAME
 ??1CFrameWndEx@@MEAA@XZ @ 1245 NONAME
 ??1CFtpConnection@@UEAA@XZ @ 1246 NONAME
 ??1CFtpFileFind@@UEAA@XZ @ 1247 NONAME
 ??1CFullScreenImpl@@UEAA@XZ @ 1248 NONAME
 ??1CGdiObject@@UEAA@XZ @ 1249 NONAME
 ??1CGestureConfig@@UEAA@XZ @ 1250 NONAME
 ??1CGlobalUtils@@UEAA@XZ @ 1251 NONAME
 ??1CGopherConnection@@UEAA@XZ @ 1252 NONAME
 ??1CGopherFile@@UEAA@XZ @ 1253 NONAME
 ??1CGopherFileFind@@UEAA@XZ @ 1254 NONAME
 ??1CGopherLocator@@UEAA@XZ @ 1255 NONAME
 ??1CHeaderCtrl@@UEAA@XZ @ 1256 NONAME
 ??1CHotKeyCtrl@@UEAA@XZ @ 1257 NONAME
 ??1CHtmlControlSite@@UEAA@XZ @ 1258 NONAME
 ??1CHtmlEditCtrl@@UEAA@XZ @ 1259 NONAME
 ??1CHtmlEditDoc@@UEAA@XZ @ 1260 NONAME
 ??1CHtmlEditView@@UEAA@XZ @ 1261 NONAME
 ??1CHtmlView@@UEAA@XZ @ 1262 NONAME
 ??1CHttpConnection@@UEAA@XZ @ 1263 NONAME
 ??1CHttpFile@@UEAA@XZ @ 1264 NONAME
 ??1CImageList@@UEAA@XZ @ 1265 NONAME
 ??1CInternetConnection@@UEAA@XZ @ 1266 NONAME
 ??1CInternetException@@UEAA@XZ @ 1267 NONAME
 ??1CInternetFile@@UEAA@XZ @ 1268 NONAME
 ??1CInternetSession@@UEAA@XZ @ 1269 NONAME
 ??1CInvalidArgException@@UEAA@XZ @ 1270 NONAME
 ??1CIPAddressCtrl@@UEAA@XZ @ 1271 NONAME
 ??1CJumpList@@QEAA@XZ @ 1272 NONAME
 ??1CKeyboardManager@@UEAA@XZ @ 1273 NONAME
 ??1CListBox@@UEAA@XZ @ 1274 NONAME
 ??1CListCtrl@@UEAA@XZ @ 1275 NONAME
 ??1CLongBinary@@UEAA@XZ @ 1276 NONAME
 ??1CMapPtrToPtr@@UEAA@XZ @ 1277 NONAME
 ??1CMapPtrToWord@@UEAA@XZ @ 1278 NONAME
 ??1CMapStringToOb@@UEAA@XZ @ 1279 NONAME
 ??1CMapStringToPtr@@UEAA@XZ @ 1280 NONAME
 ??1CMapStringToString@@UEAA@XZ @ 1281 NONAME
 ??1CMapWordToOb@@UEAA@XZ @ 1282 NONAME
 ??1CMapWordToPtr@@UEAA@XZ @ 1283 NONAME
 ??1CMDIChildWndEx@@MEAA@XZ @ 1284 NONAME
 ??1CMDIClientAreaWnd@@UEAA@XZ @ 1285 NONAME
 ??1CMDIFrameWndEx@@MEAA@XZ @ 1286 NONAME
 ??1CMDITabProxyWnd@@UEAA@XZ @ 1287 NONAME
 ??1CMemDC@@UEAA@XZ @ 1288 NONAME
 ??1CMemFile@@UEAA@XZ @ 1289 NONAME
 ??1CMemoryException@@UEAA@XZ @ 1290 NONAME
 ??1CMenu@@UEAA@XZ @ 1291 NONAME
 ??1CMenuHash@@UEAA@XZ @ 1292 NONAME
 ??1CMenuTearOffManager@@UEAA@XZ @ 1293 NONAME
 ??1CMetaFileDC@@UEAA@XZ @ 1294 NONAME
 ??1CMFCAcceleratorKey@@UEAA@XZ @ 1295 NONAME
 ??1CMFCAcceleratorKeyAssignCtrl@@UEAA@XZ @ 1296 NONAME
 ??1CMFCAutoHideBar@@UEAA@XZ @ 1297 NONAME
 ??1CMFCAutoHideButton@@UEAA@XZ @ 1298 NONAME
 ??1CMFCBaseAccessibleObject@@UEAA@XZ @ 1299 NONAME
 ??1CMFCBaseTabCtrl@@UEAA@XZ @ 1300 NONAME
 ??1CMFCBaseToolBar@@UEAA@XZ @ 1301 NONAME
 ??1CMFCBaseVisualManager@@UEAA@XZ @ 1302 NONAME
 ??1CMFCButton@@UEAA@XZ @ 1303 NONAME
 ??1CMFCCaptionBar@@UEAA@XZ @ 1304 NONAME
 ??1CMFCCaptionButton@@UEAA@XZ @ 1305 NONAME
 ??1CMFCCaptionButtonEx@@UEAA@XZ @ 1306 NONAME
 ??1CMFCCaptionMenuButton@@UEAA@XZ @ 1307 NONAME
 ??1CMFCCmdUsageCount@@UEAA@XZ @ 1308 NONAME
 ??1CMFCColorBar@@UEAA@XZ @ 1309 NONAME
 ??1CMFCColorButton@@UEAA@XZ @ 1310 NONAME
 ??1CMFCColorDialog@@UEAA@XZ @ 1311 NONAME
 ??1CMFCColorMenuButton@@UEAA@XZ @ 1312 NONAME
 ??1CMFCColorPickerCtrl@@UEAA@XZ @ 1313 NONAME
 ??1CMFCColorPopupMenu@@UEAA@XZ @ 1314 NONAME
 ??1CMFCColorPropertySheet@@UEAA@XZ @ 1315 NONAME
 ??1CMFCControlBarImpl@@UEAA@XZ @ 1316 NONAME
 ??1CMFCControlContainer@@UEAA@XZ @ 1317 NONAME
 ??1CMFCControlRenderer@@UEAA@XZ @ 1318 NONAME
 ??1CMFCControlRendererInfo@@QEAA@XZ @ 1319 NONAME
 ??1CMFCCustomizeButton@@UEAA@XZ @ 1320 NONAME
 ??1CMFCCustomizeMenuButton@@UEAA@XZ @ 1321 NONAME
 ??1CMFCDesktopAlertDialog@@UEAA@XZ @ 1322 NONAME
 ??1CMFCDesktopAlertWnd@@UEAA@XZ @ 1323 NONAME
 ??1CMFCDragFrameImpl@@UEAA@XZ @ 1324 NONAME
 ??1CMFCDropDownFrame@@UEAA@XZ @ 1325 NONAME
 ??1CMFCDropDownListBox@@UEAA@XZ @ 1326 NONAME
 ??1CMFCDropDownToolbarButton@@UEAA@XZ @ 1327 NONAME
 ??1CMFCEditBrowseCtrl@@UEAA@XZ @ 1328 NONAME
 ??1CMFCFilterChunkValueImpl@@UEAA@XZ @ 1329 NONAME
 ??1CMFCFontComboBox@@UEAA@XZ @ 1330 NONAME
 ??1CMFCHeaderCtrl@@UEAA@XZ @ 1331 NONAME
 ??1CMFCImagePaintArea@@UEAA@XZ @ 1332 NONAME
 ??1CMFCKeyMapDialog@@UEAA@XZ @ 1333 NONAME
 ??1CMFCLinkCtrl@@UEAA@XZ @ 1334 NONAME
 ??1CMFCListCtrl@@UEAA@XZ @ 1335 NONAME
 ??1CMFCMaskedEdit@@UEAA@XZ @ 1336 NONAME
 ??1CMFCMenuBar@@UEAA@XZ @ 1337 NONAME
 ??1CMFCMenuButton@@UEAA@XZ @ 1338 NONAME
 ??1CMFCMousePropertyPage@@UEAA@XZ @ 1339 NONAME
 ??1CMFCOutlookBar@@UEAA@XZ @ 1340 NONAME
 ??1CMFCOutlookBarPane@@UEAA@XZ @ 1341 NONAME
 ??1CMFCOutlookBarPaneAdapter@@UEAA@XZ @ 1342 NONAME
 ??1CMFCOutlookBarPaneButton@@UEAA@XZ @ 1343 NONAME
 ??1CMFCOutlookBarTabCtrl@@UEAA@XZ @ 1344 NONAME
 ??1CMFCPopupMenu@@UEAA@XZ @ 1345 NONAME
 ??1CMFCPopupMenuBar@@UEAA@XZ @ 1346 NONAME
 ??1CMFCPreviewCtrlImpl@@UEAA@XZ @ 1347 NONAME
 ??1CMFCPropertyGridColorProperty@@UEAA@XZ @ 1348 NONAME
 ??1CMFCPropertyGridCtrl@@UEAA@XZ @ 1349 NONAME
 ??1CMFCPropertyGridFileProperty@@UEAA@XZ @ 1350 NONAME
 ??1CMFCPropertyGridFontProperty@@UEAA@XZ @ 1351 NONAME
 ??1CMFCPropertyGridProperty@@UEAA@XZ @ 1352 NONAME
 ??1CMFCPropertyGridToolTipCtrl@@UEAA@XZ @ 1353 NONAME
 ??1CMFCPropertyPage@@UEAA@XZ @ 1354 NONAME
 ??1CMFCPropertySheet@@UEAA@XZ @ 1355 NONAME
 ??1CMFCPropertySheetCategoryInfo@@UEAA@XZ @ 1356 NONAME
 ??1CMFCRibbonBar@@UEAA@XZ @ 1357 NONAME
 ??1CMFCRibbonBaseElement@@UEAA@XZ @ 1358 NONAME
 ??1CMFCRibbonButton@@UEAA@XZ @ 1359 NONAME
 ??1CMFCRibbonButtonsGroup@@UEAA@XZ @ 1360 NONAME
 ??1CMFCRibbonCategory@@UEAA@XZ @ 1361 NONAME
 ??1CMFCRibbonCheckBox@@UEAA@XZ @ 1362 NONAME
 ??1CMFCRibbonCollector@@UEAA@XZ @ 1363 NONAME
 ??1CMFCRibbonColorButton@@UEAA@XZ @ 1364 NONAME
 ??1CMFCRibbonComboBox@@UEAA@XZ @ 1365 NONAME
 ??1CMFCRibbonCommandsListBox@@UEAA@XZ @ 1366 NONAME
 ??1CMFCRibbonConstructor@@UEAA@XZ @ 1367 NONAME
 ??1CMFCRibbonCustomizeDialog@@UEAA@XZ @ 1368 NONAME
 ??1CMFCRibbonCustomizePropertyPage@@UEAA@XZ @ 1369 NONAME
 ??1CMFCRibbonEdit@@UEAA@XZ @ 1370 NONAME
 ??1CMFCRibbonFontComboBox@@UEAA@XZ @ 1371 NONAME
 ??1CMFCRibbonGallery@@UEAA@XZ @ 1372 NONAME
 ??1CMFCRibbonGalleryMenuButton@@UEAA@XZ @ 1373 NONAME
 ??1CMFCRibbonInfo@@UEAA@XZ @ 1374 NONAME
 ??1CMFCRibbonInfoLoader@@UEAA@XZ @ 1375 NONAME
 ??1CMFCRibbonKeyboardCustomizeDialog@@UEAA@XZ @ 1376 NONAME
 ??1CMFCRibbonKeyTip@@UEAA@XZ @ 1377 NONAME
 ??1CMFCRibbonLabel@@UEAA@XZ @ 1378 NONAME
 ??1CMFCRibbonLinkCtrl@@UEAA@XZ @ 1379 NONAME
 ??1CMFCRibbonMainPanel@@UEAA@XZ @ 1380 NONAME
 ??1CMFCRibbonMainPanelButton@@UEAA@XZ @ 1381 NONAME
 ??1CMFCRibbonMiniToolBar@@UEAA@XZ @ 1382 NONAME
 ??1CMFCRibbonPanel@@UEAA@XZ @ 1383 NONAME
 ??1CMFCRibbonPanelMenu@@UEAA@XZ @ 1384 NONAME
 ??1CMFCRibbonPanelMenuBar@@UEAA@XZ @ 1385 NONAME
 ??1CMFCRibbonProgressBar@@UEAA@XZ @ 1386 NONAME
 ??1CMFCRibbonQuickAccessToolBar@@UEAA@XZ @ 1387 NONAME
 ??1CMFCRibbonRichEditCtrl@@UEAA@XZ @ 1388 NONAME
 ??1CMFCRibbonSlider@@UEAA@XZ @ 1389 NONAME
 ??1CMFCRibbonStatusBar@@UEAA@XZ @ 1390 NONAME
 ??1CMFCRibbonStatusBarPane@@UEAA@XZ @ 1391 NONAME
 ??1CMFCRibbonTabsGroup@@UEAA@XZ @ 1392 NONAME
 ??1CMFCRibbonUndoButton@@UEAA@XZ @ 1393 NONAME
 ??1CMFCShadowRenderer@@UEAA@XZ @ 1394 NONAME
 ??1CMFCShellListCtrl@@UEAA@XZ @ 1395 NONAME
 ??1CMFCShellTreeCtrl@@UEAA@XZ @ 1396 NONAME
 ??1CMFCShowAllButton@@UEAA@XZ @ 1397 NONAME
 ??1CMFCSpinButtonCtrl@@UEAA@XZ @ 1398 NONAME
 ??1CMFCStatusBar@@UEAA@XZ @ 1399 NONAME
 ??1CMFCTabCtrl@@UEAA@XZ @ 1400 NONAME
 ??1CMFCTasksPane@@UEAA@XZ @ 1401 NONAME
 ??1CMFCTasksPaneFrameWnd@@UEAA@XZ @ 1402 NONAME
 ??1CMFCToolBar@@UEAA@XZ @ 1403 NONAME
 ??1CMFCToolBarButton@@UEAA@XZ @ 1404 NONAME
 ??1CMFCToolBarButtonCustomizeDialog@@UEAA@XZ @ 1405 NONAME
 ??1CMFCToolBarButtonsListButton@@UEAA@XZ @ 1406 NONAME
 ??1CMFCToolBarComboBoxButton@@UEAA@XZ @ 1407 NONAME
 ??1CMFCToolBarComboBoxEdit@@UEAA@XZ @ 1408 NONAME
 ??1CMFCToolBarDateTimeCtrl@@UEAA@XZ @ 1409 NONAME
 ??1CMFCToolBarDropSource@@UEAA@XZ @ 1410 NONAME
 ??1CMFCToolBarDropTarget@@UEAA@XZ @ 1411 NONAME
 ??1CMFCToolBarEditBoxButton@@UEAA@XZ @ 1412 NONAME
 ??1CMFCToolBarEditCtrl@@UEAA@XZ @ 1413 NONAME
 ??1CMFCToolBarFontComboBox@@UEAA@XZ @ 1414 NONAME
 ??1CMFCToolBarFontSizeComboBox@@UEAA@XZ @ 1415 NONAME
 ??1CMFCToolBarImages@@UEAA@XZ @ 1416 NONAME
 ??1CMFCToolBarMenuButton@@UEAA@XZ @ 1417 NONAME
 ??1CMFCToolBarMenuButtonsButton@@UEAA@XZ @ 1418 NONAME
 ??1CMFCToolBarsCommandsListBox@@UEAA@XZ @ 1419 NONAME
 ??1CMFCToolBarsCommandsPropertyPage@@UEAA@XZ @ 1420 NONAME
 ??1CMFCToolBarsCustomizeDialog@@UEAA@XZ @ 1421 NONAME
 ??1CMFCToolBarsKeyboardPropertyPage@@UEAA@XZ @ 1422 NONAME
 ??1CMFCToolBarsListCheckBox@@UEAA@XZ @ 1423 NONAME
 ??1CMFCToolBarsListPropertyPage@@UEAA@XZ @ 1424 NONAME
 ??1CMFCToolBarsMenuPropertyPage@@UEAA@XZ @ 1425 NONAME
 ??1CMFCToolBarsOptionsPropertyPage@@UEAA@XZ @ 1426 NONAME
 ??1CMFCToolBarSpinEditBoxButton@@UEAA@XZ @ 1427 NONAME
 ??1CMFCToolBarsToolsPropertyPage@@UEAA@XZ @ 1428 NONAME
 ??1CMFCToolBarSystemMenuButton@@UEAA@XZ @ 1429 NONAME
 ??1CMFCToolTipCtrl@@UEAA@XZ @ 1430 NONAME
 ??1CMFCVisualManager@@UEAA@XZ @ 1431 NONAME
 ??1CMFCVisualManagerBitmapCache@@UEAA@XZ @ 1432 NONAME
 ??1CMFCVisualManagerBitmapCacheItem@CMFCVisualManagerBitmapCache@@UEAA@XZ @ 1433 NONAME
 ??1CMFCVisualManagerOffice2003@@UEAA@XZ @ 1434 NONAME
 ??1CMFCVisualManagerOffice2007@@MEAA@XZ @ 1435 NONAME
 ??1CMFCVisualManagerOfficeXP@@UEAA@XZ @ 1436 NONAME
 ??1CMFCVisualManagerVS2005@@UEAA@XZ @ 1437 NONAME
 ??1CMFCVisualManagerVS2008@@UEAA@XZ @ 1438 NONAME
 ??1CMFCVisualManagerWindows@@UEAA@XZ @ 1439 NONAME
 ??1CMFCVisualManagerWindows7@@UEAA@XZ @ 1440 NONAME
 ??1CMFCZoomKernel@@UEAA@XZ @ 1441 NONAME
 ??1CMiniFrameWnd@@UEAA@XZ @ 1442 NONAME
 ??1CMonikerFile@@UEAA@XZ @ 1443 NONAME
 ??1CMonthCalCtrl@@UEAA@XZ @ 1444 NONAME
 ??1CMouseManager@@UEAA@XZ @ 1445 NONAME
 ??1CMultiDocTemplate@@UEAA@XZ @ 1446 NONAME
 ??1CMultiLock@@QEAA@XZ @ 1447 NONAME
 ??1CMultiPageDHtmlDialog@@UEAA@XZ @ 1448 NONAME
 ??1CMultiPaneFrameWnd@@UEAA@XZ @ 1449 NONAME
 ??1CMutex@@UEAA@XZ @ 1450 NONAME
 ??1CNotSupportedException@@UEAA@XZ @ 1451 NONAME
 ??1CObArray@@UEAA@XZ @ 1452 NONAME
 ??1CObject@@UEAA@XZ @ 1453 NONAME
 ??1CObList@@UEAA@XZ @ 1454 NONAME
 ??1COleBusyDialog@@UEAA@XZ @ 1455 NONAME
 ??1COleChangeIconDialog@@UEAA@XZ @ 1456 NONAME
 ??1COleChangeSourceDialog@@UEAA@XZ @ 1457 NONAME
 ??1COleClientItem@@UEAA@XZ @ 1458 NONAME
 ??1COleCntrFrameWnd@@UEAA@XZ @ 1459 NONAME
 ??1COleCntrFrameWndEx@@MEAA@XZ @ 1460 NONAME
 ??1COleControl@@UEAA@XZ @ 1461 NONAME
 ??1COleControlContainer@@UEAA@XZ @ 1462 NONAME
 ??1COleControlLock@@UEAA@XZ @ 1463 NONAME
 ??1COleControlSite@@UEAA@XZ @ 1464 NONAME
 ??1COleControlSiteOrWnd@@QEAA@XZ @ 1465 NONAME
 ??1COleConvertDialog@@UEAA@XZ @ 1466 NONAME
 ??1COleDataObject@@QEAA@XZ @ 1467 NONAME
 ??1COleDataSource@@UEAA@XZ @ 1468 NONAME
 ??1COleDispatchDriver@@QEAA@XZ @ 1469 NONAME
 ??1COleDispatchException@@UEAA@XZ @ 1470 NONAME
 ??1COleDocIPFrameWnd@@UEAA@XZ @ 1471 NONAME
 ??1COleDocIPFrameWndEx@@MEAA@XZ @ 1472 NONAME
 ??1COleDocObjectItem@@UEAA@XZ @ 1473 NONAME
 ??1COleDocument@@UEAA@XZ @ 1474 NONAME
 ??1COleDropTarget@@UEAA@XZ @ 1475 NONAME
 ??1COleException@@UEAA@XZ @ 1476 NONAME
 ??1COleFrameHook@@UEAA@XZ @ 1477 NONAME
 ??1COleInsertDialog@@UEAA@XZ @ 1478 NONAME
 ??1COleIPFrameWnd@@UEAA@XZ @ 1479 NONAME
 ??1COleIPFrameWndEx@@MEAA@XZ @ 1480 NONAME
 ??1COleLinkingDoc@@UEAA@XZ @ 1481 NONAME
 ??1COleLinksDialog@@UEAA@XZ @ 1482 NONAME
 ??1COleMessageFilter@@UEAA@XZ @ 1483 NONAME
 ??1COleObjectFactory@@UEAA@XZ @ 1484 NONAME
 ??1COlePasteSpecialDialog@@UEAA@XZ @ 1485 NONAME
 ??1COlePropertyPage@@UEAA@XZ @ 1486 NONAME
 ??1COleResizeBar@@UEAA@XZ @ 1487 NONAME
 ??1COleSafeArray@@QEAA@XZ @ 1488 NONAME
 ??1COleServerDoc@@UEAA@XZ @ 1489 NONAME
 ??1COleServerDocEx@@UEAA@XZ @ 1490 NONAME
 ??1COleServerItem@@UEAA@XZ @ 1491 NONAME
 ??1COleStreamFile@@UEAA@XZ @ 1492 NONAME
 ??1COleUpdateDialog@@UEAA@XZ @ 1493 NONAME
 ??1COleVariant@@QEAA@XZ @ 1494 NONAME
 ??1CPaintDC@@UEAA@XZ @ 1495 NONAME
 ??1CPalette@@UEAA@XZ @ 1496 NONAME
 ??1CPane@@UEAA@XZ @ 1497 NONAME
 ??1CPaneContainer@@UEAA@XZ @ 1498 NONAME
 ??1CPaneContainerManager@@UEAA@XZ @ 1499 NONAME
 ??1CPaneDialog@@UEAA@XZ @ 1500 NONAME
 ??1CPaneDivider@@UEAA@XZ @ 1501 NONAME
 ??1CPaneFrameWnd@@UEAA@XZ @ 1502 NONAME
 ??1CPen@@UEAA@XZ @ 1503 NONAME
 ??1CPictureHolder@@QEAA@XZ @ 1504 NONAME
 ??1CPngImage@@UEAA@XZ @ 1505 NONAME
 ??1CPreviewDC@@UEAA@XZ @ 1506 NONAME
 ??1CPreviewView@@UEAA@XZ @ 1507 NONAME
 ??1CPreviewViewEx@@MEAA@XZ @ 1508 NONAME
 ??1CPrintInfo@@QEAA@XZ @ 1509 NONAME
 ??1CProcessLocalObject@@QEAA@XZ @ 1510 NONAME
 ??1CProgressCtrl@@UEAA@XZ @ 1511 NONAME
 ??1CPropbagPropExchange@@UEAA@XZ @ 1512 NONAME
 ??1CProperty@@QEAA@XZ @ 1513 NONAME
 ??1CPropertyPage@@UEAA@XZ @ 1514 NONAME
 ??1CPropertySection@@QEAA@XZ @ 1515 NONAME
 ??1CPropertySet@@QEAA@XZ @ 1516 NONAME
 ??1CPropertySheet@@UEAA@XZ @ 1517 NONAME
 ??1CPtrArray@@UEAA@XZ @ 1518 NONAME
 ??1CPtrList@@UEAA@XZ @ 1519 NONAME
 ??1CReBarCtrl@@UEAA@XZ @ 1520 NONAME
 ??1CRecentDockSiteInfo@@UEAA@XZ @ 1521 NONAME
 ??1CRecentFileList@@UEAA@XZ @ 1522 NONAME
 ??1CRecentPaneContainerInfo@@UEAA@XZ @ 1523 NONAME
 ??1CRecordset@@UEAA@XZ @ 1524 NONAME
 ??1CRecordView@@UEAA@XZ @ 1525 NONAME
 ??1CRectTracker@@UEAA@XZ @ 1526 NONAME
 ??1CRenderTarget@@UEAA@XZ @ 1527 NONAME
 ??1CReObject@@QEAA@XZ @ 1528 NONAME
 ??1CResourceException@@UEAA@XZ @ 1529 NONAME
 ??1CRgn@@UEAA@XZ @ 1530 NONAME
 ??1CRichEditCntrItem@@UEAA@XZ @ 1531 NONAME
 ??1CRichEditCtrl@@UEAA@XZ @ 1532 NONAME
 ??1CScreenWnd@@UEAA@XZ @ 1533 NONAME
 ??1CScrollBar@@UEAA@XZ @ 1534 NONAME
 ??1CScrollView@@UEAA@XZ @ 1535 NONAME
 ??1CSemaphore@@UEAA@XZ @ 1536 NONAME
 ??1CSettingsStore@@UEAA@XZ @ 1537 NONAME
 ??1CSharedFile@@UEAA@XZ @ 1538 NONAME
 ??1CShellManager@@UEAA@XZ @ 1539 NONAME
 ??1CSimpleException@@UEAA@XZ @ 1540 NONAME
 ??1CSingleDocTemplate@@UEAA@XZ @ 1541 NONAME
 ??1CSingleLock@@QEAA@XZ @ 1542 NONAME
 ??1CSliderCtrl@@UEAA@XZ @ 1543 NONAME
 ??1CSmartDockingGroupGuide@@UEAA@XZ @ 1544 NONAME
 ??1CSmartDockingGroupGuidesManager@@UEAA@XZ @ 1545 NONAME
 ??1CSmartDockingHighlighterWnd@@UEAA@XZ @ 1546 NONAME
 ??1CSmartDockingManager@@UEAA@XZ @ 1547 NONAME
 ??1CSmartDockingStandaloneGuide@@UEAA@XZ @ 1548 NONAME
 ??1CSmartDockingStandaloneGuideWnd@@UEAA@XZ @ 1549 NONAME
 ??1CSocket@@UEAA@XZ @ 1550 NONAME
 ??1CSocketFile@@UEAA@XZ @ 1551 NONAME
 ??1CSpinButtonCtrl@@UEAA@XZ @ 1552 NONAME
 ??1CSplitButton@@UEAA@XZ @ 1553 NONAME
 ??1CSplitterWnd@@UEAA@XZ @ 1554 NONAME
 ??1CSplitterWndEx@@UEAA@XZ @ 1555 NONAME
 ??1CStatic@@UEAA@XZ @ 1556 NONAME
 ??1CStatusBar@@UEAA@XZ @ 1557 NONAME
 ??1CStatusBarCtrl@@UEAA@XZ @ 1558 NONAME
 ??1CStdioFile@@UEAA@XZ @ 1559 NONAME
 ??1CStringArray@@UEAA@XZ @ 1560 NONAME
 ??1CStringList@@UEAA@XZ @ 1561 NONAME
 ??1CSyncObject@@UEAA@XZ @ 1562 NONAME
 ??1CTabbedPane@@UEAA@XZ @ 1563 NONAME
 ??1CTabCtrl@@UEAA@XZ @ 1564 NONAME
 ??1CTabView@@MEAA@XZ @ 1565 NONAME
 ??1CTagManager@@UEAA@XZ @ 1566 NONAME
 ??1CTaskDialog@@UEAA@XZ @ 1567 NONAME
 ??1CThreadLocalObject@@QEAA@XZ @ 1568 NONAME
 ??1CThreadSlotData@@QEAA@XZ @ 1569 NONAME
 ??1CToolBar@@UEAA@XZ @ 1570 NONAME
 ??1CToolBarCtrl@@UEAA@XZ @ 1571 NONAME
 ??1CToolTipCtrl@@UEAA@XZ @ 1572 NONAME
 ??1CTooltipManager@@UEAA@XZ @ 1573 NONAME
 ??1CTreeCtrl@@UEAA@XZ @ 1574 NONAME
 ??1CUIntArray@@UEAA@XZ @ 1575 NONAME
 ??1CUserException@@UEAA@XZ @ 1576 NONAME
 ??1CUserTool@@UEAA@XZ @ 1577 NONAME
 ??1CUserToolsManager@@UEAA@XZ @ 1578 NONAME
 ??1CView@@UEAA@XZ @ 1579 NONAME
 ??1CVSListBox@@UEAA@XZ @ 1580 NONAME
 ??1CVSListBoxBase@@UEAA@XZ @ 1581 NONAME
 ??1CVSListBoxEditCtrl@@UEAA@XZ @ 1582 NONAME
 ??1CWaitCursor@@QEAA@XZ @ 1583 NONAME
 ??1CWinApp@@UEAA@XZ @ 1584 NONAME
 ??1CWinAppEx@@UEAA@XZ @ 1585 NONAME
 ??1CWindowDC@@UEAA@XZ @ 1586 NONAME
 ??1CWinThread@@UEAA@XZ @ 1587 NONAME
 ??1CWnd@@UEAA@XZ @ 1588 NONAME
 ??1CWordArray@@UEAA@XZ @ 1589 NONAME
 ??1XBase@CMFCRibbonInfo@@UEAA@XZ @ 1590 NONAME
 ??1XCategory@CMFCRibbonInfo@@UEAA@XZ @ 1591 NONAME
 ??1XCategoryMain@CMFCRibbonInfo@@UEAA@XZ @ 1592 NONAME
 ??1XContext@CMFCRibbonInfo@@UEAA@XZ @ 1593 NONAME
 ??1XElement@CMFCRibbonInfo@@UEAA@XZ @ 1594 NONAME
 ??1XElementButton@CMFCRibbonInfo@@UEAA@XZ @ 1595 NONAME
 ??1XElementButtonApplication@CMFCRibbonInfo@@UEAA@XZ @ 1596 NONAME
 ??1XElementButtonCheck@CMFCRibbonInfo@@UEAA@XZ @ 1597 NONAME
 ??1XElementButtonColor@CMFCRibbonInfo@@UEAA@XZ @ 1598 NONAME
 ??1XElementButtonGallery@CMFCRibbonInfo@@UEAA@XZ @ 1599 NONAME
 ??1XElementButtonLaunch@CMFCRibbonInfo@@UEAA@XZ @ 1600 NONAME
 ??1XElementButtonLinkCtrl@CMFCRibbonInfo@@UEAA@XZ @ 1601 NONAME
 ??1XElementButtonMainPanel@CMFCRibbonInfo@@UEAA@XZ @ 1602 NONAME
 ??1XElementButtonUndo@CMFCRibbonInfo@@UEAA@XZ @ 1603 NONAME
 ??1XElementComboBox@CMFCRibbonInfo@@UEAA@XZ @ 1604 NONAME
 ??1XElementEdit@CMFCRibbonInfo@@UEAA@XZ @ 1605 NONAME
 ??1XElementFontComboBox@CMFCRibbonInfo@@UEAA@XZ @ 1606 NONAME
 ??1XElementGroup@CMFCRibbonInfo@@UEAA@XZ @ 1607 NONAME
 ??1XElementLabel@CMFCRibbonInfo@@UEAA@XZ @ 1608 NONAME
 ??1XElementProgressBar@CMFCRibbonInfo@@UEAA@XZ @ 1609 NONAME
 ??1XElementSeparator@CMFCRibbonInfo@@UEAA@XZ @ 1610 NONAME
 ??1XElementSlider@CMFCRibbonInfo@@UEAA@XZ @ 1611 NONAME
 ??1XGalleryGroup@XElementButtonGallery@CMFCRibbonInfo@@QEAA@XZ @ 1612 NONAME
 ??1XID@CMFCRibbonInfo@@QEAA@XZ @ 1613 NONAME
 ??1XImage@CMFCRibbonInfo@@QEAA@XZ @ 1614 NONAME
 ??1XInfoError@CMFCRibbonInfo@@QEAA@XZ @ 1615 NONAME
 ??1XPanel@CMFCRibbonInfo@@UEAA@XZ @ 1616 NONAME
 ??1XQAT@CMFCRibbonInfo@@UEAA@XZ @ 1617 NONAME
 ??1XQATItem@XQAT@CMFCRibbonInfo@@QEAA@XZ @ 1618 NONAME
 ??1XRibbonBar@CMFCRibbonInfo@@UEAA@XZ @ 1619 NONAME
 ??1XRibbonInfoParser@CMFCRibbonInfo@@UEAA@XZ @ 1620 NONAME
 ??1XRibbonInfoParserCollection@CMFCRibbonInfo@@UEAA@XZ @ 1621 NONAME
 ??1XRibbonInfoParserRoot@CMFCRibbonInfo@@UEAA@XZ @ 1622 NONAME
 ??2@YAPEAX_K@Z @ 1623 NONAME
 ??2@YAPEAX_KHPEBDH@Z @ 1624 NONAME
 ??2@YAPEAX_KPEBDH@Z @ 1625 NONAME
 ??2CNoTrackObject@@SAPEAX_K@Z @ 1626 NONAME
 ??2CNoTrackObject@@SAPEAX_KPEBDH@Z @ 1627 NONAME
 ??2CObject@@SAPEAX_K@Z @ 1628 NONAME
 ??2CObject@@SAPEAX_KPEAX@Z @ 1629 NONAME
 ??2CObject@@SAPEAX_KPEBDH@Z @ 1630 NONAME
 ??3@YAXPEAX@Z @ 1631 NONAME
 ??3@YAXPEAXHPEBDH@Z @ 1632 NONAME
 ??3@YAXPEAXPEBDH@Z @ 1633 NONAME
 ??3CException@@SAXPEAX@Z @ 1634 NONAME
 ??3CException@@SAXPEAXPEBDH@Z @ 1635 NONAME
 ??3CNoTrackObject@@SAXPEAX@Z @ 1636 NONAME
 ??3CNoTrackObject@@SAXPEAXPEBDH@Z @ 1637 NONAME
 ??3CObject@@SAXPEAX@Z @ 1638 NONAME
 ??3CObject@@SAXPEAX0@Z @ 1639 NONAME
 ??3CObject@@SAXPEAXPEBDH@Z @ 1640 NONAME
 ??4?$CSimpleStringT@_W$00@ATL@@QEAAAEAV01@AEBV?$CSimpleStringT@_W$0A@@1@@Z @ 1641 NONAME
 ??4?$CSimpleStringT@_W$00@ATL@@QEAAAEAV01@AEBV01@@Z @ 1642 NONAME
 ??4?$CSimpleStringT@_W$00@ATL@@QEAAAEAV01@PEB_W@Z @ 1643 NONAME
 ??4?$CSimpleStringT@D$00@ATL@@QEAAAEAV01@AEBV?$CSimpleStringT@D$0A@@1@@Z @ 1644 NONAME
 ??4?$CSimpleStringT@D$00@ATL@@QEAAAEAV01@AEBV01@@Z @ 1645 NONAME
 ??4?$CSimpleStringT@D$00@ATL@@QEAAAEAV01@PEBD@Z @ 1646 NONAME
 ??4?$CStringT@_WV?$StrTraitMFC_DLL@_WV?$ChTraitsCRT@_W@ATL@@@@@ATL@@QEAAAEAV01@_W@Z @ 1647 NONAME
 ??4?$CStringT@_WV?$StrTraitMFC_DLL@_WV?$ChTraitsCRT@_W@ATL@@@@@ATL@@QEAAAEAV01@AEBUtagVARIANT@@@Z @ 1648 NONAME
 ??4?$CStringT@_WV?$StrTraitMFC_DLL@_WV?$ChTraitsCRT@_W@ATL@@@@@ATL@@QEAAAEAV01@AEBV01@@Z @ 1649 NONAME
 ??4?$CStringT@_WV?$StrTraitMFC_DLL@_WV?$ChTraitsCRT@_W@ATL@@@@@ATL@@QEAAAEAV01@D@Z @ 1650 NONAME
 ??4?$CStringT@_WV?$StrTraitMFC_DLL@_WV?$ChTraitsCRT@_W@ATL@@@@@ATL@@QEAAAEAV01@PEB_W@Z @ 1651 NONAME
 ??4?$CStringT@_WV?$StrTraitMFC_DLL@_WV?$ChTraitsCRT@_W@ATL@@@@@ATL@@QEAAAEAV01@PEBD@Z @ 1652 NONAME
 ??4?$CStringT@_WV?$StrTraitMFC_DLL@_WV?$ChTraitsCRT@_W@ATL@@@@@ATL@@QEAAAEAV01@PEBE@Z @ 1653 NONAME
 ??4?$CStringT@DV?$StrTraitMFC_DLL@DV?$ChTraitsCRT@D@ATL@@@@@ATL@@QEAAAEAV01@_W@Z @ 1654 NONAME
 ??4?$CStringT@DV?$StrTraitMFC_DLL@DV?$ChTraitsCRT@D@ATL@@@@@ATL@@QEAAAEAV01@AEBUtagVARIANT@@@Z @ 1655 NONAME
 ??4?$CStringT@DV?$StrTraitMFC_DLL@DV?$ChTraitsCRT@D@ATL@@@@@ATL@@QEAAAEAV01@AEBV01@@Z @ 1656 NONAME
 ??4?$CStringT@DV?$StrTraitMFC_DLL@DV?$ChTraitsCRT@D@ATL@@@@@ATL@@QEAAAEAV01@D@Z @ 1657 NONAME
 ??4?$CStringT@DV?$StrTraitMFC_DLL@DV?$ChTraitsCRT@D@ATL@@@@@ATL@@QEAAAEAV01@PEB_W@Z @ 1658 NONAME
 ??4?$CStringT@DV?$StrTraitMFC_DLL@DV?$ChTraitsCRT@D@ATL@@@@@ATL@@QEAAAEAV01@PEBD@Z @ 1659 NONAME
 ??4?$CStringT@DV?$StrTraitMFC_DLL@DV?$ChTraitsCRT@D@ATL@@@@@ATL@@QEAAAEAV01@PEBE@Z @ 1660 NONAME
 ??4CArchive@@IEAAXAEBV0@@Z @ 1661 NONAME
 ??4CDumpContext@@IEAAXAEBV0@@Z @ 1662 NONAME
 ??4CMFCControlRendererInfo@@QEAAAEAV0@AEBV0@@Z @ 1663 NONAME
 ??4COleCurrency@@QEAAAEBV0@AEBUtagVARIANT@@@Z @ 1664 NONAME
 ??4COleCurrency@@QEAAAEBV0@AEBV0@@Z @ 1665 NONAME
 ??4COleCurrency@@QEAAAEBV0@TtagCY@@@Z @ 1666 NONAME
 ??4COleDispatchDriver@@QEAAAEBV0@AEBV0@@Z @ 1667 NONAME
 ??4COleSafeArray@@QEAAAEAV0@AEBUtagVARIANT@@@Z @ 1668 NONAME
 ??4COleSafeArray@@QEAAAEAV0@AEBV0@@Z @ 1669 NONAME
 ??4COleSafeArray@@QEAAAEAV0@AEBVCOleVariant@@@Z @ 1670 NONAME
 ??4COleSafeArray@@QEAAAEAV0@PEBUtagVARIANT@@@Z @ 1671 NONAME
 ??4COleVariant@@QEAAAEBV0@_J@Z @ 1672 NONAME
 ??4COleVariant@@QEAAAEBV0@_K@Z @ 1673 NONAME
 ??4COleVariant@@QEAAAEBV0@AEBUtagVARIANT@@@Z @ 1674 NONAME
 ??4COleVariant@@QEAAAEBV0@AEBV?$CStringT@_WV?$StrTraitMFC_DLL@_WV?$ChTraitsCRT@_W@ATL@@@@@ATL@@@Z @ 1675 NONAME
 ??4COleVariant@@QEAAAEBV0@AEBV0@@Z @ 1676 NONAME
 ??4COleVariant@@QEAAAEBV0@AEBVCByteArray@@@Z @ 1677 NONAME
 ??4COleVariant@@QEAAAEBV0@AEBVCLongBinary@@@Z @ 1678 NONAME
 ??4COleVariant@@QEAAAEBV0@AEBVCOleCurrency@@@Z @ 1679 NONAME
 ??4COleVariant@@QEAAAEBV0@AEBVCOleDateTime@ATL@@@Z @ 1680 NONAME
 ??4COleVariant@@QEAAAEBV0@E@Z @ 1681 NONAME
 ??4COleVariant@@QEAAAEBV0@F@Z @ 1682 NONAME
 ??4COleVariant@@QEAAAEBV0@J@Z @ 1683 NONAME
 ??4COleVariant@@QEAAAEBV0@M@Z @ 1684 NONAME
 ??4COleVariant@@QEAAAEBV0@N@Z @ 1685 NONAME
 ??4COleVariant@@QEAAAEBV0@PEBUtagVARIANT@@@Z @ 1686 NONAME
 ??4COleVariant@@QEAAAEBV0@QEB_W@Z @ 1687 NONAME
 ??4CRecentDockSiteInfo@@QEAAAEAV0@AEAV0@@Z @ 1688 NONAME
 ??4CRecentPaneContainerInfo@@QEAAAEAV0@AEAV0@@Z @ 1689 NONAME
 ??5@YAAEAVCArchive@@AEAV0@AEAPEAVCByteArray@@@Z @ 1690 NONAME
 ??5@YAAEAVCArchive@@AEAV0@AEAPEAVCDocItem@@@Z @ 1691 NONAME
 ??5@YAAEAVCArchive@@AEAV0@AEAPEAVCDockablePane@@@Z @ 1692 NONAME
 ??5@YAAEAVCArchive@@AEAV0@AEAPEAVCDockablePaneAdapter@@@Z @ 1693 NONAME
 ??5@YAAEAVCArchive@@AEAV0@AEAPEAVCDockState@@@Z @ 1694 NONAME
 ??5@YAAEAVCArchive@@AEAV0@AEAPEAVCDWordArray@@@Z @ 1695 NONAME
 ??5@YAAEAVCArchive@@AEAV0@AEAPEAVCHelpComboBoxButton@@@Z @ 1696 NONAME
 ??5@YAAEAVCArchive@@AEAV0@AEAPEAVCMapStringToOb@@@Z @ 1697 NONAME
 ??5@YAAEAVCArchive@@AEAV0@AEAPEAVCMapStringToString@@@Z @ 1698 NONAME
 ??5@YAAEAVCArchive@@AEAV0@AEAPEAVCMapWordToOb@@@Z @ 1699 NONAME
 ??5@YAAEAVCArchive@@AEAV0@AEAPEAVCMFCColorBar@@@Z @ 1700 NONAME
 ??5@YAAEAVCArchive@@AEAV0@AEAPEAVCMFCColorMenuButton@@@Z @ 1701 NONAME
 ??5@YAAEAVCArchive@@AEAV0@AEAPEAVCMFCCustomizeButton@@@Z @ 1702 NONAME
 ??5@YAAEAVCArchive@@AEAV0@AEAPEAVCMFCDropDownFrame@@@Z @ 1703 NONAME
 ??5@YAAEAVCArchive@@AEAV0@AEAPEAVCMFCDropDownToolBar@@@Z @ 1704 NONAME
 ??5@YAAEAVCArchive@@AEAV0@AEAPEAVCMFCDropDownToolbarButton@@@Z @ 1705 NONAME
 ??5@YAAEAVCArchive@@AEAV0@AEAPEAVCMFCMenuBar@@@Z @ 1706 NONAME
 ??5@YAAEAVCArchive@@AEAV0@AEAPEAVCMFCOutlookBar@@@Z @ 1707 NONAME
 ??5@YAAEAVCArchive@@AEAV0@AEAPEAVCMFCOutlookBarPane@@@Z @ 1708 NONAME
 ??5@YAAEAVCArchive@@AEAV0@AEAPEAVCMFCOutlookBarPaneAdapter@@@Z @ 1709 NONAME
 ??5@YAAEAVCArchive@@AEAV0@AEAPEAVCMFCOutlookBarPaneButton@@@Z @ 1710 NONAME
 ??5@YAAEAVCArchive@@AEAV0@AEAPEAVCMFCPopupMenu@@@Z @ 1711 NONAME
 ??5@YAAEAVCArchive@@AEAV0@AEAPEAVCMFCPopupMenuBar@@@Z @ 1712 NONAME
 ??5@YAAEAVCArchive@@AEAV0@AEAPEAVCMFCTasksPane@@@Z @ 1713 NONAME
 ??5@YAAEAVCArchive@@AEAV0@AEAPEAVCMFCTasksPaneFrameWnd@@@Z @ 1714 NONAME
 ??5@YAAEAVCArchive@@AEAV0@AEAPEAVCMFCTasksPaneToolBar@@@Z @ 1715 NONAME
 ??5@YAAEAVCArchive@@AEAV0@AEAPEAVCMFCToolBar@@@Z @ 1716 NONAME
 ??5@YAAEAVCArchive@@AEAV0@AEAPEAVCMFCToolBarButton@@@Z @ 1717 NONAME
 ??5@YAAEAVCArchive@@AEAV0@AEAPEAVCMFCToolBarColorButton@@@Z @ 1718 NONAME
 ??5@YAAEAVCArchive@@AEAV0@AEAPEAVCMFCToolBarComboBoxButton@@@Z @ 1719 NONAME
 ??5@YAAEAVCArchive@@AEAV0@AEAPEAVCMFCToolBarDateTimeCtrl@@@Z @ 1720 NONAME
 ??5@YAAEAVCArchive@@AEAV0@AEAPEAVCMFCToolBarEditBoxButton@@@Z @ 1721 NONAME
 ??5@YAAEAVCArchive@@AEAV0@AEAPEAVCMFCToolBarFontComboBox@@@Z @ 1722 NONAME
 ??5@YAAEAVCArchive@@AEAV0@AEAPEAVCMFCToolBarFontSizeComboBox@@@Z @ 1723 NONAME
 ??5@YAAEAVCArchive@@AEAV0@AEAPEAVCMFCToolBarMenuButton@@@Z @ 1724 NONAME
 ??5@YAAEAVCArchive@@AEAV0@AEAPEAVCMFCToolBarSpinEditBoxButton@@@Z @ 1725 NONAME
 ??5@YAAEAVCArchive@@AEAV0@AEAPEAVCMFCToolBarSystemMenuButton@@@Z @ 1726 NONAME
 ??5@YAAEAVCArchive@@AEAV0@AEAPEAVCMouseManager@@@Z @ 1727 NONAME
 ??5@YAAEAVCArchive@@AEAV0@AEAPEAVCMultiPaneFrameWnd@@@Z @ 1728 NONAME
 ??5@YAAEAVCArchive@@AEAV0@AEAPEAVCObArray@@@Z @ 1729 NONAME
 ??5@YAAEAVCArchive@@AEAV0@AEAPEAVCObject@@@Z @ 1730 NONAME
 ??5@YAAEAVCArchive@@AEAV0@AEAPEAVCObList@@@Z @ 1731 NONAME
 ??5@YAAEAVCArchive@@AEAV0@AEAPEAVCPaneDialog@@@Z @ 1732 NONAME
 ??5@YAAEAVCArchive@@AEAV0@AEAPEAVCPaneFrameWnd@@@Z @ 1733 NONAME
 ??5@YAAEAVCArchive@@AEAV0@AEAPEAVCRichEditCntrItem@@@Z @ 1734 NONAME
 ??5@YAAEAVCArchive@@AEAV0@AEAPEAVCStringArray@@@Z @ 1735 NONAME
 ??5@YAAEAVCArchive@@AEAV0@AEAPEAVCStringList@@@Z @ 1736 NONAME
 ??5@YAAEAVCArchive@@AEAV0@AEAPEAVCTabbedPane@@@Z @ 1737 NONAME
 ??5@YAAEAVCArchive@@AEAV0@AEAPEAVCTasksPaneHistoryButton@@@Z @ 1738 NONAME
 ??5@YAAEAVCArchive@@AEAV0@AEAPEAVCTasksPaneMenuButton@@@Z @ 1739 NONAME
 ??5@YAAEAVCArchive@@AEAV0@AEAPEAVCTasksPaneNavigateButton@@@Z @ 1740 NONAME
 ??5@YAAEAVCArchive@@AEAV0@AEAPEAVCUserTool@@@Z @ 1741 NONAME
 ??5@YAAEAVCArchive@@AEAV0@AEAPEAVCWordArray@@@Z @ 1742 NONAME
 ??5@YAAEAVCArchive@@AEAV0@AEAPEBVCObject@@@Z @ 1743 NONAME
 ??5@YAAEAVCArchive@@AEAV0@AEAUtagPOINT@@@Z @ 1744 NONAME
 ??5@YAAEAVCArchive@@AEAV0@AEAUtagRECT@@@Z @ 1745 NONAME
 ??5@YAAEAVCArchive@@AEAV0@AEAUtagSIZE@@@Z @ 1746 NONAME
 ??5@YAAEAVCArchive@@AEAV0@AEAVCComBSTR@ATL@@@Z @ 1747 NONAME
 ??5@YAAEAVCArchive@@AEAV0@AEAVCOleCurrency@@@Z @ 1748 NONAME
 ??5@YAAEAVCArchive@@AEAV0@AEAVCOleDateTime@ATL@@@Z @ 1749 NONAME
 ??5@YAAEAVCArchive@@AEAV0@AEAVCOleDateTimeSpan@ATL@@@Z @ 1750 NONAME
 ??5@YAAEAVCArchive@@AEAV0@AEAVCOleVariant@@@Z @ 1751 NONAME
 ??5@YAAEAVCArchive@@AEAV0@AEAVCTime@ATL@@@Z @ 1752 NONAME
 ??5@YAAEAVCArchive@@AEAV0@AEAVCTimeSpan@ATL@@@Z @ 1753 NONAME
 ??5CArchive@@QEAAAEAV0@AEA_J@Z @ 1754 NONAME
 ??5CArchive@@QEAAAEAV0@AEA_K@Z @ 1755 NONAME
 ??5CArchive@@QEAAAEAV0@AEA_N@Z @ 1756 NONAME
 ??5CArchive@@QEAAAEAV0@AEA_W@Z @ 1757 NONAME
 ??5CArchive@@QEAAAEAV0@AEAD@Z @ 1758 NONAME
 ??5CArchive@@QEAAAEAV0@AEAE@Z @ 1759 NONAME
 ??5CArchive@@QEAAAEAV0@AEAF@Z @ 1760 NONAME
 ??5CArchive@@QEAAAEAV0@AEAG@Z @ 1761 NONAME
 ??5CArchive@@QEAAAEAV0@AEAH@Z @ 1762 NONAME
 ??5CArchive@@QEAAAEAV0@AEAI@Z @ 1763 NONAME
 ??5CArchive@@QEAAAEAV0@AEAJ@Z @ 1764 NONAME
 ??5CArchive@@QEAAAEAV0@AEAK@Z @ 1765 NONAME
 ??5CArchive@@QEAAAEAV0@AEAM@Z @ 1766 NONAME
 ??5CArchive@@QEAAAEAV0@AEAN@Z @ 1767 NONAME
 ??6@YAAEAVCArchive@@AEAV0@AEBUtagRECT@@@Z @ 1768 NONAME
 ??6@YAAEAVCArchive@@AEAV0@PEBVCObject@@@Z @ 1769 NONAME
 ??6@YAAEAVCArchive@@AEAV0@UtagPOINT@@@Z @ 1770 NONAME
 ??6@YAAEAVCArchive@@AEAV0@UtagSIZE@@@Z @ 1771 NONAME
 ??6@YAAEAVCArchive@@AEAV0@VCComBSTR@ATL@@@Z @ 1772 NONAME
 ??6@YAAEAVCArchive@@AEAV0@VCOleCurrency@@@Z @ 1773 NONAME
 ??6@YAAEAVCArchive@@AEAV0@VCOleDateTime@ATL@@@Z @ 1774 NONAME
 ??6@YAAEAVCArchive@@AEAV0@VCOleDateTimeSpan@ATL@@@Z @ 1775 NONAME
 ??6@YAAEAVCArchive@@AEAV0@VCOleVariant@@@Z @ 1776 NONAME
 ??6@YAAEAVCArchive@@AEAV0@VCTime@ATL@@@Z @ 1777 NONAME
 ??6@YAAEAVCArchive@@AEAV0@VCTimeSpan@ATL@@@Z @ 1778 NONAME
 ??6@YAAEAVCDumpContext@@AEAV0@AEAVCOleSafeArray@@@Z @ 1779 NONAME
 ??6@YAAEAVCDumpContext@@AEAV0@AEBUtagRECT@@@Z @ 1780 NONAME
 ??6@YAAEAVCDumpContext@@AEAV0@UtagPOINT@@@Z @ 1781 NONAME
 ??6@YAAEAVCDumpContext@@AEAV0@UtagSIZE@@@Z @ 1782 NONAME
 ??6@YAAEAVCDumpContext@@AEAV0@VCOleCurrency@@@Z @ 1783 NONAME
 ??6@YAAEAVCDumpContext@@AEAV0@VCOleDateTime@ATL@@@Z @ 1784 NONAME
 ??6@YAAEAVCDumpContext@@AEAV0@VCOleDateTimeSpan@ATL@@@Z @ 1785 NONAME
 ??6@YAAEAVCDumpContext@@AEAV0@VCOleVariant@@@Z @ 1786 NONAME
 ??6@YAAEAVCDumpContext@@AEAV0@VCTime@ATL@@@Z @ 1787 NONAME
 ??6@YAAEAVCDumpContext@@AEAV0@VCTimeSpan@ATL@@@Z @ 1788 NONAME
 ??6CArchive@@QEAAAEAV0@_J@Z @ 1789 NONAME
 ??6CArchive@@QEAAAEAV0@_K@Z @ 1790 NONAME
 ??6CArchive@@QEAAAEAV0@_N@Z @ 1791 NONAME
 ??6CArchive@@QEAAAEAV0@_W@Z @ 1792 NONAME
 ??6CArchive@@QEAAAEAV0@D@Z @ 1793 NONAME
 ??6CArchive@@QEAAAEAV0@E@Z @ 1794 NONAME
 ??6CArchive@@QEAAAEAV0@F@Z @ 1795 NONAME
 ??6CArchive@@QEAAAEAV0@G@Z @ 1796 NONAME
 ??6CArchive@@QEAAAEAV0@H@Z @ 1797 NONAME
 ??6CArchive@@QEAAAEAV0@I@Z @ 1798 NONAME
 ??6CArchive@@QEAAAEAV0@J@Z @ 1799 NONAME
 ??6CArchive@@QEAAAEAV0@K@Z @ 1800 NONAME
 ??6CArchive@@QEAAAEAV0@M@Z @ 1801 NONAME
 ??6CArchive@@QEAAAEAV0@N@Z @ 1802 NONAME
 ??6CDumpContext@@QEAAAEAV0@_J@Z @ 1803 NONAME
 ??6CDumpContext@@QEAAAEAV0@_K@Z @ 1804 NONAME
 ??6CDumpContext@@QEAAAEAV0@AEBVCObject@@@Z @ 1805 NONAME
 ??6CDumpContext@@QEAAAEAV0@E@Z @ 1806 NONAME
 ??6CDumpContext@@QEAAAEAV0@G@Z @ 1807 NONAME
 ??6CDumpContext@@QEAAAEAV0@H@Z @ 1808 NONAME
 ??6CDumpContext@@QEAAAEAV0@I@Z @ 1809 NONAME
 ??6CDumpContext@@QEAAAEAV0@J@Z @ 1810 NONAME
 ??6CDumpContext@@QEAAAEAV0@K@Z @ 1811 NONAME
 ??6CDumpContext@@QEAAAEAV0@M@Z @ 1812 NONAME
 ??6CDumpContext@@QEAAAEAV0@N@Z @ 1813 NONAME
 ??6CDumpContext@@QEAAAEAV0@PEAUHACCEL__@@@Z @ 1814 NONAME
 ??6CDumpContext@@QEAAAEAV0@PEAUHDC__@@@Z @ 1815 NONAME
 ??6CDumpContext@@QEAAAEAV0@PEAUHFONT__@@@Z @ 1816 NONAME
 ??6CDumpContext@@QEAAAEAV0@PEAUHMENU__@@@Z @ 1817 NONAME
 ??6CDumpContext@@QEAAAEAV0@PEAUHWND__@@@Z @ 1818 NONAME
 ??6CDumpContext@@QEAAAEAV0@PEB_W@Z @ 1819 NONAME
 ??6CDumpContext@@QEAAAEAV0@PEBD@Z @ 1820 NONAME
 ??6CDumpContext@@QEAAAEAV0@PEBVCObject@@@Z @ 1821 NONAME
 ??6CDumpContext@@QEAAAEAV0@PEBX@Z @ 1822 NONAME
 ??8CGdiObject@@QEBAHAEBV0@@Z @ 1823 NONAME
 ??8CMenu@@QEBAHAEBV0@@Z @ 1824 NONAME
 ??8COleCurrency@@QEBAHAEBV0@@Z @ 1825 NONAME
 ??8COleSafeArray@@QEBAHAEBUtagSAFEARRAY@@@Z @ 1826 NONAME
 ??8COleSafeArray@@QEBAHAEBUtagVARIANT@@@Z @ 1827 NONAME
 ??8COleSafeArray@@QEBAHAEBV0@@Z @ 1828 NONAME
 ??8COleSafeArray@@QEBAHAEBVCOleVariant@@@Z @ 1829 NONAME
 ??8COleSafeArray@@QEBAHPEBUtagSAFEARRAY@@@Z @ 1830 NONAME
 ??8COleSafeArray@@QEBAHPEBUtagVARIANT@@@Z @ 1831 NONAME
 ??8COleVariant@@QEBAHAEBUtagVARIANT@@@Z @ 1832 NONAME
 ??8COleVariant@@QEBAHPEBUtagVARIANT@@@Z @ 1833 NONAME
 ??8CWnd@@QEBAHAEBV0@@Z @ 1834 NONAME
 ??9CGdiObject@@QEBAHAEBV0@@Z @ 1835 NONAME
 ??9CMenu@@QEBAHAEBV0@@Z @ 1836 NONAME
 ??9COleCurrency@@QEBAHAEBV0@@Z @ 1837 NONAME
 ??9CWnd@@QEBAHAEBV0@@Z @ 1838 NONAME
 ??A?$CSimpleStringT@_W$00@ATL@@QEBA_WH@Z @ 1839 NONAME
 ??A?$CSimpleStringT@D$00@ATL@@QEBADH@Z @ 1840 NONAME
 ??ACByteArray@@QEAAAEAE_J@Z @ 1841 NONAME
 ??ACByteArray@@QEBAE_J@Z @ 1842 NONAME
 ??ACDWordArray@@QEAAAEAK_J@Z @ 1843 NONAME
 ??ACDWordArray@@QEBAK_J@Z @ 1844 NONAME
 ??ACMapPtrToPtr@@QEAAAEAPEAXPEAX@Z @ 1845 NONAME
 ??ACMapPtrToWord@@QEAAAEAGPEAX@Z @ 1846 NONAME
 ??ACMapStringToOb@@QEAAAEAPEAVCObject@@PEB_W@Z @ 1847 NONAME
 ??ACMapStringToPtr@@QEAAAEAPEAXPEB_W@Z @ 1848 NONAME
 ??ACMapStringToString@@QEAAAEAV?$CStringT@_WV?$StrTraitMFC_DLL@_WV?$ChTraitsCRT@_W@ATL@@@@@ATL@@PEB_W@Z @ 1849 NONAME
 ??ACMapWordToOb@@QEAAAEAPEAVCObject@@G@Z @ 1850 NONAME
 ??ACMapWordToPtr@@QEAAAEAPEAXG@Z @ 1851 NONAME
 ??ACObArray@@QEAAAEAPEAVCObject@@_J@Z @ 1852 NONAME
 ??ACObArray@@QEBAPEAVCObject@@_J@Z @ 1853 NONAME
 ??ACPtrArray@@QEAAAEAPEAX_J@Z @ 1854 NONAME
 ??ACPtrArray@@QEBAPEAX_J@Z @ 1855 NONAME
 ??ACStringArray@@QEAAAEAV?$CStringT@_WV?$StrTraitMFC_DLL@_WV?$ChTraitsCRT@_W@ATL@@@@@ATL@@_J@Z @ 1856 NONAME
 ??ACStringArray@@QEBAAEBV?$CStringT@_WV?$StrTraitMFC_DLL@_WV?$ChTraitsCRT@_W@ATL@@@@@ATL@@_J@Z @ 1857 NONAME
 ??ACUIntArray@@QEAAAEAI_J@Z @ 1858 NONAME
 ??ACUIntArray@@QEBAI_J@Z @ 1859 NONAME
 ??ACWordArray@@QEAAAEAG_J@Z @ 1860 NONAME
 ??ACWordArray@@QEBAG_J@Z @ 1861 NONAME
 ??B?$CSimpleStringT@_W$00@ATL@@QEAAAEAV?$CSimpleStringT@_W$0A@@1@XZ @ 1862 NONAME
 ??B?$CSimpleStringT@_W$00@ATL@@QEBAPEB_WXZ @ 1863 NONAME
 ??B?$CSimpleStringT@D$00@ATL@@QEAAAEAV?$CSimpleStringT@D$0A@@1@XZ @ 1864 NONAME
 ??B?$CSimpleStringT@D$00@ATL@@QEBAPEBDXZ @ 1865 NONAME
 ??B?$CStringT@_WV?$StrTraitMFC_DLL@_WV?$ChTraitsCRT@_W@ATL@@@@@ATL@@QEAAAEAV?$CSimpleStringT@_W$0A@@1@XZ @ 1866 NONAME
 ??B?$CStringT@DV?$StrTraitMFC_DLL@DV?$ChTraitsCRT@D@ATL@@@@@ATL@@QEAAAEAV?$CSimpleStringT@D$0A@@1@XZ @ 1867 NONAME
 ??BCAsyncSocket@@QEBA_KXZ @ 1868 NONAME
 ??BCBitmap@@QEBAPEAUHBITMAP__@@XZ @ 1869 NONAME
 ??BCBrush@@QEBAPEAUHBRUSH__@@XZ @ 1870 NONAME
 ??BCCriticalSection@@QEAAPEAU_RTL_CRITICAL_SECTION@@XZ @ 1871 NONAME
 ??BCDC@@QEBAPEAUHDC__@@XZ @ 1872 NONAME
 ??BCFile@@QEBAPEAXXZ @ 1873 NONAME
 ??BCFont@@QEBAPEAUHFONT__@@XZ @ 1874 NONAME
 ??BCGdiObject@@QEBAPEAXXZ @ 1875 NONAME
 ??BCGopherLocator@@QEBAPEB_WXZ @ 1876 NONAME
 ??BCImageList@@QEBAPEAU_IMAGELIST@@XZ @ 1877 NONAME
 ??BCInternetConnection@@QEBAPEAXXZ @ 1878 NONAME
 ??BCInternetFile@@QEBAPEAXXZ @ 1879 NONAME
 ??BCInternetSession@@QEBAPEAXXZ @ 1880 NONAME
 ??BCMenu@@QEBAPEAUHMENU__@@XZ @ 1881 NONAME
 ??BCOleCurrency@@QEBA?ATtagCY@@XZ @ 1882 NONAME
 ??BCOleDispatchDriver@@QEAAPEAUIDispatch@@XZ @ 1883 NONAME
 ??BCOleSafeArray@@QEAAPEAUtagVARIANT@@XZ @ 1884 NONAME
 ??BCOleSafeArray@@QEBAPEBUtagVARIANT@@XZ @ 1885 NONAME
 ??BCOleVariant@@QEAAPEAUtagVARIANT@@XZ @ 1886 NONAME
 ??BCOleVariant@@QEBAPEBUtagVARIANT@@XZ @ 1887 NONAME
 ??BCPalette@@QEBAPEAUHPALETTE__@@XZ @ 1888 NONAME
 ??BCPen@@QEBAPEAUHPEN__@@XZ @ 1889 NONAME
 ??BCRgn@@QEBAPEAUHRGN__@@XZ @ 1890 NONAME
 ??BCSyncObject@@QEBAPEAXXZ @ 1891 NONAME
 ??BCWinThread@@QEBAPEAXXZ @ 1892 NONAME
 ??BCWnd@@QEBAPEAUHWND__@@XZ @ 1893 NONAME
 ??DCOleCurrency@@QEBA?AV0@J@Z @ 1894 NONAME
 ??GCOleCurrency@@QEBA?AV0@AEBV0@@Z @ 1895 NONAME
 ??GCOleCurrency@@QEBA?AV0@XZ @ 1896 NONAME
 ??HCOleCurrency@@QEBA?AV0@AEBV0@@Z @ 1897 NONAME
 ??KCOleCurrency@@QEBA?AV0@J@Z @ 1898 NONAME
 ??MCOleCurrency@@QEBAHAEBV0@@Z @ 1899 NONAME
 ??NCOleCurrency@@QEBAHAEBV0@@Z @ 1900 NONAME
 ??OCOleCurrency@@QEBAHAEBV0@@Z @ 1901 NONAME
 ??PCOleCurrency@@QEBAHAEBV0@@Z @ 1902 NONAME
 ??XCOleCurrency@@QEAAAEBV0@J@Z @ 1903 NONAME
 ??Y?$CSimpleStringT@_W$00@ATL@@QEAAAEAV01@_W@Z @ 1904 NONAME
 ??Y?$CSimpleStringT@_W$00@ATL@@QEAAAEAV01@AEBV01@@Z @ 1905 NONAME
 ??Y?$CSimpleStringT@_W$00@ATL@@QEAAAEAV01@D@Z @ 1906 NONAME
 ??Y?$CSimpleStringT@_W$00@ATL@@QEAAAEAV01@E@Z @ 1907 NONAME
 ??Y?$CSimpleStringT@_W$00@ATL@@QEAAAEAV01@PEB_W@Z @ 1908 NONAME
 ??Y?$CSimpleStringT@D$00@ATL@@QEAAAEAV01@_W@Z @ 1909 NONAME
 ??Y?$CSimpleStringT@D$00@ATL@@QEAAAEAV01@AEBV01@@Z @ 1910 NONAME
 ??Y?$CSimpleStringT@D$00@ATL@@QEAAAEAV01@D@Z @ 1911 NONAME
 ??Y?$CSimpleStringT@D$00@ATL@@QEAAAEAV01@E@Z @ 1912 NONAME
 ??Y?$CSimpleStringT@D$00@ATL@@QEAAAEAV01@PEBD@Z @ 1913 NONAME
 ??Y?$CStringT@_WV?$StrTraitMFC_DLL@_WV?$ChTraitsCRT@_W@ATL@@@@@ATL@@QEAAAEAV01@_W@Z @ 1914 NONAME
 ??Y?$CStringT@_WV?$StrTraitMFC_DLL@_WV?$ChTraitsCRT@_W@ATL@@@@@ATL@@QEAAAEAV01@AEBUtagVARIANT@@@Z @ 1915 NONAME
 ??Y?$CStringT@_WV?$StrTraitMFC_DLL@_WV?$ChTraitsCRT@_W@ATL@@@@@ATL@@QEAAAEAV01@AEBV?$CSimpleStringT@_W$00@1@@Z @ 1916 NONAME
 ??Y?$CStringT@_WV?$StrTraitMFC_DLL@_WV?$ChTraitsCRT@_W@ATL@@@@@ATL@@QEAAAEAV01@D@Z @ 1917 NONAME
 ??Y?$CStringT@_WV?$StrTraitMFC_DLL@_WV?$ChTraitsCRT@_W@ATL@@@@@ATL@@QEAAAEAV01@E@Z @ 1918 NONAME
 ??Y?$CStringT@_WV?$StrTraitMFC_DLL@_WV?$ChTraitsCRT@_W@ATL@@@@@ATL@@QEAAAEAV01@PEB_W@Z @ 1919 NONAME
 ??Y?$CStringT@_WV?$StrTraitMFC_DLL@_WV?$ChTraitsCRT@_W@ATL@@@@@ATL@@QEAAAEAV01@PEBD@Z @ 1920 NONAME
 ??Y?$CStringT@DV?$StrTraitMFC_DLL@DV?$ChTraitsCRT@D@ATL@@@@@ATL@@QEAAAEAV01@_W@Z @ 1921 NONAME
 ??Y?$CStringT@DV?$StrTraitMFC_DLL@DV?$ChTraitsCRT@D@ATL@@@@@ATL@@QEAAAEAV01@AEBUtagVARIANT@@@Z @ 1922 NONAME
 ??Y?$CStringT@DV?$StrTraitMFC_DLL@DV?$ChTraitsCRT@D@ATL@@@@@ATL@@QEAAAEAV01@AEBV?$CSimpleStringT@D$00@1@@Z @ 1923 NONAME
 ??Y?$CStringT@DV?$StrTraitMFC_DLL@DV?$ChTraitsCRT@D@ATL@@@@@ATL@@QEAAAEAV01@D@Z @ 1924 NONAME
 ??Y?$CStringT@DV?$StrTraitMFC_DLL@DV?$ChTraitsCRT@D@ATL@@@@@ATL@@QEAAAEAV01@E@Z @ 1925 NONAME
 ??Y?$CStringT@DV?$StrTraitMFC_DLL@DV?$ChTraitsCRT@D@ATL@@@@@ATL@@QEAAAEAV01@PEB_W@Z @ 1926 NONAME
 ??Y?$CStringT@DV?$StrTraitMFC_DLL@DV?$ChTraitsCRT@D@ATL@@@@@ATL@@QEAAAEAV01@PEBD@Z @ 1927 NONAME
 ??YCOleCurrency@@QEAAAEBV0@AEBV0@@Z @ 1928 NONAME
 ??ZCOleCurrency@@QEAAAEBV0@AEBV0@@Z @ 1929 NONAME
 ?_AfxAbortProc@@YAHPEAUHDC__@@H@Z @ 1930 NONAME
 ?_afxAmbientCache@@3V?$CThreadLocal@V_AFXCTL_AMBIENT_CACHE@@@@A @ 1931 NONAME DATA
 ?_AfxDeleteRegKey@@YAHPEB_W@Z @ 1932 NONAME
 ?_AfxFindSiteOrWnd@@YAPEAUCOleControlSiteOrWnd@@PEAVCWnd@@0@Z @ 1933 NONAME
 ?_afxRichEditState@@3V?$CProcessLocal@V_AFX_RICHEDIT_STATE@@@@A @ 1934 NONAME DATA
 ?_AfxSocketInit@@YAHPEAUWSAData@@@Z @ 1935 NONAME
 ?Abort@CArchive@@QEAAXXZ @ 1936 NONAME
 ?Abort@CFile@@UEAAXXZ @ 1937 NONAME
 ?Abort@CInternetFile@@UEAAXXZ @ 1938 NONAME
 ?Abort@CMemFile@@UEAAXXZ @ 1939 NONAME
 ?Abort@CMirrorFile@@UEAAXXZ @ 1940 NONAME
 ?Abort@COleStreamFile@@UEAAXXZ @ 1941 NONAME
 ?Abort@CSocketFile@@UEAAXXZ @ 1942 NONAME
 ?Abort@CStdioFile@@UEAAXXZ @ 1943 NONAME
 ?AbortDoc@CDC@@QEAAHXZ @ 1944 NONAME
 ?AbortPath@CDC@@QEAAHXZ @ 1945 NONAME
 ?AboutToDo@XNotifyDBEvents@COleControlSite@@UEAAJKKQEAUtagDBNOTIFYREASON@@@Z @ 1946 NONAME
 ?accDoDefaultAction@CCheckListBox@@MEAAJUtagVARIANT@@@Z @ 1947 NONAME
 ?accDoDefaultAction@CMFCBaseAccessibleObject@@UEAAJUtagVARIANT@@@Z @ 1948 NONAME
 ?accDoDefaultAction@CMFCRibbonBar@@UEAAJUtagVARIANT@@@Z @ 1949 NONAME
 ?accDoDefaultAction@CMFCRibbonBaseElement@@UEAAJUtagVARIANT@@@Z @ 1950 NONAME
 ?accDoDefaultAction@CMFCRibbonContextCaption@@MEAAJUtagVARIANT@@@Z @ 1951 NONAME
 ?accDoDefaultAction@CMFCRibbonPanel@@MEAAJUtagVARIANT@@@Z @ 1952 NONAME
 ?accDoDefaultAction@CMFCRibbonQuickAccessToolBar@@MEAAJUtagVARIANT@@@Z @ 1953 NONAME
 ?accDoDefaultAction@CMFCRibbonTabsGroup@@MEAAJUtagVARIANT@@@Z @ 1954 NONAME
 ?accDoDefaultAction@CMFCToolBar@@MEAAJUtagVARIANT@@@Z @ 1955 NONAME
 ?accDoDefaultAction@CWnd@@UEAAJUtagVARIANT@@@Z @ 1956 NONAME
 ?accDoDefaultAction@XAccessible@CMFCBaseAccessibleObject@@UEAAJUtagVARIANT@@@Z @ 1957 NONAME
 ?accDoDefaultAction@XAccessible@CWnd@@UEAAJUtagVARIANT@@@Z @ 1958 NONAME
 ?Accept@CAsyncSocket@@UEAAHAEAV1@PEAUsockaddr@@PEAH@Z @ 1959 NONAME
 ?Accept@CSocket@@UEAAHAEAVCAsyncSocket@@PEAUsockaddr@@PEAH@Z @ 1960 NONAME
 ?AccessData@COleSafeArray@@QEAAXPEAPEAX@Z @ 1961 NONAME
 ?AccessibleObjectByIndex@CMFCRibbonBar@@QEAAPEAVCMFCBaseAccessibleObject@@J@Z @ 1962 NONAME
 ?AccessibleObjectFromPoint@CMFCRibbonBar@@QEAAPEAVCMFCBaseAccessibleObject@@VCPoint@@@Z @ 1963 NONAME
 ?AccGetButtonByChildId@CMFCToolBar@@IEAAPEAVCMFCToolBarButton@@J@Z @ 1964 NONAME
 ?AccGetButtonsCount@CMFCToolBar@@MEAAHXZ @ 1965 NONAME
 ?AccGetChildIdByButtonIndex@CMFCToolBar@@IEAAHH@Z @ 1966 NONAME
 ?accHitTest@CBasePane@@UEAAJJJPEAUtagVARIANT@@@Z @ 1967 NONAME
 ?accHitTest@CMFCBaseAccessibleObject@@UEAAJJJPEAUtagVARIANT@@@Z @ 1968 NONAME
 ?accHitTest@CMFCPropertyGridCtrl@@UEAAJJJPEAUtagVARIANT@@@Z @ 1969 NONAME
 ?accHitTest@CMFCRibbonBar@@UEAAJJJPEAUtagVARIANT@@@Z @ 1970 NONAME
 ?accHitTest@CMFCRibbonBaseElement@@UEAAJJJPEAUtagVARIANT@@@Z @ 1971 NONAME
 ?accHitTest@CMFCRibbonCategory@@UEAAJJJPEAUtagVARIANT@@@Z @ 1972 NONAME
 ?accHitTest@CMFCRibbonPanel@@MEAAJJJPEAUtagVARIANT@@@Z @ 1973 NONAME
 ?accHitTest@CMFCRibbonQuickAccessToolBar@@MEAAJJJPEAUtagVARIANT@@@Z @ 1974 NONAME
 ?accHitTest@CMFCRibbonTab@@UEAAJJJPEAUtagVARIANT@@@Z @ 1975 NONAME
 ?accHitTest@CMFCRibbonTabsGroup@@MEAAJJJPEAUtagVARIANT@@@Z @ 1976 NONAME
 ?accHitTest@CMFCToolBar@@MEAAJJJPEAUtagVARIANT@@@Z @ 1977 NONAME
 ?accHitTest@CWnd@@UEAAJJJPEAUtagVARIANT@@@Z @ 1978 NONAME
 ?accHitTest@XAccessible@CMFCBaseAccessibleObject@@UEAAJJJPEAUtagVARIANT@@@Z @ 1979 NONAME
 ?accHitTest@XAccessible@CWnd@@UEAAJJJPEAUtagVARIANT@@@Z @ 1980 NONAME
 ?accLocation@CBasePane@@UEAAJPEAJ000UtagVARIANT@@@Z @ 1981 NONAME
 ?accLocation@CMFCBaseAccessibleObject@@UEAAJPEAJ000UtagVARIANT@@@Z @ 1982 NONAME
 ?accLocation@CMFCPropertyGridCtrl@@UEAAJPEAJ000UtagVARIANT@@@Z @ 1983 NONAME
 ?accLocation@CMFCRibbonBar@@UEAAJPEAJ000UtagVARIANT@@@Z @ 1984 NONAME
 ?accLocation@CMFCRibbonBaseElement@@UEAAJPEAJ000UtagVARIANT@@@Z @ 1985 NONAME
 ?accLocation@CMFCRibbonCategory@@UEAAJPEAJ000UtagVARIANT@@@Z @ 1986 NONAME
 ?accLocation@CMFCRibbonPanel@@MEAAJPEAJ000UtagVARIANT@@@Z @ 1987 NONAME
 ?accLocation@CMFCRibbonQuickAccessToolBar@@MEAAJPEAJ000UtagVARIANT@@@Z @ 1988 NONAME
 ?accLocation@CMFCRibbonTab@@UEAAJPEAJ000UtagVARIANT@@@Z @ 1989 NONAME
 ?accLocation@CWnd@@UEAAJPEAJ000UtagVARIANT@@@Z @ 1990 NONAME
 ?accLocation@XAccessible@CMFCBaseAccessibleObject@@UEAAJPEAJ000UtagVARIANT@@@Z @ 1991 NONAME
 ?accLocation@XAccessible@CWnd@@UEAAJPEAJ000UtagVARIANT@@@Z @ 1992 NONAME
 ?accNavigate@CMFCBaseAccessibleObject@@UEAAJJUtagVARIANT@@PEAU2@@Z @ 1993 NONAME
 ?accNavigate@CMFCRibbonApplicationButton@@MEAAJJUtagVARIANT@@PEAU2@@Z @ 1994 NONAME
 ?accNavigate@CMFCRibbonBar@@UEAAJJUtagVARIANT@@PEAU2@@Z @ 1995 NONAME
 ?accNavigate@CMFCRibbonBaseElement@@UEAAJJUtagVARIANT@@PEAU2@@Z @ 1996 NONAME
 ?accNavigate@CMFCRibbonCategory@@UEAAJJUtagVARIANT@@PEAU2@@Z @ 1997 NONAME
 ?accNavigate@CMFCRibbonContextCaption@@MEAAJJUtagVARIANT@@PEAU2@@Z @ 1998 NONAME
 ?accNavigate@CMFCRibbonPanel@@MEAAJJUtagVARIANT@@PEAU2@@Z @ 1999 NONAME
 ?accNavigate@CMFCRibbonQuickAccessToolBar@@MEAAJJUtagVARIANT@@PEAU2@@Z @ 2000 NONAME
 ?accNavigate@CMFCRibbonTab@@UEAAJJUtagVARIANT@@PEAU2@@Z @ 2001 NONAME
 ?accNavigate@CMFCRibbonTabsGroup@@MEAAJJUtagVARIANT@@PEAU2@@Z @ 2002 NONAME
 ?accNavigate@CMFCToolBar@@MEAAJJUtagVARIANT@@PEAU2@@Z @ 2003 NONAME
 ?accNavigate@CWnd@@UEAAJJUtagVARIANT@@PEAU2@@Z @ 2004 NONAME
 ?accNavigate@XAccessible@CMFCBaseAccessibleObject@@UEAAJJUtagVARIANT@@PEAU3@@Z @ 2005 NONAME
 ?accNavigate@XAccessible@CWnd@@UEAAJJUtagVARIANT@@PEAU3@@Z @ 2006 NONAME
 ?AccNotifyObjectFocusEvent@CMFCToolBar@@MEAAXH@Z @ 2007 NONAME
 ?accSelect@CBasePane@@UEAAJJUtagVARIANT@@@Z @ 2008 NONAME
 ?accSelect@CMFCBaseAccessibleObject@@UEAAJJUtagVARIANT@@@Z @ 2009 NONAME
 ?accSelect@CMFCPropertyGridCtrl@@UEAAJJUtagVARIANT@@@Z @ 2010 NONAME
 ?accSelect@CWnd@@UEAAJJUtagVARIANT@@@Z @ 2011 NONAME
 ?accSelect@XAccessible@CMFCBaseAccessibleObject@@UEAAJJUtagVARIANT@@@Z @ 2012 NONAME
 ?accSelect@XAccessible@CWnd@@UEAAJJUtagVARIANT@@@Z @ 2013 NONAME
 ?Activate@COleClientItem@@QEAAXJPEAVCView@@PEAUtagMSG@@@Z @ 2014 NONAME
 ?Activate@CToolTipCtrl@@QEAAXH@Z @ 2015 NONAME
 ?Activate@XPropertyPage@COlePropertyPage@@UEAAJPEAUHWND__@@PEBUtagRECT@@H@Z @ 2016 NONAME
 ?ActivateAndShow@COleDocObjectItem@@IEAAXXZ @ 2017 NONAME
 ?ActivateAs@COleClientItem@@UEAAHPEB_WAEBU_GUID@@1@Z @ 2018 NONAME
 ?ActivateAs@CRichEditCntrItem@@UEAAHPEB_WAEBU_GUID@@1@Z @ 2019 NONAME
 ?ActivateContextCategory@CMFCRibbonBar@@QEAAHI@Z @ 2020 NONAME
 ?ActivateDocObject@CDocObjectServer@@QEAAXXZ @ 2021 NONAME
 ?ActivateDocObject@COleServerDoc@@QEAAXXZ @ 2022 NONAME
 ?ActivateFrame@CFrameWnd@@UEAAXH@Z @ 2023 NONAME
 ?ActivateFrame@CMDIChildWnd@@UEAAXH@Z @ 2024 NONAME
 ?ActivateFrame@CMDIChildWndEx@@UEAAXH@Z @ 2025 NONAME
 ?ActivateInPlace@COleServerDoc@@QEAAHXZ @ 2026 NONAME
 ?ActivateMDITab@CMFCTabCtrl@@QEAAXH@Z @ 2027 NONAME
 ?ActivateMe@XOleDocumentSite@COleDocObjectItem@@UEAAJPEAUIOleDocumentView@@@Z @ 2028 NONAME
 ?ActivateNext@CSplitterWnd@@UEAAXH@Z @ 2029 NONAME
 ?ActivatePopupMenu@CMFCPopupMenu@@SAHPEAVCFrameWnd@@PEAV1@@Z @ 2030 NONAME
 ?ActivateTopLevelFrame@CMDIChildWndEx@@MEAAXXZ @ 2031 NONAME
 ?ActivateTopParent@CWnd@@QEAAXXZ @ 2032 NONAME
 ?ActiveItemRecalcLayout@CFrameWndEx@@QEAAXXZ @ 2033 NONAME
 ?ActiveItemRecalcLayout@CMDIFrameWndEx@@QEAAXXZ @ 2034 NONAME
 ?AdaptColors@CMFCToolBarImages@@QEAAXKK@Z @ 2035 NONAME
 ?Add@CByteArray@@QEAA_JE@Z @ 2036 NONAME
 ?Add@CDWordArray@@QEAA_JK@Z @ 2037 NONAME
 ?Add@CImageList@@QEAAHPEAUHICON__@@@Z @ 2038 NONAME
 ?Add@CImageList@@QEAAHPEAVCBitmap@@0@Z @ 2039 NONAME
 ?Add@CImageList@@QEAAHPEAVCBitmap@@K@Z @ 2040 NONAME
 ?Add@CMFCRibbonMainPanel@@UEAAXPEAVCMFCRibbonBaseElement@@@Z @ 2041 NONAME
 ?Add@CMFCRibbonPanel@@UEAAXPEAVCMFCRibbonBaseElement@@@Z @ 2042 NONAME
 ?Add@CMFCRibbonQuickAccessToolBar@@IEAAXPEAVCMFCRibbonBaseElement@@@Z @ 2043 NONAME
 ?Add@CObArray@@QEAA_JPEAVCObject@@@Z @ 2044 NONAME
 ?Add@CPtrArray@@QEAA_JPEAX@Z @ 2045 NONAME
 ?Add@CRecentFileList@@QEAAXPEAUIShellItem@@PEB_W@Z @ 2046 NONAME
 ?Add@CRecentFileList@@QEAAXPEAUIShellLinkW@@PEB_W@Z @ 2047 NONAME
 ?Add@CRecentFileList@@QEAAXPEFAU_ITEMIDLIST@@PEB_W@Z @ 2048 NONAME
 ?Add@CRecentFileList@@UEAAXPEB_W@Z @ 2049 NONAME
 ?Add@CRecentFileList@@UEAAXPEB_W0@Z @ 2050 NONAME
 ?Add@CStringArray@@QEAA_JAEBV?$CStringT@_WV?$StrTraitMFC_DLL@_WV?$ChTraitsCRT@_W@ATL@@@@@ATL@@@Z @ 2051 NONAME
 ?Add@CStringArray@@QEAA_JPEB_W@Z @ 2052 NONAME
 ?Add@CUIntArray@@QEAA_JI@Z @ 2053 NONAME
 ?Add@CWordArray@@QEAA_JG@Z @ 2054 NONAME
 ?AddAnimationObject@CAnimationController@@QEAAPEAVCAnimationGroup@@PEAVCAnimationBaseObject@@@Z @ 2055 NONAME
 ?AddArc@CD2DGeometrySink@@QEAAXAEBUD2D1_ARC_SEGMENT@@@Z @ 2056 NONAME
 ?AddAutoHideWindow@CMFCAutoHideBar@@QEAAPEAVCMFCAutoHideButton@@PEAVCDockablePane@@K@Z @ 2057 NONAME
 ?AddBar@CMFCReBar@@QEAAHPEAVCWnd@@KKPEB_WK@Z @ 2058 NONAME
 ?AddBar@CMFCReBar@@QEAAHPEAVCWnd@@PEB_WPEAVCBitmap@@K@Z @ 2059 NONAME
 ?AddBar@CReBar@@QEAAHPEAVCWnd@@KKPEB_WK@Z @ 2060 NONAME
 ?AddBar@CReBar@@QEAAHPEAVCWnd@@PEB_WPEAVCBitmap@@K@Z @ 2061 NONAME
 ?AddBasicCommand@CMFCToolBar@@SAXI@Z @ 2062 NONAME
 ?AddBezier@CD2DGeometrySink@@QEAAXAEBUD2D1_BEZIER_SEGMENT@@@Z @ 2063 NONAME
 ?AddBeziers@CD2DGeometrySink@@QEAAXAEBV?$CArray@UD2D1_BEZIER_SEGMENT@@U1@@@@Z @ 2064 NONAME
 ?AddBitmap@CToolBarCtrl@@QEAAHHI@Z @ 2065 NONAME
 ?AddBitmap@CToolBarCtrl@@QEAAHHPEAVCBitmap@@@Z @ 2066 NONAME
 ?AddBitmapImage@CMFCOutlookBarPane@@IEAAHPEAUHBITMAP__@@@Z @ 2067 NONAME
 ?AddButton@CMFCOutlookBarPane@@QEAAHIIIH@Z @ 2068 NONAME
 ?AddButton@CMFCOutlookBarPane@@QEAAHIPEB_WIH@Z @ 2069 NONAME
 ?AddButton@CMFCOutlookBarPane@@QEAAHPEAUHBITMAP__@@PEB_WIH@Z @ 2070 NONAME
 ?AddButton@CMFCOutlookBarPane@@QEAAHPEAUHICON__@@PEB_WIHH@Z @ 2071 NONAME
 ?AddButton@CMFCOutlookBarPane@@QEAAHPEB_W0IH@Z @ 2072 NONAME
 ?AddButton@CMFCRibbonButtonsGroup@@QEAAXPEAVCMFCRibbonBaseElement@@@Z @ 2073 NONAME
 ?AddButton@CMFCTasksPaneFrameWnd@@MEAAXI@Z @ 2074 NONAME
 ?AddButton@CMFCToolBarButtonsListButton@@QEAAXPEAVCMFCToolBarButton@@@Z @ 2075 NONAME
 ?AddButton@CMFCToolBarsCustomizeDialog@@QEAAXIAEBVCMFCToolBarButton@@H@Z @ 2076 NONAME
 ?AddButton@CMFCToolBarsCustomizeDialog@@QEAAXPEB_WAEBVCMFCToolBarButton@@H@Z @ 2077 NONAME
 ?AddButton@CPaneFrameWnd@@MEAAXI@Z @ 2078 NONAME
 ?AddButton@CVSListBoxBase@@QEAAHIPEB_WGEI@Z @ 2079 NONAME
 ?AddButtons@CMFCRibbonButtonsGroup@@QEAAXAEBV?$CList@PEAVCMFCRibbonBaseElement@@PEAV1@@@@Z @ 2080 NONAME
 ?AddButtons@CMFCRibbonPanelMenuBar@@IEAAXPEAVCMFCRibbonBar@@AEBV?$CArray@PEAVCMFCRibbonBaseElement@@PEAV1@@@H@Z @ 2081 NONAME
 ?AddButtons@CToolBarCtrl@@QEAAHHPEAU_TBBUTTON@@@Z @ 2082 NONAME
 ?AddCachedData@COleClientItem@@IEAAXPEAVCOleDataSource@@@Z @ 2083 NONAME
 ?AddCategory@CMFCRibbonBar@@QEAAPEAVCMFCRibbonCategory@@PEB_WIIVCSize@@1HPEAUCRuntimeClass@@@Z @ 2084 NONAME
 ?AddCategoryToTree@CMFCPropertySheet@@IEAAXPEAVCMFCPropertySheetCategoryInfo@@@Z @ 2085 NONAME
 ?AddCheckButton@CFileDialog@@QEAAJKAEBV?$CStringT@_WV?$StrTraitMFC_DLL@_WV?$ChTraitsCRT@_W@ATL@@@@@ATL@@H@Z @ 2086 NONAME
 ?AddClassIDToList@COleInsertDialog@@IEAAXAEAPEAU_GUID@@AEAH1PEAU2@@Z @ 2087 NONAME
 ?AddCmd@CMFCCmdUsageCount@@QEAAXI@Z @ 2088 NONAME
 ?AddColorsGroup@CMFCRibbonColorButton@@QEAAXPEB_WAEBV?$CList@KK@@H@Z @ 2089 NONAME
 ?AddComboBox@CFileDialog@@QEAAJK@Z @ 2090 NONAME
 ?AddCommand@CMFCRibbonCommandsListBox@@QEAAHPEAVCMFCRibbonBaseElement@@HH@Z @ 2091 NONAME
 ?AddCommand@CMFCRibbonQuickAccessToolBarDefaultState@@QEAAXIH@Z @ 2092 NONAME
 ?AddCommandControl@CTaskDialog@@QEAAXHAEBV?$CStringT@_WV?$StrTraitMFC_DLL@_WV?$ChTraitsCRT@_W@ATL@@@@@ATL@@HH@Z @ 2093 NONAME
 ?AddCommandUsage@CMFCToolBar@@SAXI@Z @ 2094 NONAME
 ?AddConnection@CEnumConnections@@QEAAXPEAUtagCONNECTDATA@@@Z @ 2095 NONAME
 ?AddConnPoint@CEnumConnPoints@@QEAAXPEAUIConnectionPoint@@@Z @ 2096 NONAME
 ?AddContextCategory@CMFCRibbonBar@@QEAAPEAVCMFCRibbonCategory@@PEB_W0IW4AFX_RibbonCategoryColor@@IIVCSize@@2PEAUCRuntimeClass@@@Z @ 2097 NONAME
 ?AddControl@CMFCOutlookBarTabCtrl@@QEAAXPEAVCWnd@@PEB_WHHK@Z @ 2098 NONAME
 ?AddControlBar@CFrameWnd@@QEAAXPEAVCControlBar@@@Z @ 2099 NONAME
 ?AddControlItem@CFileDialog@@QEAAJKKAEBV?$CStringT@_WV?$StrTraitMFC_DLL@_WV?$ChTraitsCRT@_W@ATL@@@@@ATL@@@Z @ 2100 NONAME
 ?AddCustomCategory@CMFCRibbonCustomizePropertyPage@@QEAAXPEB_WAEBV?$CList@II@@@Z @ 2101 NONAME
 ?AddDefaultButtonsToCustomizePane@CFrameImpl@@IEAAXPEAVCMFCPopupMenu@@I@Z @ 2102 NONAME
 ?AddDestination@CJumpList@@QEAAHPEB_W0@Z @ 2103 NONAME
 ?AddDestination@CJumpList@@QEAAHPEB_WPEAUIShellItem@@@Z @ 2104 NONAME
 ?AddDestination@CJumpList@@QEAAHPEB_WPEAUIShellLinkW@@@Z @ 2105 NONAME
 ?AddDockSite@CDockingManager@@QEAAHAEBUAFX_DOCKSITE_INFO@@PEAPEAVCDockSite@@@Z @ 2106 NONAME
 ?AddDockSite@CFrameWndEx@@QEAAXXZ @ 2107 NONAME
 ?AddDockSite@CMDIChildWndEx@@QEAAXXZ @ 2108 NONAME
 ?AddDockSite@CMDIFrameWndEx@@QEAAXXZ @ 2109 NONAME
 ?AddDockSite@COleCntrFrameWndEx@@QEAAXXZ @ 2110 NONAME
 ?AddDockSite@COleDocIPFrameWndEx@@QEAAXXZ @ 2111 NONAME
 ?AddDockSite@COleIPFrameWndEx@@QEAAXXZ @ 2112 NONAME
 ?AddDocTemplate@CDocManager@@UEAAXPEAVCDocTemplate@@@Z @ 2113 NONAME
 ?AddDocTemplate@CWinApp@@QEAAXPEAVCDocTemplate@@@Z @ 2114 NONAME
 ?AddDocument@CDocTemplate@@UEAAXPEAVCDocument@@@Z @ 2115 NONAME
 ?AddDocument@CMultiDocTemplate@@UEAAXPEAVCDocument@@@Z @ 2116 NONAME
 ?AddDocument@CSingleDocTemplate@@UEAAXPEAVCDocument@@@Z @ 2117 NONAME
 ?AddDynamicElement@CMFCRibbonStatusBar@@QEAAXPEAVCMFCRibbonBaseElement@@@Z @ 2118 NONAME
 ?AddEditBox@CFileDialog@@QEAAJKAEBV?$CStringT@_WV?$StrTraitMFC_DLL@_WV?$ChTraitsCRT@_W@ATL@@@@@ATL@@@Z @ 2119 NONAME
 ?AddElement@CMFCRibbonStatusBar@@QEAAXPEAVCMFCRibbonBaseElement@@PEB_WH@Z @ 2120 NONAME
 ?AddElementImages@CMFCRibbonInfo@@IEAAXAEAVXElement@1@AEAV?$CArray@PEAVXImage@CMFCRibbonInfo@@PEAV12@@@@Z @ 2121 NONAME
 ?AddExtendedElement@CMFCRibbonStatusBar@@QEAAXPEAVCMFCRibbonBaseElement@@PEB_WH@Z @ 2122 NONAME
 ?AddFont@CMFCToolBarFontComboBox@@MEAAHPEAUtagENUMLOGFONTW@@HPEB_W@Z @ 2123 NONAME
 ?AddFormat@CEnumFormatEtc@@QEAAXPEBUtagFORMATETC@@@Z @ 2124 NONAME
 ?AddFormat@COlePasteSpecialDialog@@QEAAXAEBUtagFORMATETC@@PEA_W1K@Z @ 2125 NONAME
 ?AddFormat@COlePasteSpecialDialog@@QEAAXIKIHH@Z @ 2126 NONAME
 ?AddFrame@CFrameImpl@@SAXPEAVCFrameWnd@@@Z @ 2127 NONAME
 ?AddFrameLevelUI@COleControl@@MEAAXXZ @ 2128 NONAME
 ?AddFrameWnd@CFrameWnd@@IEAAXXZ @ 2129 NONAME
 ?AddGroup@CMFCRibbonGallery@@QEAAXPEB_WAEAVCMFCToolBarImages@@@Z @ 2130 NONAME
 ?AddGroup@CMFCRibbonGallery@@QEAAXPEB_WH@Z @ 2131 NONAME
 ?AddGroup@CMFCRibbonGallery@@QEAAXPEB_WIH@Z @ 2132 NONAME
 ?AddGroup@CMFCTasksPane@@QEAAHHPEB_WHHPEAUHICON__@@@Z @ 2133 NONAME
 ?AddHead@CObList@@QEAAPEAU__POSITION@@PEAVCObject@@@Z @ 2134 NONAME
 ?AddHead@CObList@@QEAAXPEAV1@@Z @ 2135 NONAME
 ?AddHead@CPtrList@@QEAAPEAU__POSITION@@PEAX@Z @ 2136 NONAME
 ?AddHead@CPtrList@@QEAAXPEAV1@@Z @ 2137 NONAME
 ?AddHead@CSimpleList@@QEAAXPEAX@Z @ 2138 NONAME
 ?AddHead@CStringList@@QEAAPEAU__POSITION@@AEBV?$CStringT@_WV?$StrTraitMFC_DLL@_WV?$ChTraitsCRT@_W@ATL@@@@@ATL@@@Z @ 2139 NONAME
 ?AddHead@CStringList@@QEAAPEAU__POSITION@@PEB_W@Z @ 2140 NONAME
 ?AddHead@CStringList@@QEAAXPEAV1@@Z @ 2141 NONAME
 ?AddHidden@CMFCRibbonCategory@@QEAAXPEAVCMFCRibbonBaseElement@@@Z @ 2142 NONAME
 ?AddHiddenMDITabbedBar@CDockingManager@@QEAAXPEAVCDockablePane@@@Z @ 2143 NONAME
 ?AddIcon@CMFCToolBarImages@@QEAAHPEAUHICON__@@H@Z @ 2144 NONAME
 ?AddImage@CMFCToolBarImages@@QEAAHAEBV1@H@Z @ 2145 NONAME
 ?AddImage@CMFCToolBarImages@@QEAAHPEAUHBITMAP__@@H@Z @ 2146 NONAME
 ?AddImage@CMFCVisualManagerBitmapCacheItem@CMFCVisualManagerBitmapCache@@QEAAXPEAUHBITMAP__@@@Z @ 2147 NONAME
 ?AddItem@CMFCRibbonComboBox@@UEAA_JPEB_W_K@Z @ 2148 NONAME
 ?AddItem@CMFCToolBarComboBoxButton@@UEAA_JPEB_W_K@Z @ 2149 NONAME
 ?AddItem@COleDocument@@UEAAXPEAVCDocItem@@@Z @ 2150 NONAME
 ?AddItem@CVSListBox@@UEAAHAEBV?$CStringT@_WV?$StrTraitMFC_DLL@_WV?$ChTraitsCRT@_W@ATL@@@@@ATL@@_KH@Z @ 2151 NONAME
 ?AddItem@XQAT@CMFCRibbonInfo@@QEAA_JAEBVXQATItem@12@@Z @ 2152 NONAME
 ?AddKeyEntry@CMFCRibbonKeyboardCustomizeDialog@@IEAAXPEAUtagACCEL@@@Z @ 2153 NONAME
 ?AddKeyEntry@CMFCToolBarsKeyboardPropertyPage@@IEAAXPEAUtagACCEL@@@Z @ 2154 NONAME
 ?AddKeyframes@CAnimationGroup@@IEAAXPEAUIUIAnimationStoryboard@@H@Z @ 2155 NONAME
 ?AddKeyframeToGroup@CAnimationController@@QEAAHIPEAVCBaseKeyFrame@@@Z @ 2156 NONAME
 ?AddKnownCategory@CJumpList@@QEAAHW4KNOWNDESTCATEGORY@@@Z @ 2157 NONAME
 ?AddLine@CD2DGeometrySink@@QEAAXVCD2DPointF@@@Z @ 2158 NONAME
 ?AddLines@CD2DGeometrySink@@QEAAXAEBV?$CArray@VCD2DPointF@@V1@@@@Z @ 2159 NONAME
 ?AddLinkEntry@COlePasteSpecialDialog@@QEAA?AW4tagOLEUIPASTEFLAG@@I@Z @ 2160 NONAME
 ?AddMainCategory@CMFCRibbonBar@@QEAAPEAVCMFCRibbonMainPanel@@PEB_WIIVCSize@@1PEAUCRuntimeClass@@@Z @ 2161 NONAME
 ?AddMenu@CContextMenuManager@@QEAAHII@Z @ 2162 NONAME
 ?AddMenu@CContextMenuManager@@QEAAHPEB_WI@Z @ 2163 NONAME
 ?AddMenu@CFileDialog@@QEAAJKAEBV?$CStringT@_WV?$StrTraitMFC_DLL@_WV?$ChTraitsCRT@_W@ATL@@@@@ATL@@@Z @ 2164 NONAME
 ?AddMenu@CMFCToolBarsCustomizeDialog@@QEAAHI@Z @ 2165 NONAME
 ?AddMenuCommands@CMFCToolBarsCustomizeDialog@@QEAAXPEBVCMenu@@HPEB_W1@Z @ 2166 NONAME
 ?AddMetaFileComment@CDC@@QEAAHIPEBE@Z @ 2167 NONAME
 ?AddMiniFrame@CDockingManager@@UEAAHPEAVCPaneFrameWnd@@@Z @ 2168 NONAME
 ?AddMRUFilesList@CMFCTasksPane@@QEAAHHH@Z @ 2169 NONAME
 ?AddNew@CRecordset@@UEAAXXZ @ 2170 NONAME
 ?AddNode@CPaneContainer@@IEAAXPEAV1@@Z @ 2171 NONAME
 ?AddOption@CMFCPropertyGridProperty@@QEAAHPEB_WH@Z @ 2172 NONAME
 ?AddOtherClipboardData@COleServerItem@@QEAAXPEAVCOleDataSource@@@Z @ 2173 NONAME
 ?AddPage@CMFCPropertySheet@@QEAAXPEAVCPropertyPage@@@Z @ 2174 NONAME
 ?AddPage@CMFCTasksPane@@QEAAHPEB_W@Z @ 2175 NONAME
 ?AddPage@CPropertySheet@@QEAAXPEAVCPropertyPage@@@Z @ 2176 NONAME
 ?AddPageToTree@CMFCPropertySheet@@QEAAXPEAVCMFCPropertySheetCategoryInfo@@PEAVCMFCPropertyPage@@HH@Z @ 2177 NONAME
 ?AddPane@CBasePane@@QEAAXPEAV1@@Z @ 2178 NONAME
 ?AddPane@CDockingManager@@QEAAHPEAVCBasePane@@HHH@Z @ 2179 NONAME
 ?AddPane@CDockingPanesRow@@UEAAXPEAVCPane@@W4AFX_DOCK_METHOD@@PEBUtagRECT@@H@Z @ 2180 NONAME
 ?AddPane@CFrameWndEx@@QEAAHPEAVCBasePane@@H@Z @ 2181 NONAME
 ?AddPane@CMDIChildWndEx@@QEAAHPEAVCBasePane@@H@Z @ 2182 NONAME
 ?AddPane@CMDIFrameWndEx@@QEAAHPEAVCBasePane@@H@Z @ 2183 NONAME
 ?AddPane@CMultiPaneFrameWnd@@UEAAXPEAVCBasePane@@@Z @ 2184 NONAME
 ?AddPane@COleCntrFrameWndEx@@QEAAHPEAVCBasePane@@H@Z @ 2185 NONAME
 ?AddPane@COleDocIPFrameWndEx@@QEAAHPEAVCBasePane@@H@Z @ 2186 NONAME
 ?AddPane@COleIPFrameWndEx@@QEAAHPEAVCBasePane@@H@Z @ 2187 NONAME
 ?AddPane@CPaneContainer@@QEAAPEAVCDockablePane@@PEAV2@@Z @ 2188 NONAME
 ?AddPane@CPaneContainerManager@@UEAAXPEAVCDockablePane@@@Z @ 2189 NONAME
 ?AddPane@CPaneDivider@@UEAAXPEAVCDockablePane@@@Z @ 2190 NONAME
 ?AddPane@CPaneFrameWnd@@UEAAXPEAVCBasePane@@@Z @ 2191 NONAME
 ?AddPaneAndPaneContainer@CPaneContainerManager@@IEAAHPEAVCDockablePane@@PEAVCPaneContainer@@K@Z @ 2192 NONAME
 ?AddPaneAndPaneDivider@CPaneContainerManager@@IEAAHPEAVCDockablePane@@0PEAU__POSITION@@K@Z @ 2193 NONAME
 ?AddPaneContainer@CPaneDivider@@UEAAHAEAVCPaneContainerManager@@H@Z @ 2194 NONAME
 ?AddPaneContainer@CPaneDivider@@UEAAHPEAVCDockablePane@@AEAVCPaneContainerManager@@K@Z @ 2195 NONAME
 ?AddPaneContainerManager@CPaneContainerManager@@UEAAHAEAV1@H@Z @ 2196 NONAME
 ?AddPaneContainerManager@CPaneContainerManager@@UEAAHPEAVCDockablePane@@KAEAV1@H@Z @ 2197 NONAME
 ?AddPaneContainerManagerToDockablePane@CPaneContainerManager@@UEAAHPEAVCDockablePane@@AEAV1@@Z @ 2198 NONAME
 ?AddPaneFromRow@CDockingPanesRow@@UEAAXPEAVCPane@@W4AFX_DOCK_METHOD@@@Z @ 2199 NONAME
 ?AddPanel@CMFCRibbonCategory@@QEAAPEAVCMFCRibbonPanel@@PEB_WPEAUHICON__@@PEAUCRuntimeClass@@@Z @ 2200 NONAME
 ?AddPanesToList@CPaneContainerManager@@QEAAXPEAVCObList@@0@Z @ 2201 NONAME
 ?AddPaneToList@CPaneContainerManager@@QEAAXPEAVCDockablePane@@@Z @ 2202 NONAME
 ?AddPaneToRecentPaneContainer@CPaneContainerManager@@UEAAPEAVCDockablePane@@PEAV2@PEAVCPaneContainer@@@Z @ 2203 NONAME
 ?AddPlace@CFileDialog@@QEAAXPEAUIShellItem@@W4FDAP@@@Z @ 2204 NONAME
 ?AddPlace@CFileDialog@@QEAAXPEB_WW4FDAP@@@Z @ 2205 NONAME
 ?AddPrintPreviewCategory@CMFCRibbonBar@@QEAAPEAVCMFCRibbonCategory@@XZ @ 2206 NONAME
 ?AddProperty@CMFCPropertyGridCtrl@@QEAAHPEAVCMFCPropertyGridProperty@@HH@Z @ 2207 NONAME
 ?AddProperty@CPropertySection@@QEAAXPEAVCProperty@@@Z @ 2208 NONAME
 ?AddProperty@CPropertySet@@QEAAXU_GUID@@PEAVCProperty@@@Z @ 2209 NONAME
 ?AddPushButton@CFileDialog@@QEAAJKAEBV?$CStringT@_WV?$StrTraitMFC_DLL@_WV?$ChTraitsCRT@_W@ATL@@@@@ATL@@@Z @ 2210 NONAME
 ?AddQATOnlyCategory@CMFCRibbonBar@@QEAAPEAVCMFCRibbonCategory@@PEB_WIVCSize@@@Z @ 2211 NONAME
 ?AddQuadraticBezier@CD2DGeometrySink@@QEAAXAEBUD2D1_QUADRATIC_BEZIER_SEGMENT@@@Z @ 2212 NONAME
 ?AddQuadraticBeziers@CD2DGeometrySink@@QEAAXAEBV?$CArray@UD2D1_QUADRATIC_BEZIER_SEGMENT@@U1@@@@Z @ 2213 NONAME
 ?AddRadioButton@CTaskDialog@@QEAAXHAEBV?$CStringT@_WV?$StrTraitMFC_DLL@_WV?$ChTraitsCRT@_W@ATL@@@@@ATL@@H@Z @ 2214 NONAME
 ?AddRadioButtonList@CFileDialog@@QEAAJK@Z @ 2215 NONAME
 ?AddRecentFilesList@CMFCRibbonMainPanel@@QEAAXPEB_WH@Z @ 2216 NONAME
 ?AddRecentPane@CMultiPaneFrameWnd@@UEAAHPEAVCDockablePane@@@Z @ 2217 NONAME
 ?AddRecentPane@CPaneDivider@@UEAAPEAVCDockablePane@@PEAV2@@Z @ 2218 NONAME
 ?AddRef@CArchiveStream@@UEAAKXZ @ 2219 NONAME
 ?AddRef@CBlobProperty@@UEAAKXZ @ 2220 NONAME
 ?AddRef@CBrowserControlSite@@MEAAKXZ @ 2221 NONAME
 ?AddRef@CDHtmlControlSink@@UEAAKXZ @ 2222 NONAME
 ?AddRef@CDHtmlElementEventSink@@UEAAKXZ @ 2223 NONAME
 ?AddRef@CDHtmlEventSink@@UEAAKXZ @ 2224 NONAME
 ?AddRef@CInnerUnknown@@UEAAKXZ @ 2225 NONAME
 ?AddRef@COleConnPtContainer@@UEAAKXZ @ 2226 NONAME
 ?AddRef@COleDispatchImpl@@UEAAKXZ @ 2227 NONAME
 ?AddRef@COleUILinkInfo@@UEAAKXZ @ 2228 NONAME
 ?AddRef@CPaneContainer@@QEAAXXZ @ 2229 NONAME
 ?AddRef@CPrintDialogEx@@UEAAKXZ @ 2230 NONAME
 ?AddRef@XAccessible@CMFCBaseAccessibleObject@@UEAAKXZ @ 2231 NONAME
 ?AddRef@XAccessible@CWnd@@UEAAKXZ @ 2232 NONAME
 ?AddRef@XAccessibleServer@CWnd@@UEAAKXZ @ 2233 NONAME
 ?AddRef@XAdviseSink@COleClientItem@@UEAAKXZ @ 2234 NONAME
 ?AddRef@XAmbientProps@COleControlSite@@UEAAKXZ @ 2235 NONAME
 ?AddRef@XBoundObjectSite@COleControlSite@@UEAAKXZ @ 2236 NONAME
 ?AddRef@XClassFactory@COleObjectFactory@@UEAAKXZ @ 2237 NONAME
 ?AddRef@XConnPt@CConnectionPoint@@UEAAKXZ @ 2238 NONAME
 ?AddRef@XDataObject@COleControl@@UEAAKXZ @ 2239 NONAME
 ?AddRef@XDataObject@COleDataSource@@UEAAKXZ @ 2240 NONAME
 ?AddRef@XDataObject@COleServerDoc@@UEAAKXZ @ 2241 NONAME
 ?AddRef@XDataObject@COleServerItem@@UEAAKXZ @ 2242 NONAME
 ?AddRef@XDocHostUIHandler@CHtmlControlSite@@UEAAKXZ @ 2243 NONAME
 ?AddRef@XDropSource@COleDropSource@@UEAAKXZ @ 2244 NONAME
 ?AddRef@XDropTarget@COleDropTarget@@UEAAKXZ @ 2245 NONAME
 ?AddRef@XEnumVOID@CEnumArray@@UEAAKXZ @ 2246 NONAME
 ?AddRef@XEventSink@COleControlSite@@UEAAKXZ @ 2247 NONAME
 ?AddRef@XFileDialogControlEvents@CFileDialog@@UEAAKXZ @ 2248 NONAME
 ?AddRef@XFileDialogEvents@CFileDialog@@UEAAKXZ @ 2249 NONAME
 ?AddRef@XFontNotification@COleControl@@UEAAKXZ @ 2250 NONAME
 ?AddRef@XInitializeWithStream@CDocument@@UEAAKXZ @ 2251 NONAME
 ?AddRef@XMessageFilter@COleMessageFilter@@UEAAKXZ @ 2252 NONAME
 ?AddRef@XNotifyDBEvents@COleControlSite@@UEAAKXZ @ 2253 NONAME
 ?AddRef@XObjectWithSite@CDocument@@UEAAKXZ @ 2254 NONAME
 ?AddRef@XOleCache@COleControl@@UEAAKXZ @ 2255 NONAME
 ?AddRef@XOleClientSite@COleClientItem@@UEAAKXZ @ 2256 NONAME
 ?AddRef@XOleClientSite@COleControlSite@@UEAAKXZ @ 2257 NONAME
 ?AddRef@XOleCommandTarget@CDocObjectServer@@UEAAKXZ @ 2258 NONAME
 ?AddRef@XOleCommandTarget@COleFrameHook@@UEAAKXZ @ 2259 NONAME
 ?AddRef@XOleContainer@COleControlContainer@@UEAAKXZ @ 2260 NONAME
 ?AddRef@XOleControl@COleControl@@UEAAKXZ @ 2261 NONAME
 ?AddRef@XOleControlSite@COleControlSite@@UEAAKXZ @ 2262 NONAME
 ?AddRef@XOleDocument@CDocObjectServer@@UEAAKXZ @ 2263 NONAME
 ?AddRef@XOleDocumentSite@COleDocObjectItem@@UEAAKXZ @ 2264 NONAME
 ?AddRef@XOleDocumentView@CDocObjectServer@@UEAAKXZ @ 2265 NONAME
 ?AddRef@XOleInPlaceActiveObject@COleControl@@UEAAKXZ @ 2266 NONAME
 ?AddRef@XOleInPlaceActiveObject@COleServerDoc@@UEAAKXZ @ 2267 NONAME
 ?AddRef@XOleInPlaceFrame@COleFrameHook@@UEAAKXZ @ 2268 NONAME
 ?AddRef@XOleInPlaceObject@COleControl@@UEAAKXZ @ 2269 NONAME
 ?AddRef@XOleInPlaceObject@COleServerDoc@@UEAAKXZ @ 2270 NONAME
 ?AddRef@XOleIPFrame@COleControlContainer@@UEAAKXZ @ 2271 NONAME
 ?AddRef@XOleIPSite@COleClientItem@@UEAAKXZ @ 2272 NONAME
 ?AddRef@XOleIPSite@COleControlSite@@UEAAKXZ @ 2273 NONAME
 ?AddRef@XOleItemContainer@COleLinkingDoc@@UEAAKXZ @ 2274 NONAME
 ?AddRef@XOleObject@CDocObjectServer@@UEAAKXZ @ 2275 NONAME
 ?AddRef@XOleObject@COleControl@@UEAAKXZ @ 2276 NONAME
 ?AddRef@XOleObject@COleServerDoc@@UEAAKXZ @ 2277 NONAME
 ?AddRef@XOleObject@COleServerItem@@UEAAKXZ @ 2278 NONAME
 ?AddRef@XOleUIObjInfo@COlePropertiesDialog@@UEAAKXZ @ 2279 NONAME
 ?AddRef@XOleWindow@CDocument@@UEAAKXZ @ 2280 NONAME
 ?AddRef@XPerPropertyBrowsing@COleControl@@UEAAKXZ @ 2281 NONAME
 ?AddRef@XPersistFile@COleLinkingDoc@@UEAAKXZ @ 2282 NONAME
 ?AddRef@XPersistMemory@COleControl@@UEAAKXZ @ 2283 NONAME
 ?AddRef@XPersistPropertyBag@COleControl@@UEAAKXZ @ 2284 NONAME
 ?AddRef@XPersistStorage@COleControl@@UEAAKXZ @ 2285 NONAME
 ?AddRef@XPersistStorage@COleServerDoc@@UEAAKXZ @ 2286 NONAME
 ?AddRef@XPersistStreamInit@COleControl@@UEAAKXZ @ 2287 NONAME
 ?AddRef@XPointerInactive@COleControl@@UEAAKXZ @ 2288 NONAME
 ?AddRef@XPreviewHandler@CDocument@@UEAAKXZ @ 2289 NONAME
 ?AddRef@XPreviewHandlerVisuals@CDocument@@UEAAKXZ @ 2290 NONAME
 ?AddRef@XPrint@CDocObjectServer@@UEAAKXZ @ 2291 NONAME
 ?AddRef@XPropertyNotifySink@COleControlSite@@UEAAKXZ @ 2292 NONAME
 ?AddRef@XPropertyPage@COlePropertyPage@@UEAAKXZ @ 2293 NONAME
 ?AddRef@XPropNotifySink@COlePropertyPage@@UEAAKXZ @ 2294 NONAME
 ?AddRef@XProvideClassInfo@COleControl@@UEAAKXZ @ 2295 NONAME
 ?AddRef@XQuickActivate@COleControl@@UEAAKXZ @ 2296 NONAME
 ?AddRef@XRichEditOleCallback@CRichEditView@@UEAAKXZ @ 2297 NONAME
 ?AddRef@XRowsetNotify@COleControlSite@@UEAAKXZ @ 2298 NONAME
 ?AddRef@XSpecifyPropertyPages@COleControl@@UEAAKXZ @ 2299 NONAME
 ?AddRef@XViewObject@COleControl@@UEAAKXZ @ 2300 NONAME
 ?AddRemovePaneFromGlobalList@CPaneFrameWnd@@SAHPEAVCBasePane@@H@Z @ 2301 NONAME
 ?AddRemoveSeparator@CMFCToolBar@@MEAAXPEBVCMFCToolBarButton@@AEBVCPoint@@1@Z @ 2302 NONAME
 ?AddReplaceBitmap@CToolBar@@QEAAHPEAUHBITMAP__@@@Z @ 2303 NONAME
 ?AddRequestHeaders@CHttpFile@@QEAAHAEAV?$CStringT@_WV?$StrTraitMFC_DLL@_WV?$ChTraitsCRT@_W@ATL@@@@@ATL@@K@Z @ 2304 NONAME
 ?AddRequestHeaders@CHttpFile@@QEAAHPEB_WKH@Z @ 2305 NONAME
 ?AddRow@CDockSite@@QEAAPEAVCDockingPanesRow@@PEAU__POSITION@@H@Z @ 2306 NONAME
 ?AddSection@CPropertySet@@QEAAPEAVCPropertySection@@U_GUID@@@Z @ 2307 NONAME
 ?AddSection@CPropertySet@@QEAAXPEAVCPropertySection@@@Z @ 2308 NONAME
 ?AddSeparator@CFileDialog@@QEAAJK@Z @ 2309 NONAME
 ?AddSeparator@CMFCRibbonPanel@@UEAAXXZ @ 2310 NONAME
 ?AddSeparator@CMFCRibbonStatusBar@@QEAAXXZ @ 2311 NONAME
 ?AddSortedItem@CMFCToolBarComboBoxButton@@UEAA_JPEB_W_K@Z @ 2312 NONAME
 ?AddStandardFormats@COlePasteSpecialDialog@@QEAAXH@Z @ 2313 NONAME
 ?AddString@CComboBox@@QEAAHPEB_W@Z @ 2314 NONAME
 ?AddString@CComboBoxEx@@QEAAHPEB_W@Z @ 2315 NONAME
 ?AddString@CListBox@@QEAAHPEB_W@Z @ 2316 NONAME
 ?AddString@CMFCDropDownListBox@@QEAAXPEB_W@Z @ 2317 NONAME
 ?AddString@CToolBarCtrl@@QEAAHI@Z @ 2318 NONAME
 ?AddStrings@CToolBarCtrl@@QEAAHPEB_W@Z @ 2319 NONAME
 ?AddSubItem@CMFCPropertyGridProperty@@QEAAHPEAV1@@Z @ 2320 NONAME
 ?AddSubItem@CMFCRibbonButton@@QEAAXPEAVCMFCRibbonBaseElement@@H@Z @ 2321 NONAME
 ?AddSubItem@CMFCRibbonGallery@@QEAAXPEAVCMFCRibbonBaseElement@@HH@Z @ 2322 NONAME
 ?AddSubPaneContainer@CPaneContainer@@QEAAHPEAV1@H@Z @ 2323 NONAME
 ?AddTab@CBaseTabbedPane@@UEAAHPEAVCWnd@@HHH@Z @ 2324 NONAME
 ?AddTab@CMFCBaseTabCtrl@@UEAAXPEAVCWnd@@IIH@Z @ 2325 NONAME
 ?AddTab@CMFCBaseTabCtrl@@UEAAXPEAVCWnd@@PEB_WIH@Z @ 2326 NONAME
 ?AddTabbedPane@CMDIChildWndEx@@QEAAXPEAVCDockablePane@@@Z @ 2327 NONAME
 ?AddTail@CObList@@QEAAPEAU__POSITION@@PEAVCObject@@@Z @ 2328 NONAME
 ?AddTail@CObList@@QEAAXPEAV1@@Z @ 2329 NONAME
 ?AddTail@CPtrList@@QEAAPEAU__POSITION@@PEAX@Z @ 2330 NONAME
 ?AddTail@CPtrList@@QEAAXPEAV1@@Z @ 2331 NONAME
 ?AddTail@CStringList@@QEAAPEAU__POSITION@@AEBV?$CStringT@_WV?$StrTraitMFC_DLL@_WV?$ChTraitsCRT@_W@ATL@@@@@ATL@@@Z @ 2332 NONAME
 ?AddTail@CStringList@@QEAAPEAU__POSITION@@PEB_W@Z @ 2333 NONAME
 ?AddTail@CStringList@@QEAAXPEAV1@@Z @ 2334 NONAME
 ?AddTask@CJumpList@@QEAAHPEAUIShellLinkW@@@Z @ 2335 NONAME
 ?AddTask@CJumpList@@QEAAHPEB_W000H@Z @ 2336 NONAME
 ?AddTask@CMFCTasksPane@@QEAAHHPEB_WHI_K@Z @ 2337 NONAME
 ?AddTasks@CJumpList@@QEAAHPEAUIObjectArray@@@Z @ 2338 NONAME
 ?AddTaskSeparator@CJumpList@@QEAAHXZ @ 2339 NONAME
 ?AddTearOffToolbar@CFrameImpl@@IEAAXPEAVCBasePane@@@Z @ 2340 NONAME
 ?AddTerminalProp@CMFCPropertyGridProperty@@IEAAXAEAV?$CList@PEAVCMFCPropertyGridProperty@@PEAV1@@@@Z @ 2341 NONAME
 ?AddText@CFileDialog@@QEAAJKAEBV?$CStringT@_WV?$StrTraitMFC_DLL@_WV?$ChTraitsCRT@_W@ATL@@@@@ATL@@@Z @ 2342 NONAME
 ?AddToBottom@CMFCRibbonMainPanel@@QEAAXPEAVCMFCRibbonMainPanelButton@@@Z @ 2343 NONAME
 ?AddToKeyList@CMFCRibbonBaseElement@@UEAAXAEAV?$CArray@PEAVCMFCRibbonKeyTip@@PEAV1@@@@Z @ 2344 NONAME
 ?AddToKeyList@CMFCRibbonButtonsGroup@@MEAAXAEAV?$CArray@PEAVCMFCRibbonKeyTip@@PEAV1@@@@Z @ 2345 NONAME
 ?AddToListBox@CMFCRibbonBaseElement@@UEAAHPEAVCMFCRibbonCommandsListBox@@H@Z @ 2346 NONAME
 ?AddToListBox@CMFCRibbonButton@@MEAAHPEAVCMFCRibbonCommandsListBox@@H@Z @ 2347 NONAME
 ?AddToListBox@CMFCRibbonButtonsGroup@@MEAAHPEAVCMFCRibbonCommandsListBox@@H@Z @ 2348 NONAME
 ?AddToListBox@CMFCRibbonSeparator@@UEAAHPEAVCMFCRibbonCommandsListBox@@H@Z @ 2349 NONAME
 ?AddTool@CToolTipCtrl@@QEAAHPEAVCWnd@@IPEBUtagRECT@@_K@Z @ 2350 NONAME
 ?AddTool@CToolTipCtrl@@QEAAHPEAVCWnd@@PEB_WPEBUtagRECT@@_K@Z @ 2351 NONAME
 ?AddToolBar@CMFCRibbonPanel@@QEAAPEAVCMFCRibbonButtonsGroup@@IIII@Z @ 2352 NONAME
 ?AddToolBar@CMFCToolBarsCustomizeDialog@@QEAAHII@Z @ 2353 NONAME
 ?AddToolBar@CMFCToolBarsCustomizeDialog@@QEAAHPEB_WI@Z @ 2354 NONAME
 ?AddToolBarForImageCollection@CMFCToolBar@@SAHIIIIII@Z @ 2355 NONAME
 ?AddToRecentFileList@CWinApp@@UEAAXPEB_W@Z @ 2356 NONAME
 ?AddToRight@CMFCRibbonMainPanel@@QEAAXPEAVCMFCRibbonBaseElement@@H@Z @ 2357 NONAME
 ?AddToStoryboard@CBaseKeyFrame@@UEAAHPEAUIUIAnimationStoryboard@@H@Z @ 2358 NONAME
 ?AddToStoryboard@CBaseTransition@@QEAAHPEAUIUIAnimationStoryboard@@@Z @ 2359 NONAME
 ?AddToStoryboard@CKeyFrame@@UEAAHPEAUIUIAnimationStoryboard@@H@Z @ 2360 NONAME
 ?AddToStoryboardAfterTransition@CKeyFrame@@QEAAHPEAUIUIAnimationStoryboard@@H@Z @ 2361 NONAME
 ?AddToStoryboardAtKeyframes@CBaseTransition@@QEAAHPEAUIUIAnimationStoryboard@@@Z @ 2362 NONAME
 ?AddToStoryboardAtOffset@CKeyFrame@@UEAAHPEAUIUIAnimationStoryboard@@H@Z @ 2363 NONAME
 ?AddToTabs@CMFCRibbonBar@@QEAAXPEAVCMFCRibbonBaseElement@@@Z @ 2364 NONAME
 ?AddTransition@CAnimationColor@@QEAAXPEAVCBaseTransition@@00@Z @ 2365 NONAME
 ?AddTransition@CAnimationPoint@@QEAAXPEAVCBaseTransition@@0@Z @ 2366 NONAME
 ?AddTransition@CAnimationRect@@QEAAXPEAVCBaseTransition@@000@Z @ 2367 NONAME
 ?AddTransition@CAnimationSize@@QEAAXPEAVCBaseTransition@@0@Z @ 2368 NONAME
 ?AddTransition@CAnimationValue@@QEAAXPEAVCBaseTransition@@@Z @ 2369 NONAME
 ?AddTransition@CAnimationVariable@@QEAAXPEAVCBaseTransition@@@Z @ 2370 NONAME
 ?AddTransitions@CAnimationGroup@@IEAAXPEAUIUIAnimationStoryboard@@H@Z @ 2371 NONAME
 ?AddTreeCategory@CMFCPropertySheet@@QEAAPEAVCMFCPropertySheetCategoryInfo@@PEB_WHHPEBV2@@Z @ 2372 NONAME
 ?AddUndoAction@CMFCRibbonUndoButton@@QEAAXPEB_W@Z @ 2373 NONAME
 ?AddUserTools@CMFCToolBarsCustomizeDialog@@IEAAXPEB_W@Z @ 2374 NONAME
 ?AddView@CDocument@@QEAAXPEAVCView@@@Z @ 2375 NONAME
 ?AddView@CMouseManager@@QEAAHHII@Z @ 2376 NONAME
 ?AddView@CMouseManager@@QEAAHHPEB_WI@Z @ 2377 NONAME
 ?AddView@CTabView@@QEAAHPEAUCRuntimeClass@@AEBV?$CStringT@_WV?$StrTraitMFC_DLL@_WV?$ChTraitsCRT@_W@ATL@@@@@ATL@@HPEAUCCreateContext@@@Z @ 2378 NONAME
 ?AddVirtKeyStr@CMFCAcceleratorKey@@IEBAXAEAV?$CStringT@_WV?$StrTraitMFC_DLL@_WV?$ChTraitsCRT@_W@ATL@@@@@ATL@@IH@Z @ 2379 NONAME
 ?AddWindow@CMFCTasksPane@@QEAAHHPEAUHWND__@@HH_K@Z @ 2380 NONAME
 ?AdjustButtonRect@CMFCPropertyGridProperty@@UEAAXXZ @ 2381 NONAME
 ?AdjustClientArea@CFrameWndEx@@MEAAXXZ @ 2382 NONAME
 ?AdjustClientArea@CMDIChildWndEx@@IEAAXXZ @ 2383 NONAME
 ?AdjustClientArea@CMDIFrameWndEx@@UEAAXXZ @ 2384 NONAME
 ?AdjustClientArea@COleCntrFrameWndEx@@QEAAXXZ @ 2385 NONAME
 ?AdjustControlWidth@CMFCStandardColorsPropertyPage@@AEAAXPEAVCMFCColorPickerCtrl@@H@Z @ 2386 NONAME
 ?AdjustCP@CMetaFileDC@@IEAAXH@Z @ 2387 NONAME
 ?AdjustDialogPosition@CRichEditView@@QEAAXPEAVCDialog@@@Z @ 2388 NONAME
 ?AdjustDockingLayout@CBasePane@@UEAAXPEAX@Z @ 2389 NONAME
 ?AdjustDockingLayout@CDockingManager@@UEAAXPEAX@Z @ 2390 NONAME
 ?AdjustDockingLayout@CDockSite@@UEAAXXZ @ 2391 NONAME
 ?AdjustDockingLayout@CFrameWndEx@@UEAAXPEAX@Z @ 2392 NONAME
 ?AdjustDockingLayout@CMDIChildWndEx@@UEAAXPEAX@Z @ 2393 NONAME
 ?AdjustDockingLayout@CMDIFrameWndEx@@UEAAXPEAX@Z @ 2394 NONAME
 ?AdjustDockingLayout@COleCntrFrameWndEx@@UEAAXPEAX@Z @ 2395 NONAME
 ?AdjustDockingLayout@COleDocIPFrameWndEx@@UEAAXPEAX@Z @ 2396 NONAME
 ?AdjustDockingLayout@COleIPFrameWndEx@@UEAAXPEAX@Z @ 2397 NONAME
 ?AdjustFrames@CMFCVisualManager@@SAXXZ @ 2398 NONAME
 ?AdjustInPlaceEditRect@CMFCPropertyGridColorProperty@@MEAAXAEAVCRect@@0@Z @ 2399 NONAME
 ?AdjustInPlaceEditRect@CMFCPropertyGridProperty@@UEAAXAEAVCRect@@0@Z @ 2400 NONAME
 ?AdjustLayout@CDockSite@@UEAAXXZ @ 2401 NONAME
 ?AdjustLayout@CMFCCaptionBar@@MEAAXXZ @ 2402 NONAME
 ?AdjustLayout@CMFCPopupMenuBar@@MEAAXXZ @ 2403 NONAME
 ?AdjustLayout@CMFCPropertyGridCtrl@@UEAAXXZ @ 2404 NONAME
 ?AdjustLayout@CMFCTasksPaneToolBar@@MEAAXXZ @ 2405 NONAME
 ?AdjustLayout@CMFCToolBar@@UEAAXXZ @ 2406 NONAME
 ?AdjustLayout@CPaneFrameWnd@@UEAAXXZ @ 2407 NONAME
 ?AdjustLayout@CVSListBoxBase@@IEAAXXZ @ 2408 NONAME
 ?AdjustLocations@CMFCColorBar@@MEAAXXZ @ 2409 NONAME
 ?AdjustLocations@CMFCMenuBar@@UEAAXXZ @ 2410 NONAME
 ?AdjustLocations@CMFCOutlookBarPane@@MEAAXXZ @ 2411 NONAME
 ?AdjustLocations@CMFCOutlookBarToolBar@@UEAAXXZ @ 2412 NONAME
 ?AdjustLocations@CMFCPopupMenuBar@@MEAAXXZ @ 2413 NONAME
 ?AdjustLocations@CMFCRibbonPanelMenuBar@@UEAAXXZ @ 2414 NONAME
 ?AdjustLocations@CMFCTasksPaneToolBar@@MEAAXXZ @ 2415 NONAME
 ?AdjustLocations@CMFCToolBar@@MEAAXXZ @ 2416 NONAME
 ?AdjustMDIChildren@CMDIClientAreaWnd@@AEAAXPEAVCMFCTabCtrl@@@Z @ 2417 NONAME
 ?AdjustPaneFrames@CDockingManager@@UEAAXXZ @ 2418 NONAME
 ?AdjustPaneFrames@CMultiPaneFrameWnd@@UEAAXXZ @ 2419 NONAME
 ?AdjustPaneToPaneContainer@CDockablePane@@MEAAXPEAVCPaneDivider@@@Z @ 2420 NONAME
 ?AdjustPaneToRowArea@CDockingPanesRow@@IEAAXPEAVCPane@@AEBVCRect@@AEAPEAX@Z @ 2421 NONAME
 ?AdjustPos@CSmartDockingGroupGuide@@UEAAXVCRect@@@Z @ 2422 NONAME
 ?AdjustPos@CSmartDockingGroupGuidesManager@@UEAAHVCRect@@H@Z @ 2423 NONAME
 ?AdjustPos@CSmartDockingStandaloneGuide@@UEAAXVCRect@@@Z @ 2424 NONAME
 ?AdjustRect@CMFCToolBarComboBoxButton@@IEAAXXZ @ 2425 NONAME
 ?AdjustRect@CMFCToolBarDateTimeCtrl@@IEAAXXZ @ 2426 NONAME
 ?AdjustRect@CRectTracker@@UEAAXHPEAUtagRECT@@@Z @ 2427 NONAME
 ?AdjustRect@CTabCtrl@@QEAAXHPEAUtagRECT@@@Z @ 2428 NONAME
 ?AdjustRect@CToolTipCtrl@@QEAAHPEAUtagRECT@@H@Z @ 2429 NONAME
 ?AdjustRect@XOleIPSite@COleControlSite@@UEAAJPEAUtagRECT@@@Z @ 2430 NONAME
 ?AdjustRectToClientArea@CDockingManager@@UEAAHAEAVCRect@@K@Z @ 2431 NONAME
 ?AdjustRectToMargin@CMFCCaptionBar@@IEAAXAEAVCRect@@AEBV2@HH@Z @ 2432 NONAME
 ?AdjustRectToWorkArea@CGlobalUtils@@QEAAXAEAVCRect@@PEAV2@@Z @ 2433 NONAME
 ?AdjustScroll@CMFCPopupMenu@@IEAAHH@Z @ 2434 NONAME
 ?AdjustScroll@CMFCTasksPane@@IEAAXXZ @ 2435 NONAME
 ?AdjustSize@CMFCToolBar@@QEAAXXZ @ 2436 NONAME
 ?AdjustSizeImmediate@CPane@@UEAAXH@Z @ 2437 NONAME
 ?AdjustTabs@CMFCTabCtrl@@MEAAXXZ @ 2438 NONAME
 ?AdjustTabsScroll@CMFCTabCtrl@@MEAAXXZ @ 2439 NONAME
 ?AdjustToolbars@CMFCVisualManager@@SAXXZ @ 2440 NONAME
 ?AdjustWndScroll@CMFCTabCtrl@@MEAAXXZ @ 2441 NONAME
 ?Advise@CDHtmlElementEventSink@@QEAAJPEAUIUnknown@@AEBU_GUID@@@Z @ 2442 NONAME
 ?Advise@XConnPt@CConnectionPoint@@UEAAJPEAUIUnknown@@PEAK@Z @ 2443 NONAME
 ?Advise@XOleObject@CDocObjectServer@@UEAAJPEAUIAdviseSink@@PEAK@Z @ 2444 NONAME
 ?Advise@XOleObject@COleControl@@UEAAJPEAUIAdviseSink@@PEAK@Z @ 2445 NONAME
 ?Advise@XOleObject@COleServerDoc@@UEAAJPEAUIAdviseSink@@PEAK@Z @ 2446 NONAME
 ?Advise@XOleObject@COleServerItem@@UEAAJPEAUIAdviseSink@@PEAK@Z @ 2447 NONAME
 ?AFX_TAB_IMAGE_MARGIN@CMFCBaseTabCtrl@@2HA @ 2448 NONAME DATA
 ?AFX_TAB_TEXT_MARGIN@CMFCBaseTabCtrl@@2HA @ 2449 NONAME DATA
 ?AFX_WM_AFTER_TASKBAR_ACTIVATE@@3IA @ 2450 NONAME DATA
 ?AFX_WM_CHANGE_ACTIVE_TAB@@3IA @ 2451 NONAME DATA
 ?AFX_WM_CHANGE_CURRENT_FOLDER@@3IA @ 2452 NONAME DATA
 ?AFX_WM_CHANGEVISUALMANAGER@@3IA @ 2453 NONAME DATA
 ?AFX_WM_CHANGING_ACTIVE_TAB@@3IA @ 2454 NONAME DATA
 ?AFX_WM_CHECKEMPTYMINIFRAME@@3IA @ 2455 NONAME DATA
 ?AFX_WM_CREATETOOLBAR@@3IA @ 2456 NONAME DATA
 ?AFX_WM_CUSTOMIZEHELP@@3IA @ 2457 NONAME DATA
 ?AFX_WM_CUSTOMIZETOOLBAR@@3IA @ 2458 NONAME DATA
 ?AFX_WM_DELETETOOLBAR@@3IA @ 2459 NONAME DATA
 ?AFX_WM_DRAW2D@@3IA @ 2460 NONAME DATA
 ?AFX_WM_GETDOCUMENTCOLORS@@3IA @ 2461 NONAME DATA
 ?AFX_WM_GETDRAGBOUNDS@@3IA @ 2462 NONAME DATA
 ?AFX_WM_ON_AFTER_SHELL_COMMAND@@3IA @ 2463 NONAME DATA
 ?AFX_WM_ON_BEFORE_SHOW_RIBBON_ITEM_MENU@@3IA @ 2464 NONAME DATA
 ?AFX_WM_ON_CANCELTABMOVE@@3IA @ 2465 NONAME DATA
 ?AFX_WM_ON_CHANGE_RIBBON_CATEGORY@@3IA @ 2466 NONAME DATA
 ?AFX_WM_ON_CLOSEPOPUPWINDOW@@3IA @ 2467 NONAME DATA
 ?AFX_WM_ON_DRAGCOMPLETE@@3IA @ 2468 NONAME DATA
 ?AFX_WM_ON_GET_TAB_TOOLTIP@@3IA @ 2469 NONAME DATA
 ?AFX_WM_ON_HIGHLIGHT_RIBBON_LIST_ITEM@@3IA @ 2470 NONAME DATA
 ?AFX_WM_ON_HSCROLL@@3IA @ 2471 NONAME DATA
 ?AFX_WM_ON_MOVE_TAB@@3IA @ 2472 NONAME DATA
 ?AFX_WM_ON_MOVETABCOMPLETE@@3IA @ 2473 NONAME DATA
 ?AFX_WM_ON_MOVETOTABGROUP@@3IA @ 2474 NONAME DATA
 ?AFX_WM_ON_PRESS_CLOSE_BUTTON@@3IA @ 2475 NONAME DATA
 ?AFX_WM_ON_RENAME_TAB@@3IA @ 2476 NONAME DATA
 ?AFX_WM_ON_RIBBON_CUSTOMIZE@@3IA @ 2477 NONAME DATA
 ?AFX_WM_ON_TABGROUPMOUSEMOVE@@3IA @ 2478 NONAME DATA
 ?AFX_WM_POSTRECALCLAYOUT@@3IA @ 2479 NONAME DATA
 ?AFX_WM_POSTSETPREVIEWFRAME@@3IA @ 2480 NONAME DATA
 ?AFX_WM_PROPERTY_CHANGED@@3IA @ 2481 NONAME DATA
 ?AFX_WM_RECREATED2DRESOURCES@@3IA @ 2482 NONAME DATA
 ?AFX_WM_RESETCONTEXTMENU@@3IA @ 2483 NONAME DATA
 ?AFX_WM_RESETKEYBOARD@@3IA @ 2484 NONAME DATA
 ?AFX_WM_RESETMENU@@3IA @ 2485 NONAME DATA
 ?AFX_WM_RESETRPROMPT@@3IA @ 2486 NONAME DATA
 ?AFX_WM_RESETTOOLBAR@@3IA @ 2487 NONAME DATA
 ?AFX_WM_SHOWREGULARMENU@@3IA @ 2488 NONAME DATA
 ?AFX_WM_TOOLBARMENU@@3IA @ 2489 NONAME DATA
 ?AFX_WM_UPDATETOOLTIPS@@3IA @ 2490 NONAME DATA
 ?AFX_WM_WINDOW_HELP@@3IA @ 2491 NONAME DATA
 ?AfxA2WHelper@@YAPEA_WPEA_WPEBDH@Z @ 2492 NONAME
 ?AfxAbort@@YAXXZ @ 2493 NONAME
 ?AfxAllocMemoryDebug@@YAPEAX_KHPEBDH@Z @ 2494 NONAME
 ?AfxApplicationRecoveryWrapper@@YAKPEAX@Z @ 2495 NONAME
 ?AfxAssertValidObject@@YAXPEBVCObject@@PEBDH@Z @ 2497 NONAME
 ?AfxAutosaveTimerProc@@YAXPEAUHWND__@@I_KK@Z @ 2498 NONAME
 ?AfxBeginThread@@YAPEAVCWinThread@@P6AIPEAX@Z0HIKPEAU_SECURITY_ATTRIBUTES@@@Z @ 2499 NONAME
 ?AfxBeginThread@@YAPEAVCWinThread@@PEAUCRuntimeClass@@HIKPEAU_SECURITY_ATTRIBUTES@@@Z @ 2500 NONAME
 ?AfxBSTR2CString@@YAXPEAV?$CStringT@_WV?$StrTraitMFC_DLL@_WV?$ChTraitsCRT@_W@ATL@@@@@ATL@@PEA_W@Z @ 2501 NONAME
 ?AfxCallWndProc@@YA_JPEAVCWnd@@PEAUHWND__@@I_K_J@Z @ 2502 NONAME
 ?AfxCancelModes@@YAXPEAUHWND__@@@Z @ 2503 NONAME
 ?AfxCheckError@@YAXJ@Z @ 2504 NONAME
 ?AfxCheckMemory@@YAHXZ @ 2505 NONAME
 ?AfxClassInit@@YAXPEAUCRuntimeClass@@@Z @ 2506 NONAME
 ?AfxComparePath@@YAHPEB_W0@Z @ 2507 NONAME
 ?AfxCompareValueByRef@@YAHPEAX0H@Z @ 2508 NONAME
 ?AfxConnectionAdvise@@YAHPEAUIUnknown@@AEBU_GUID@@0HPEAK@Z @ 2509 NONAME
 ?AfxConnectionUnadvise@@YAHPEAUIUnknown@@AEBU_GUID@@0HK@Z @ 2510 NONAME
 ?AfxCopyValueByRef@@YAXPEAX0PEA_JH@Z @ 2511 NONAME
 ?AfxCoreInitModule@@YAXXZ @ 2512 NONAME
 ?AfxCreateDC@@YAPEAUHDC__@@PEAX0@Z @ 2513 NONAME
 ?AfxCriticalInit@@YAHXZ @ 2514 NONAME
 ?AfxCriticalNewHandler@@YAH_K@Z @ 2515 NONAME
 ?AfxCriticalTerm@@YAXXZ @ 2516 NONAME
 ?AfxCustomLogFont@@YAHIPEAUtagLOGFONTW@@@Z @ 2517 NONAME
 ?afxData@@3UAUX_DATA@@A @ 2518 NONAME DATA
 ?AfxDeleteObject@@YAXPEAPEAX@Z @ 2519 NONAME
 ?AfxDelRegTreeHelper@@YAJPEAUHKEY__@@AEBV?$CStringT@_WV?$StrTraitMFC_DLL@_WV?$ChTraitsCRT@_W@ATL@@@@@ATL@@PEAVCAtlTransactionManager@3@@Z @ 2520 NONAME
 ?AfxDiagnosticInit@@YAHXZ @ 2521 NONAME
 ?AfxDlgProc@@YA_JPEAUHWND__@@I_K_J@Z @ 2522 NONAME
 ?AfxDllCanUnloadNow@@YAJXZ @ 2523 NONAME
 ?AfxDllGetClassObject@@YAJAEBU_GUID@@0PEAPEAX@Z @ 2524 NONAME
 ?AfxDoForAllClasses@@YAXP6AXPEBUCRuntimeClass@@PEAX@Z1@Z @ 2525 NONAME
 ?AfxDoForAllObjects@@YAXP6AXPEAVCObject@@PEAX@Z1@Z @ 2526 NONAME
 ?AfxDoRegisterMFCControlClass@@YAXPEB_W0@Z @ 2527 NONAME
 ?AfxDrawDitheredBitmap@@YAXPEAVCDC@@HHAEBVCBitmap@@KK@Z @ 2528 NONAME
 ?AfxDrawGrayBitmap@@YAXPEAVCDC@@HHAEBVCBitmap@@K@Z @ 2529 NONAME
 ?afxDump@@3VCDumpContext@@A @ 2530 NONAME DATA
 ?AfxDump@@YAXPEBVCObject@@@Z @ 2531 NONAME
 ?AfxDumpMemoryLeaks@@YAHXZ @ 2532 NONAME
 ?AfxDynamicDownCast@@YAPEAVCObject@@PEAUCRuntimeClass@@PEAV1@@Z @ 2533 NONAME
 ?AfxDynamicDownCast@@YAPEBVCObject@@PEAUCRuntimeClass@@PEBV1@@Z @ 2534 NONAME
 ?AfxEditviewTerm@@YAXXZ @ 2535 NONAME
 ?AfxEnableControlContainer@@YAXPEAVCOccManager@@@Z @ 2536 NONAME
 ?AfxEnableMemoryLeakDump@@YAHH@Z @ 2537 NONAME
 ?AfxEnableMemoryLeakOverride@@YAHH@Z @ 2538 NONAME
 ?AfxEnableMemoryTracking@@YAHH@Z @ 2539 NONAME
 ?AfxEndDeferRegisterClass@@YAHJ@Z @ 2540 NONAME
 ?AfxEndThread@@YAXIH@Z @ 2541 NONAME
 ?AfxEnumMetaFileProc@@YAHPEAUHDC__@@PEAUtagHANDLETABLE@@PEAUtagMETARECORD@@H_J@Z @ 2542 NONAME
 ?AfxExtractSubString@@YAHAEAV?$CStringT@_WV?$StrTraitMFC_DLL@_WV?$ChTraitsCRT@_W@ATL@@@@@ATL@@PEB_WH_W@Z @ 2543 NONAME
 ?AfxFailMaxChars@@YAXPEAVCDataExchange@@H@Z @ 2544 NONAME
 ?AfxFailRadio@@YAXPEAVCDataExchange@@@Z @ 2545 NONAME
 ?AfxFieldText@@YAHPEAVCDataExchange@@HPEAXPEAVCRecordset@@@Z @ 2546 NONAME
 ?AfxFindMessageEntry@@YAPEBUAFX_MSGMAP_ENTRY@@PEBU1@III@Z @ 2547 NONAME
 ?AfxFindResourceHandle@@YAPEAUHINSTANCE__@@PEB_W0@Z @ 2548 NONAME
 ?AfxFindStringResourceHandle@@YAPEAUHINSTANCE__@@I@Z @ 2549 NONAME
 ?AfxFormatString1@@YAXAEAV?$CStringT@_WV?$StrTraitMFC_DLL@_WV?$ChTraitsCRT@_W@ATL@@@@@ATL@@IPEB_W@Z @ 2550 NONAME
 ?AfxFormatString2@@YAXAEAV?$CStringT@_WV?$StrTraitMFC_DLL@_WV?$ChTraitsCRT@_W@ATL@@@@@ATL@@IPEB_W1@Z @ 2551 NONAME
 ?AfxFormatStrings@@YAXAEAV?$CStringT@_WV?$StrTraitMFC_DLL@_WV?$ChTraitsCRT@_W@ATL@@@@@ATL@@IPEBQEB_WH@Z @ 2552 NONAME
 ?AfxFormatStrings@@YAXAEAV?$CStringT@_WV?$StrTraitMFC_DLL@_WV?$ChTraitsCRT@_W@ATL@@@@@ATL@@PEB_WPEBQEB_WH@Z @ 2553 NONAME
 ?AfxFreeLibrary@@YAHPEAUHINSTANCE__@@@Z @ 2554 NONAME
 ?AfxFreeMemoryDebug@@YAXPEAXH@Z @ 2555 NONAME
 ?AfxFullPath@@YAHPEA_WPEB_W@Z @ 2556 NONAME
 ?AfxGetAfxWndProc@@YAP6A_JPEAUHWND__@@I_K_J@ZXZ @ 2557 NONAME
 ?AfxGetApp@@YAPEAVCWinApp@@XZ @ 2558 NONAME
 ?AfxGetAppModuleState@@YAPEAVAFX_MODULE_STATE@@XZ @ 2559 NONAME
 ?AfxGetAppName@@YAPEB_WXZ @ 2560 NONAME
 ?AfxGetClassIDFromString@@YAJPEB_WPEAU_GUID@@@Z @ 2561 NONAME
 ?AfxGetCurrentMessage@@YAPEAUtagMSG@@XZ @ 2562 NONAME
 ?AfxGetD2DState@@YAPEAV_AFX_D2D_STATE@@XZ @ 2563 NONAME
 ?AfxGetDitheredBitmap@@YAXAEBVCBitmap@@PEAV1@KK@Z @ 2564 NONAME
 ?AfxGetDlgItemStartFromHWND@@YAPEAUHWND__@@HPEAU1@@Z @ 2565 NONAME
 ?AfxGetDllVersion@@YAKXZ @ 2566 NONAME
 ?AfxGetFacilityString@@YAPEB_WJ@Z @ 2567 NONAME
 ?AfxGetFileName@@YAIPEB_WPEA_WI@Z @ 2568 NONAME
 ?AfxGetFileTitle@@YAIPEB_WPEA_WI@Z @ 2569 NONAME
 ?AfxGetFullScodeString@@YAPEB_WJ@Z @ 2570 NONAME
 ?AfxGetGrayBitmap@@YAXAEBVCBitmap@@PEAV1@K@Z @ 2571 NONAME
 ?AfxGetHENV@@YAPEAXXZ @ 2572 NONAME
 ?AfxGetIIDString@@YA?AV?$CStringT@_WV?$StrTraitMFC_DLL@_WV?$ChTraitsCRT@_W@ATL@@@@@ATL@@AEBU_GUID@@@Z @ 2573 NONAME
 ?AfxGetInProcServer@@YAHPEB_WAEAV?$CStringT@_WV?$StrTraitMFC_DLL@_WV?$ChTraitsCRT@_W@ATL@@@@@ATL@@@Z @ 2574 NONAME
 ?AfxGetInstanceHandle@@YAPEAUHINSTANCE__@@XZ @ 2575 NONAME
 ?AfxGetInstanceHandleHelper@@YAPEAUHINSTANCE__@@XZ @ 2576 NONAME
 ?AfxGetInternetHandleType@@YAKPEAX@Z @ 2577 NONAME
 ?AfxGetMainWnd@@YAPEAVCWnd@@XZ @ 2578 NONAME
 ?AfxGetModuleFileName@@YAXPEAUHINSTANCE__@@AEAV?$CStringT@_WV?$StrTraitMFC_DLL@_WV?$ChTraitsCRT@_W@ATL@@@@@ATL@@@Z @ 2579 NONAME
 ?AfxGetModuleShortFileName@@YAXPEAUHINSTANCE__@@AEAV?$CStringT@_WV?$StrTraitMFC_DLL@_WV?$ChTraitsCRT@_W@ATL@@@@@ATL@@@Z @ 2580 NONAME
 ?AfxGetModuleState@@YAPEAVAFX_MODULE_STATE@@XZ @ 2581 NONAME
 ?AfxGetModuleThreadState@@YAPEAVAFX_MODULE_THREAD_STATE@@XZ @ 2582 NONAME
 ?AfxGetNewHandler@@YAP6AH_K@ZXZ @ 2583 NONAME
 ?AFXGetParentFrame@@YAPEAVCFrameWnd@@PEBVCWnd@@@Z @ 2584 NONAME
 ?AfxGetParentOwner@@YAPEAUHWND__@@PEAU1@@Z @ 2585 NONAME
 ?AfxGetPerUserRegistration@@YAHXZ @ 2586 NONAME
 ?AfxGetPropSheetFont@@YAHAEAV?$CStringT@_WV?$StrTraitMFC_DLL@_WV?$ChTraitsCRT@_W@ATL@@@@@ATL@@AEAGH@Z @ 2587 NONAME
 ?AFXGetRegPath@@YA?AV?$CStringT@_WV?$StrTraitMFC_DLL@_WV?$ChTraitsCRT@_W@ATL@@@@@ATL@@PEB_W0@Z @ 2588 NONAME
 ?AfxGetResourceHandle@@YAPEAUHINSTANCE__@@XZ @ 2589 NONAME
 ?AfxGetRichEditState@@YAPEAV_AFX_RICHEDIT_STATE@@XZ @ 2590 NONAME
 ?AfxGetRoot@@YAXPEB_WAEAV?$CStringT@_WV?$StrTraitMFC_DLL@_WV?$ChTraitsCRT@_W@ATL@@@@@ATL@@@Z @ 2591 NONAME
 ?AfxGetScodeRangeString@@YAPEB_WJ@Z @ 2592 NONAME
 ?AfxGetScodeString@@YAPEB_WJ@Z @ 2593 NONAME
 ?AfxGetSeverityString@@YAPEB_WJ@Z @ 2594 NONAME
 ?AfxGetStringManager@@YAPEAUIAtlStringMgr@ATL@@XZ @ 2595 NONAME
 ?AfxGetThread@@YAPEAVCWinThread@@XZ @ 2596 NONAME
 ?AfxGetThreadState@@YAPEAV_AFX_THREAD_STATE@@XZ @ 2597 NONAME
 ?AfxGetTypeLibCache@@YAPEAVCTypeLibCache@@PEBU_GUID@@@Z @ 2598 NONAME
 ?afxGlobalData@@3UAFX_GLOBAL_DATA@@A @ 2599 NONAME DATA
 ?AfxGlobalFree@@YAXPEAX@Z @ 2600 NONAME
 ?AfxGlobalsAddRef@@YAXXZ @ 2601 NONAME
 ?AfxGlobalsRelease@@YAXXZ @ 2602 NONAME
 ?afxGlobalUtils@@3VCGlobalUtils@@A @ 2603 NONAME DATA
 ?AfxHelpEnabled@@YAHXZ @ 2604 NONAME
 ?AfxHookWindowCreate@@YAXPEAVCWnd@@@Z @ 2605 NONAME
 ?AfxHtmlHelp@@YAPEAUHWND__@@PEAU1@PEB_WI_K@Z @ 2606 NONAME
 ?AfxInitCurrentStateApp@@YAHXZ @ 2607 NONAME
 ?AfxInitExtensionModule@@YAHAEAUAFX_EXTENSION_MODULE@@PEAUHINSTANCE__@@@Z @ 2608 NONAME
 ?AfxInitLocalData@@YAXPEAUHINSTANCE__@@@Z @ 2609 NONAME
 ?AfxInitNetworkAddressControl@@YAHXZ @ 2610 NONAME
 ?AfxInitRichEdit@@YAHXZ @ 2611 NONAME
 ?AfxInitRichEdit2@@YAHXZ @ 2612 NONAME
 ?AfxInitRichEdit5@@YAHXZ @ 2613 NONAME
 ?AfxInitThread@@YAXXZ @ 2614 NONAME
 ?AfxInternalIsIdleMessage@@YAHPEAUtagMSG@@@Z @ 2615 NONAME
 ?AfxInternalOleLoadFromStorage@@YAJPEAUIStorage@@AEBU_GUID@@PEAUIOleClientSite@@PEAPEAXTClassesAllowedInStorage@@K@Z @ 2616 NONAME
 ?AfxInternalPreTranslateMessage@@YAHPEAUtagMSG@@@Z @ 2617 NONAME
 ?AfxInternalProcessWndProcException@@YA_JPEAVCException@@PEBUtagMSG@@@Z @ 2618 NONAME
 ?AfxInternalPumpMessage@@YAHXZ @ 2619 NONAME
 ?AfxInternetStatusCallback@@YAXPEAX_KK0K@Z @ 2620 NONAME
 ?AfxInternetStatusCallbackDebug@@YAXPEAX_KK0K@Z @ 2621 NONAME
 ?AfxIsDescendant@@YAHPEAUHWND__@@0@Z @ 2622 NONAME
 ?AfxIsExtendedFrameClass@@YAHPEAVCWnd@@@Z @ 2623 NONAME
 ?AfxIsIdleMessage@@YAHPEAUtagMSG@@@Z @ 2624 NONAME
 ?AfxIsMemoryBlock@@YAHPEBXIPEAJ@Z @ 2625 NONAME
 ?AfxIsMFCToolBar@@YAHPEAVCWnd@@@Z @ 2626 NONAME
 ?AfxIsModuleDll@@YAHXZ @ 2627 NONAME
 ?AfxIsValidAddress@@YAHPEBX_KH@Z @ 2628 NONAME
 ?AfxIsValidAtom@@YAHG@Z @ 2629 NONAME
 ?AfxIsValidAtom@@YAHPEB_W@Z @ 2630 NONAME
 ?AfxIsValidString@@YAHPEB_WH@Z @ 2631 NONAME
 ?AfxIsValidString@@YAHPEBDH@Z @ 2632 NONAME
 ?afxKeyboardManager@@3PEAVCKeyboardManager@@EA @ 2633 NONAME DATA
 ?AfxLoadField@@YAXAEAVCRecordset@@IPEAXPEA_J@Z @ 2634 NONAME
 ?AfxLoadLangResourceDLL@@YAPEAUHINSTANCE__@@PEB_W@Z @ 2635 NONAME
 ?AfxLoadLangResourceDLL@@YAPEAUHINSTANCE__@@PEB_W0@Z @ 2636 NONAME
 ?AfxLoadLibrary@@YAPEAUHINSTANCE__@@PEB_W@Z @ 2637 NONAME
 ?AfxLoadLibraryEx@@YAPEAUHINSTANCE__@@PEB_WPEAXK@Z @ 2638 NONAME
 ?AfxLoadString@@YAHIPEA_WI@Z @ 2639 NONAME
 ?AfxLoadString@@YAHIPEADI@Z @ 2640 NONAME
 ?AfxLoadSysColorBitmap@@YAPEAUHBITMAP__@@PEAUHINSTANCE__@@PEAUHRSRC__@@H@Z @ 2641 NONAME
 ?AfxLockGlobals@@YAXH@Z @ 2642 NONAME
 ?AfxLockTempMaps@@YAXXZ @ 2643 NONAME
 ?afxMapHDC@@YAPEAVCHandleMap@@H@Z @ 2644 NONAME
 ?afxMapHGDIOBJ@@YAPEAVCHandleMap@@H@Z @ 2645 NONAME
 ?afxMapHIMAGELIST@@YAPEAVCHandleMap@@H@Z @ 2646 NONAME
 ?afxMapHMENU@@YAPEAVCHandleMap@@H@Z @ 2647 NONAME
 ?afxMapHWND@@YAPEAVCHandleMap@@H@Z @ 2648 NONAME
 ?afxMenuHash@@3VCMenuHash@@A @ 2649 NONAME DATA
 ?AfxMergeMenus@@YAPEAUHMENU__@@PEAU1@0PEAJHH@Z @ 2650 NONAME
 ?AfxMessageBox@@YAHIII@Z @ 2651 NONAME
 ?AfxMessageBox@@YAHPEB_WII@Z @ 2652 NONAME
 ?AfxNewHandler@@YAH_K@Z @ 2653 NONAME
 ?AfxOleCanExitApp@@YAHXZ @ 2654 NONAME
 ?AfxOleGetMessageFilter@@YAPEAVCOleMessageFilter@@XZ @ 2655 NONAME
 ?AfxOleGetUserCtrl@@YAHXZ @ 2656 NONAME
 ?AfxOleHookProc@@YAIPEAUHWND__@@I_K_J@Z @ 2657 NONAME
 ?AfxOleInit@@YAHXZ @ 2658 NONAME
 ?AfxOleInprocRegisterHelper@@YAHPEAUHKEY__@@0H@Z @ 2659 NONAME
 ?AfxOleLockApp@@YAXXZ @ 2660 NONAME
 ?AfxOleLockControl@@YAHAEBU_GUID@@@Z @ 2661 NONAME
 ?AfxOleLockControl@@YAHPEB_W@Z @ 2662 NONAME
 ?AfxOleOnReleaseAllObjects@@YAXXZ @ 2663 NONAME
 ?AfxOleRegisterControlClass@@YAHPEAUHINSTANCE__@@AEBU_GUID@@PEB_WIIHK1GG@Z @ 2664 NONAME
 ?AfxOleRegisterHelper@@YAHPEBQEB_W0HHPEAUHKEY__@@@Z @ 2665 NONAME
 ?AfxOleRegisterPropertyPageClass@@YAHPEAUHINSTANCE__@@AEBU_GUID@@I@Z @ 2666 NONAME
 ?AfxOleRegisterPropertyPageClass@@YAHPEAUHINSTANCE__@@AEBU_GUID@@IH@Z @ 2667 NONAME
 ?AfxOleRegisterServerClass@@YAHAEBU_GUID@@PEB_W11W4OLE_APPTYPE@@PEAPEB_W3H1@Z @ 2668 NONAME
 ?AfxOleRegisterServerClass@@YAHAEBU_GUID@@PEB_W11W4OLE_APPTYPE@@PEAPEB_W3H11@Z @ 2669 NONAME
 ?AfxOleRegisterTypeLib@@YAHPEAUHINSTANCE__@@AEBU_GUID@@PEB_W2@Z @ 2670 NONAME
 ?AfxOleSetEditMenu@@YAXPEAVCOleClientItem@@PEAVCMenu@@IIII@Z @ 2671 NONAME
 ?AfxOleSetUserCtrl@@YAXH@Z @ 2672 NONAME
 ?AfxOleTerm@@YAXH@Z @ 2673 NONAME
 ?AfxOleTermOrFreeLib@@YAXHH@Z @ 2674 NONAME
 ?AfxOleUnlockAllControls@@YAXXZ @ 2675 NONAME
 ?AfxOleUnlockApp@@YAXXZ @ 2676 NONAME
 ?AfxOleUnlockControl@@YAHAEBU_GUID@@@Z @ 2677 NONAME
 ?AfxOleUnlockControl@@YAHPEB_W@Z @ 2678 NONAME
 ?AfxOleUnregisterClass@@YAHAEBU_GUID@@PEB_W@Z @ 2679 NONAME
 ?AfxOleUnregisterHelper@@YAHPEBQEB_W0HPEAUHKEY__@@@Z @ 2680 NONAME
 ?AfxOleUnregisterServerClass@@YAHAEBU_GUID@@PEB_W11W4OLE_APPTYPE@@PEAPEB_W3@Z @ 2681 NONAME
 ?AfxOleUnregisterTypeLib@@YAHAEBU_GUID@@GGK@Z @ 2682 NONAME
 ?AfxParseURL@@YAHPEB_WAEAKAEAV?$CStringT@_WV?$StrTraitMFC_DLL@_WV?$ChTraitsCRT@_W@ATL@@@@@ATL@@2AEAG@Z @ 2683 NONAME
 ?AfxParseURLEx@@YAHPEB_WAEAKAEAV?$CStringT@_WV?$StrTraitMFC_DLL@_WV?$ChTraitsCRT@_W@ATL@@@@@ATL@@2AEAG22K@Z @ 2684 NONAME
 ?AFXPlaySystemSound@@YAXH@Z @ 2685 NONAME
 ?AfxPostQuitMessage@@YAXH@Z @ 2686 NONAME
 ?AfxPreTranslateMessage@@YAHPEAUtagMSG@@@Z @ 2687 NONAME
 ?AFXPrintPreview@@YAXPEAVCView@@@Z @ 2688 NONAME
 ?AfxProcessWndProcException@@YA_JPEAVCException@@PEBUtagMSG@@@Z @ 2689 NONAME
 ?AfxPropPageCallback@@YAIPEAUHWND__@@IPEAU_PROPSHEETPAGEW@@@Z @ 2690 NONAME
 ?AfxPropSheetCallback@@YAHPEAUHWND__@@I_J@Z @ 2691 NONAME
 ?AfxPumpMessage@@YAHXZ @ 2692 NONAME
 ?AfxReadStringLength@@YA_KAEAVCArchive@@AEAH@Z @ 2693 NONAME
 ?AfxRegCreateKey@@YAJPEAUHKEY__@@PEB_WPEAPEAU1@PEAVCAtlTransactionManager@ATL@@@Z @ 2694 NONAME
 ?AfxRegDeleteKey@@YAJPEAUHKEY__@@PEB_WPEAVCAtlTransactionManager@ATL@@@Z @ 2695 NONAME
 ?AfxRegisterClass@@YAHPEAUtagWNDCLASSW@@@Z @ 2696 NONAME
 ?AfxRegisterMFCCtrlClasses@@YAXXZ @ 2697 NONAME
 ?AfxRegisterPreviewHandler@@YAHPEB_W00@Z @ 2698 NONAME
 ?AfxRegisterSiteFactory@@YAHPEAVIControlSiteFactory@@@Z @ 2699 NONAME
 ?AfxRegisterThumbnailHandler@@YAHPEB_W0K@Z @ 2700 NONAME
 ?AfxRegisterWndClass@@YAPEB_WIPEAUHICON__@@PEAUHBRUSH__@@0@Z @ 2701 NONAME
 ?AfxRegOpenKey@@YAJPEAUHKEY__@@PEB_WPEAPEAU1@PEAVCAtlTransactionManager@ATL@@@Z @ 2702 NONAME
 ?AfxRegOpenKeyEx@@YAJPEAUHKEY__@@PEB_WKKPEAPEAU1@PEAVCAtlTransactionManager@ATL@@@Z @ 2703 NONAME
 ?AfxRegQueryValue@@YAJPEAUHKEY__@@PEB_WPEA_WPEAJ@Z @ 2704 NONAME
 ?AfxRegSetValue@@YAJPEAUHKEY__@@PEB_WK1K@Z @ 2705 NONAME
 ?AfxReleaseD2DRefs@@YAXXZ @ 2706 NONAME
 ?AfxRepositionWindow@@YAXPEAUAFX_SIZEPARENTPARAMS@@PEAUHWND__@@PEBUtagRECT@@@Z @ 2707 NONAME
 ?AfxResetMsgCache@@YAXXZ @ 2708 NONAME
 ?AfxResolveShortcut@@YAHPEAVCWnd@@PEB_WPEA_WH@Z @ 2709 NONAME
 ?AfxRFXBulkDefault@@YAXPEAVCFieldExchange@@PEB_WPEAXPEA_JH_K@Z @ 2710 NONAME
 ?AfxSafeArrayInit@@YAXPEAVCOleSafeArray@@@Z @ 2711 NONAME
 ?AfxSetAllocHook@@YAP6AH_KHJ@ZP6AH0HJ@Z@Z @ 2712 NONAME
 ?AfxSetAllocStop@@YAXJ@Z @ 2713 NONAME
 ?AfxSetModuleState@@YAPEAVAFX_MODULE_STATE@@PEAV1@@Z @ 2714 NONAME
 ?AfxSetNewHandler@@YAP6AH_K@ZP6AH0@Z@Z @ 2715 NONAME
 ?AfxSetPerUserRegistration@@YAXH@Z @ 2716 NONAME
 ?AfxSetResourceHandle@@YAXPEAUHINSTANCE__@@@Z @ 2717 NONAME
 ?AfxSetWindowText@@YAXPEAUHWND__@@PEB_W@Z @ 2718 NONAME
 ?afxShellManager@@3PEAVCShellManager@@EA @ 2719 NONAME DATA
 ?AfxSocketTerm@@YAXXZ @ 2720 NONAME
 ?AFXSoundThreadProc@@YAXPEAX@Z @ 2721 NONAME
 ?AfxStaticDownCast@@YAPEAVCObject@@PEAUCRuntimeClass@@PEAV1@@Z @ 2722 NONAME
 ?AfxStaticDownCast@@YAPEBVCObject@@PEAUCRuntimeClass@@PEBV1@@Z @ 2723 NONAME
 ?AfxStoreField@@YAXAEAVCRecordset@@IPEAX@Z @ 2724 NONAME
 ?AfxStringFromCLSID@@YA?AV?$CStringT@_WV?$StrTraitMFC_DLL@_WV?$ChTraitsCRT@_W@ATL@@@@@ATL@@AEBU_GUID@@@Z @ 2725 NONAME
 ?AfxTermExtensionModule@@YAXAEAUAFX_EXTENSION_MODULE@@H@Z @ 2726 NONAME
 ?AfxTermLocalData@@YAXPEAUHINSTANCE__@@H@Z @ 2727 NONAME
 ?AfxTermThread@@YAXPEAUHINSTANCE__@@@Z @ 2728 NONAME
 ?AfxTextFloatFormat@@YAXPEAVCDataExchange@@HPEAXNH@Z @ 2729 NONAME
 ?AfxThrowArchiveException@@YAXHPEB_W@Z @ 2730 NONAME
 ?AfxThrowDBException@@YAXFPEAVCDatabase@@PEAX@Z @ 2731 NONAME
 ?AfxThrowFileException@@YAXHJPEB_W@Z @ 2732 NONAME
 ?AfxThrowInternetException@@YAX_KK@Z @ 2733 NONAME
 ?AfxThrowInvalidArgException@@YAXXZ @ 2734 NONAME
 ?AfxThrowLastCleanup@@YAXXZ @ 2735 NONAME
 ?AfxThrowMemoryException@@YAXXZ @ 2736 NONAME
 ?AfxThrowNotSupportedException@@YAXXZ @ 2737 NONAME
 ?AfxThrowOleDispatchException@@YAXGII@Z @ 2738 NONAME
 ?AfxThrowOleDispatchException@@YAXGPEB_WI@Z @ 2739 NONAME
 ?AfxThrowOleException@@YAXJ@Z @ 2740 NONAME
 ?AfxThrowResourceException@@YAXXZ @ 2741 NONAME
 ?AfxThrowUserException@@YAXXZ @ 2742 NONAME
 ?AfxTimeToFileTime@@YAXAEBVCTime@ATL@@PEAU_FILETIME@@@Z @ 2743 NONAME
 ?AfxTlsAddRef@@YAXXZ @ 2744 NONAME
 ?AfxTlsRelease@@YAXXZ @ 2745 NONAME
 ?AfxTrace@@YAXPEB_WZZ @ 2746 NONAME
 ?afxTraceEnabled@@3HA @ 2747 NONAME DATA
 ?afxTraceFlags@@3IA @ 2748 NONAME DATA
 ?AfxTrackerTerm@@YAXXZ @ 2749 NONAME
 ?AfxTryCleanup@@YAXXZ @ 2750 NONAME
 ?AfxUnhookWindowCreate@@YAHXZ @ 2751 NONAME
 ?AfxUnlockGlobals@@YAXH@Z @ 2752 NONAME
 ?AfxUnlockTempMaps@@YAHH@Z @ 2753 NONAME
 ?AfxUnmergeMenus@@YAXPEAUHMENU__@@00@Z @ 2754 NONAME
 ?AfxUnRegisterPreviewHandler@@YAHPEB_W@Z @ 2755 NONAME
 ?AfxUnregisterSiteFactory@@YAHPEAVIControlSiteFactory@@@Z @ 2756 NONAME
 ?AfxUnregisterWndClasses@@YAXXZ @ 2757 NONAME
 ?afxUserToolsManager@@3PEAVCUserToolsManager@@EA @ 2758 NONAME DATA
 ?AfxVariantInit@@YAXPEAUtagVARIANT@@@Z @ 2759 NONAME
 ?AfxVerifyLicFile@@YAHPEAUHINSTANCE__@@PEB_W1I@Z @ 2760 NONAME
 ?AfxW2AHelper@@YAPEADPEADPEB_WH@Z @ 2761 NONAME
 ?AfxWingdixTerm@@YAXXZ @ 2762 NONAME
 ?AfxWinInit@@YAHPEAUHINSTANCE__@@0PEA_WH@Z @ 2763 NONAME
 ?AfxWinMain@@YAHPEAUHINSTANCE__@@0PEA_WH@Z @ 2764 NONAME
 ?AfxWinTerm@@YAXXZ @ 2765 NONAME
 ?AfxWndProc@@YA_JPEAUHWND__@@I_K_J@Z @ 2766 NONAME
 ?AfxWndProcBase@@YA_JPEAUHWND__@@I_K_J@Z @ 2767 NONAME
 ?AfxWndProcDllOle@@YA_JPEAUHWND__@@I_K_J@Z @ 2768 NONAME
 ?AfxWriteStringLength@@YAXAEAVCArchive@@_KH@Z @ 2769 NONAME
 ?AlignAutoHidePane@CDockingManager@@QEAAXPEAVCPaneDivider@@H@Z @ 2770 NONAME
 ?AlignByRect@CDockingManager@@IEAAXAEBVCRect@@AEAV2@KHH@Z @ 2771 NONAME
 ?AlignDockSite@CDockSite@@QEAAXAEBVCRect@@AEAV2@H@Z @ 2772 NONAME
 ?Alloc@CFixedAlloc@@QEAAPEAXXZ @ 2773 NONAME
 ?Alloc@CFixedAllocNoSync@@QEAAPEAXXZ @ 2774 NONAME
 ?Alloc@CMemFile@@MEAAPEAE_K@Z @ 2775 NONAME
 ?Alloc@CSharedFile@@MEAAPEAE_K@Z @ 2776 NONAME
 ?AllocAndCacheFieldInfo@CRecordset@@IEAAXXZ @ 2777 NONAME
 ?Allocate@CAfxStringMgr@@UEAAPEAUCStringData@ATL@@HH@Z @ 2778 NONAME
 ?AllocConnect@CDatabase@@IEAAXK@Z @ 2779 NONAME
 ?AllocData@COleSafeArray@@QEAAXXZ @ 2780 NONAME
 ?AllocDataCache@CRecordset@@QEAAXXZ @ 2781 NONAME
 ?AllocDescriptor@COleSafeArray@@QEAAXK@Z @ 2782 NONAME
 ?AllocElements@CControlBar@@QEAAHHH@Z @ 2783 NONAME
 ?AllocElements@CPane@@QEAAHHH@Z @ 2784 NONAME
 ?AllocElements@CStatusBar@@QEAAHHH@Z @ 2785 NONAME
 ?AllocHstmt@CRecordset@@IEAAHXZ @ 2786 NONAME
 ?AllocPSP@CPropertyPage@@IEAAXK@Z @ 2787 NONAME
 ?AllocRowset@CRecordset@@IEAAXXZ @ 2788 NONAME
 ?AllocSlot@CThreadSlotData@@QEAAHXZ @ 2789 NONAME
 ?AllocStatusArrays@CRecordset@@QEAAXXZ @ 2790 NONAME
 ?AllocSysString@?$CStringT@_WV?$StrTraitMFC_DLL@_WV?$ChTraitsCRT@_W@ATL@@@@@ATL@@QEBAPEA_WXZ @ 2791 NONAME
 ?AllocSysString@?$CStringT@DV?$StrTraitMFC_DLL@DV?$ChTraitsCRT@D@ATL@@@@@ATL@@QEBAPEA_WXZ @ 2792 NONAME
 ?AllocValue@CProperty@@AEAAPEAXK@Z @ 2793 NONAME
 ?AlphaBlend@CDC@@QEAAHHHHHPEAV1@HHHHU_BLENDFUNCTION@@@Z @ 2794 NONAME
 ?AmbientAppearance@COleControl@@QEAAFXZ @ 2795 NONAME
 ?AmbientBackColor@COleControl@@QEAAKXZ @ 2796 NONAME
 ?AmbientDisplayName@COleControl@@QEAA?AV?$CStringT@_WV?$StrTraitMFC_DLL@_WV?$ChTraitsCRT@_W@ATL@@@@@ATL@@XZ @ 2797 NONAME
 ?AmbientFont@COleControl@@QEAAPEAUIFontDisp@@XZ @ 2798 NONAME
 ?AmbientForeColor@COleControl@@QEAAKXZ @ 2799 NONAME
 ?AmbientLocaleID@COleControl@@QEAAKXZ @ 2800 NONAME
 ?AmbientScaleUnits@COleControl@@QEAA?AV?$CStringT@_WV?$StrTraitMFC_DLL@_WV?$ChTraitsCRT@_W@ATL@@@@@ATL@@XZ @ 2801 NONAME
 ?AmbientShowGrabHandles@COleControl@@QEAAHXZ @ 2802 NONAME
 ?AmbientShowHatching@COleControl@@QEAAHXZ @ 2803 NONAME
 ?AmbientTextAlign@COleControl@@QEAAFXZ @ 2804 NONAME
 ?AmbientUIDead@COleControl@@QEAAHXZ @ 2805 NONAME
 ?AmbientUserMode@COleControl@@QEAAHXZ @ 2806 NONAME
 ?AngleArc@CDC@@QEAAHHHHMM@Z @ 2807 NONAME
 ?Animate@CAnimationGroup@@QEAAHPEAUIUIAnimationManager@@PEAUIUIAnimationTimer@@H@Z @ 2808 NONAME
 ?AnimateGroup@CAnimationController@@QEAAHIH@Z @ 2809 NONAME
 ?AnimatePalette@CPalette@@QEAAXIIPEAUtagPALETTEENTRY@@@Z @ 2810 NONAME
 ?AnimTimerProc@CMFCRibbonStatusBarPane@@KAXPEAUHWND__@@I_KK@Z @ 2811 NONAME
 ?Append@?$CSimpleStringT@_W$00@ATL@@QEAAXAEBV12@@Z @ 2812 NONAME
 ?Append@?$CSimpleStringT@_W$00@ATL@@QEAAXPEB_W@Z @ 2813 NONAME
 ?Append@?$CSimpleStringT@_W$00@ATL@@QEAAXPEB_WH@Z @ 2814 NONAME
 ?Append@?$CSimpleStringT@D$00@ATL@@QEAAXAEBV12@@Z @ 2815 NONAME
 ?Append@?$CSimpleStringT@D$00@ATL@@QEAAXPEBD@Z @ 2816 NONAME
 ?Append@?$CSimpleStringT@D$00@ATL@@QEAAXPEBDH@Z @ 2817 NONAME
 ?Append@CByteArray@@QEAA_JAEBV1@@Z @ 2818 NONAME
 ?Append@CDWordArray@@QEAA_JAEBV1@@Z @ 2819 NONAME
 ?Append@CObArray@@QEAA_JAEBV1@@Z @ 2820 NONAME
 ?Append@CPtrArray@@QEAA_JAEBV1@@Z @ 2821 NONAME
 ?Append@CStringArray@@QEAA_JAEBV1@@Z @ 2822 NONAME
 ?Append@CUIntArray@@QEAA_JAEBV1@@Z @ 2823 NONAME
 ?Append@CWordArray@@QEAA_JAEBV1@@Z @ 2824 NONAME
 ?AppendChar@?$CSimpleStringT@_W$00@ATL@@QEAAX_W@Z @ 2825 NONAME
 ?AppendChar@?$CSimpleStringT@D$00@ATL@@QEAAXD@Z @ 2826 NONAME
 ?AppendFilterAndSortSQL@CRecordset@@IEAAXXZ @ 2827 NONAME
 ?AppendFormat@?$CStringT@_WV?$StrTraitMFC_DLL@_WV?$ChTraitsCRT@_W@ATL@@@@@ATL@@QEAAXIZZ @ 2828 NONAME
 ?AppendFormat@?$CStringT@_WV?$StrTraitMFC_DLL@_WV?$ChTraitsCRT@_W@ATL@@@@@ATL@@QEAAXPEB_WZZ @ 2829 NONAME
 ?AppendFormat@?$CStringT@DV?$StrTraitMFC_DLL@DV?$ChTraitsCRT@D@ATL@@@@@ATL@@QEAAXIZZ @ 2830 NONAME
 ?AppendFormat@?$CStringT@DV?$StrTraitMFC_DLL@DV?$ChTraitsCRT@D@ATL@@@@@ATL@@QEAAXPEBDZZ @ 2831 NONAME
 ?AppendFormatV@?$CStringT@_WV?$StrTraitMFC_DLL@_WV?$ChTraitsCRT@_W@ATL@@@@@ATL@@QEAAXPEB_WPEAD@Z @ 2832 NONAME
 ?AppendFormatV@?$CStringT@DV?$StrTraitMFC_DLL@DV?$ChTraitsCRT@D@ATL@@@@@ATL@@QEAAXPEBDPEAD@Z @ 2833 NONAME
 ?AppendMenuW@CMenu@@QEAAHI_KPEB_W@Z @ 2834 NONAME
 ?AppendMenuW@CMenu@@QEAAHI_KPEBVCBitmap@@@Z @ 2835 NONAME
 ?AppendNames@CRecordset@@QEAAIPEAV?$CStringT@_WV?$StrTraitMFC_DLL@_WV?$ChTraitsCRT@_W@ATL@@@@@ATL@@PEB_W@Z @ 2836 NONAME
 ?AppendNamesValues@CRecordset@@QEAAIPEAXPEAV?$CStringT@_WV?$StrTraitMFC_DLL@_WV?$ChTraitsCRT@_W@ATL@@@@@ATL@@PEB_W@Z @ 2837 NONAME
 ?AppendValues@CRecordset@@QEAAIPEAXPEAV?$CStringT@_WV?$StrTraitMFC_DLL@_WV?$ChTraitsCRT@_W@ATL@@@@@ATL@@PEB_W@Z @ 2838 NONAME
 ?ApplicationRecoveryCallback@CWinApp@@UEAAKPEAX@Z @ 2839 NONAME
 ?Apply@XPropertyPage@COlePropertyPage@@UEAAJXZ @ 2840 NONAME
 ?ApplyOFNToShellDialog@CFileDialog@@QEAAXXZ @ 2841 NONAME
 ?ApplyParams@CMDIClientAreaWnd@@AEAAXPEAVCMFCTabCtrl@@@Z @ 2842 NONAME
 ?ApplyPrintDevice@COleDocument@@QEAAHPEBUtagDVTARGETDEVICE@@@Z @ 2843 NONAME
 ?ApplyPrintDevice@COleDocument@@QEAAHPEBUtagPDW@@@Z @ 2844 NONAME
 ?ApplyRestoredTabInfo@CBaseTabbedPane@@UEAAXH@Z @ 2845 NONAME
 ?ApplyRestoredTabInfo@CMFCBaseTabCtrl@@UEAAXH@Z @ 2846 NONAME
 ?ApplyTransitions@CAnimationBaseObject@@UEAAHPEAUIUIAnimationStoryboard@@H@Z @ 2847 NONAME
 ?ApplyTransitions@CAnimationGroup@@QEAAXXZ @ 2848 NONAME
 ?ApplyTransitions@CAnimationVariable@@QEAAXPEAVCAnimationController@@PEAUIUIAnimationStoryboard@@H@Z @ 2849 NONAME
 ?ApplyViewState@XOleDocumentView@CDocObjectServer@@UEAAJPEAUIStream@@@Z @ 2850 NONAME
 ?ApproximateViewRect@CListCtrl@@QEBA?AVCSize@@V2@H@Z @ 2851 NONAME
 ?Arc@CDC@@QEAAHHHHHHHHH@Z @ 2852 NONAME
 ?Arc@CDC@@QEAAHPEBUtagRECT@@UtagPOINT@@1@Z @ 2853 NONAME
 ?ArcTo@CDC@@QEAAHHHHHHHHH@Z @ 2854 NONAME
 ?ArcTo@CDC@@QEAAHPEBUtagRECT@@UtagPOINT@@1@Z @ 2855 NONAME
 ?Arrange@CListCtrl@@QEAAHI@Z @ 2856 NONAME
 ?ArrangeCaptionButtons@CPaneFrameWnd@@IEAAXXZ @ 2857 NONAME
 ?ArrangeIconicWindows@CWnd@@QEAAIXZ @ 2858 NONAME
 ?ArrangePanes@CDockingPanesRow@@UEAAXHH@Z @ 2859 NONAME
 ?ArrangePanes@CDockingPanesRow@@UEAAXPEAVCPane@@@Z @ 2860 NONAME
 ?ArrangePanesRect@CDockingPanesRow@@IEAAXPEAVCPane@@@Z @ 2861 NONAME
 ?AssertValid@CAsyncMonikerFile@@UEBAXXZ @ 2862 NONAME
 ?AssertValid@CAsyncSocket@@UEBAXXZ @ 2863 NONAME
 ?AssertValid@CBitmapButton@@UEBAXXZ @ 2864 NONAME
 ?AssertValid@CByteArray@@UEBAXXZ @ 2865 NONAME
 ?AssertValid@CCachedDataPathProperty@@UEBAXXZ @ 2866 NONAME
 ?AssertValid@CClientDC@@UEBAXXZ @ 2867 NONAME
 ?AssertValid@CCmdTarget@@UEBAXXZ @ 2868 NONAME
 ?AssertValid@CControlBar@@UEBAXXZ @ 2869 NONAME
 ?AssertValid@CCtrlView@@UEBAXXZ @ 2870 NONAME
 ?AssertValid@CDatabase@@UEBAXXZ @ 2871 NONAME
 ?AssertValid@CDataPathProperty@@UEBAXXZ @ 2872 NONAME
 ?AssertValid@CDC@@UEBAXXZ @ 2873 NONAME
 ?AssertValid@CDialog@@UEBAXXZ @ 2874 NONAME
 ?AssertValid@CDocItem@@UEBAXXZ @ 2875 NONAME
 ?AssertValid@CDockBar@@UEBAXXZ @ 2876 NONAME
 ?AssertValid@CDocManager@@UEBAXXZ @ 2877 NONAME
 ?AssertValid@CDocObjectServer@@MEBAXXZ @ 2878 NONAME
 ?AssertValid@CDocObjectServerItem@@UEBAXXZ @ 2879 NONAME
 ?AssertValid@CDocTemplate@@UEBAXXZ @ 2880 NONAME
 ?AssertValid@CDocument@@UEBAXXZ @ 2881 NONAME
 ?AssertValid@CDWordArray@@UEBAXXZ @ 2882 NONAME
 ?AssertValid@CDynLinkLibrary@@UEBAXXZ @ 2883 NONAME
 ?AssertValid@CEditView@@UEBAXXZ @ 2884 NONAME
 ?AssertValid@CFile@@UEBAXXZ @ 2885 NONAME
 ?AssertValid@CFileFind@@MEBAXXZ @ 2886 NONAME
 ?AssertValid@CFormView@@UEBAXXZ @ 2887 NONAME
 ?AssertValid@CFrameWnd@@UEBAXXZ @ 2888 NONAME
 ?AssertValid@CFtpConnection@@UEBAXXZ @ 2889 NONAME
 ?AssertValid@CFtpFileFind@@UEBAXXZ @ 2890 NONAME
 ?AssertValid@CGdiObject@@UEBAXXZ @ 2891 NONAME
 ?AssertValid@CGopherConnection@@UEBAXXZ @ 2892 NONAME
 ?AssertValid@CGopherFile@@UEBAXXZ @ 2893 NONAME
 ?AssertValid@CGopherFileFind@@UEBAXXZ @ 2894 NONAME
 ?AssertValid@CHtmlEditDoc@@UEBAXXZ @ 2895 NONAME
 ?AssertValid@CHtmlEditView@@MEBAXXZ @ 2896 NONAME
 ?AssertValid@CHtmlView@@UEBAXXZ @ 2897 NONAME
 ?AssertValid@CHttpConnection@@UEBAXXZ @ 2898 NONAME
 ?AssertValid@CHttpFile@@MEBAXXZ @ 2899 NONAME
 ?AssertValid@CImageList@@UEBAXXZ @ 2900 NONAME
 ?AssertValid@CInternetConnection@@UEBAXXZ @ 2901 NONAME
 ?AssertValid@CInternetFile@@MEBAXXZ @ 2902 NONAME
 ?AssertValid@CLongBinary@@UEBAXXZ @ 2903 NONAME
 ?AssertValid@CMapPtrToPtr@@UEBAXXZ @ 2904 NONAME
 ?AssertValid@CMapPtrToWord@@UEBAXXZ @ 2905 NONAME
 ?AssertValid@CMapStringToOb@@UEBAXXZ @ 2906 NONAME
 ?AssertValid@CMapStringToPtr@@UEBAXXZ @ 2907 NONAME
 ?AssertValid@CMapStringToString@@UEBAXXZ @ 2908 NONAME
 ?AssertValid@CMapWordToOb@@UEBAXXZ @ 2909 NONAME
 ?AssertValid@CMapWordToPtr@@UEBAXXZ @ 2910 NONAME
 ?AssertValid@CMDIChildWnd@@UEBAXXZ @ 2911 NONAME
 ?AssertValid@CMDIFrameWnd@@UEBAXXZ @ 2912 NONAME
 ?AssertValid@CMemFile@@UEBAXXZ @ 2913 NONAME
 ?AssertValid@CMenu@@UEBAXXZ @ 2914 NONAME
 ?AssertValid@CMFCDropDownToolbarButton@@UEBAXXZ @ 2915 NONAME
 ?AssertValid@CMFCStatusBar@@UEBAXXZ @ 2916 NONAME
 ?AssertValid@CMFCToolBar@@UEBAXXZ @ 2917 NONAME
 ?AssertValid@CMFCToolBarButton@@UEBAXXZ @ 2918 NONAME
 ?AssertValid@CMFCToolBarImages@@MEBAXXZ @ 2919 NONAME
 ?AssertValid@CMFCToolBarMenuButton@@UEBAXXZ @ 2920 NONAME
 ?AssertValid@CMonikerFile@@UEBAXXZ @ 2921 NONAME
 ?AssertValid@CMultiDocTemplate@@UEBAXXZ @ 2922 NONAME
 ?AssertValid@CObArray@@UEBAXXZ @ 2923 NONAME
 ?AssertValid@CObject@@UEBAXXZ @ 2924 NONAME
 ?AssertValid@CObList@@UEBAXXZ @ 2925 NONAME
 ?AssertValid@COleChangeSourceDialog@@UEBAXXZ @ 2926 NONAME
 ?AssertValid@COleClientItem@@UEBAXXZ @ 2927 NONAME
 ?AssertValid@COleCntrFrameWnd@@UEBAXXZ @ 2928 NONAME
 ?AssertValid@COleControl@@UEBAXXZ @ 2929 NONAME
 ?AssertValid@COleDataSource@@UEBAXXZ @ 2930 NONAME
 ?AssertValid@COleDocIPFrameWnd@@UEBAXXZ @ 2931 NONAME
 ?AssertValid@COleDocument@@UEBAXXZ @ 2932 NONAME
 ?AssertValid@COleDropTarget@@UEBAXXZ @ 2933 NONAME
 ?AssertValid@COleIPFrameWnd@@UEBAXXZ @ 2934 NONAME
 ?AssertValid@COleLinkingDoc@@UEBAXXZ @ 2935 NONAME
 ?AssertValid@COleLinksDialog@@UEBAXXZ @ 2936 NONAME
 ?AssertValid@COleMessageFilter@@UEBAXXZ @ 2937 NONAME
 ?AssertValid@COleObjectFactory@@UEBAXXZ @ 2938 NONAME
 ?AssertValid@COlePasteSpecialDialog@@UEBAXXZ @ 2939 NONAME
 ?AssertValid@COlePropertiesDialog@@UEBAXXZ @ 2940 NONAME
 ?AssertValid@COleServerDoc@@UEBAXXZ @ 2941 NONAME
 ?AssertValid@COleServerDocEx@@UEBAXXZ @ 2942 NONAME
 ?AssertValid@COleServerItem@@UEBAXXZ @ 2943 NONAME
 ?AssertValid@COleStreamFile@@UEBAXXZ @ 2944 NONAME
 ?AssertValid@CPaintDC@@UEBAXXZ @ 2945 NONAME
 ?AssertValid@CPreviewDC@@UEBAXXZ @ 2946 NONAME
 ?AssertValid@CPreviewView@@UEBAXXZ @ 2947 NONAME
 ?AssertValid@CPropertyPage@@UEBAXXZ @ 2948 NONAME
 ?AssertValid@CPropertySheet@@UEBAXXZ @ 2949 NONAME
 ?AssertValid@CPtrArray@@UEBAXXZ @ 2950 NONAME
 ?AssertValid@CPtrList@@UEBAXXZ @ 2951 NONAME
 ?AssertValid@CRecordset@@UEBAXXZ @ 2952 NONAME
 ?AssertValid@CRecordView@@UEBAXXZ @ 2953 NONAME
 ?AssertValid@CRichEditCntrItem@@UEBAXXZ @ 2954 NONAME
 ?AssertValid@CRichEditDoc@@UEBAXXZ @ 2955 NONAME
 ?AssertValid@CRichEditView@@UEBAXXZ @ 2956 NONAME
 ?AssertValid@CScrollView@@UEBAXXZ @ 2957 NONAME
 ?AssertValid@CSingleDocTemplate@@UEBAXXZ @ 2958 NONAME
 ?AssertValid@CSocket@@MEBAXXZ @ 2959 NONAME
 ?AssertValid@CSocketFile@@UEBAXXZ @ 2960 NONAME
 ?AssertValid@CSplitterWnd@@UEBAXXZ @ 2961 NONAME
 ?AssertValid@CStatusBar@@UEBAXXZ @ 2962 NONAME
 ?AssertValid@CStringArray@@UEBAXXZ @ 2963 NONAME
 ?AssertValid@CStringList@@UEBAXXZ @ 2964 NONAME
 ?AssertValid@CSyncObject@@UEBAXXZ @ 2965 NONAME
 ?AssertValid@CTabView@@MEBAXXZ @ 2966 NONAME
 ?AssertValid@CToolBar@@UEBAXXZ @ 2967 NONAME
 ?AssertValid@CUIntArray@@UEBAXXZ @ 2968 NONAME
 ?AssertValid@CView@@UEBAXXZ @ 2969 NONAME
 ?AssertValid@CWinApp@@UEBAXXZ @ 2970 NONAME
 ?AssertValid@CWindowDC@@UEBAXXZ @ 2971 NONAME
 ?AssertValid@CWinThread@@UEBAXXZ @ 2972 NONAME
 ?AssertValid@CWnd@@UEBAXXZ @ 2973 NONAME
 ?AssertValid@CWordArray@@UEBAXXZ @ 2974 NONAME
 ?Assign@CSmartDockingStandaloneGuideWnd@@QEAAHPEAUHBITMAP__@@H@Z @ 2975 NONAME
 ?AssignInstance@CThreadSlotData@@QEAAXPEAUHINSTANCE__@@@Z @ 2976 NONAME
 ?AsyncSelect@CAsyncSocket@@QEAAHJ@Z @ 2977 NONAME
 ?Attach@?$CSimpleStringT@_W$00@ATL@@AEAAXPEAUCStringData@2@@Z @ 2978 NONAME
 ?Attach@?$CSimpleStringT@D$00@ATL@@AEAAXPEAUCStringData@2@@Z @ 2979 NONAME
 ?Attach@CAsyncSocket@@QEAAH_KJ@Z @ 2980 NONAME
 ?Attach@CBitmapRenderTarget@@QEAAXPEAUID2D1BitmapRenderTarget@@@Z @ 2981 NONAME
 ?Attach@CD2DBitmap@@QEAAXPEAUID2D1Bitmap@@@Z @ 2982 NONAME
 ?Attach@CD2DBitmapBrush@@QEAAXPEAUID2D1BitmapBrush@@@Z @ 2983 NONAME
 ?Attach@CD2DBrush@@QEAAXPEAUID2D1Brush@@@Z @ 2984 NONAME
 ?Attach@CD2DGeometry@@QEAAXPEAUID2D1Geometry@@@Z @ 2985 NONAME
 ?Attach@CD2DLayer@@QEAAXPEAUID2D1Layer@@@Z @ 2986 NONAME
 ?Attach@CD2DLinearGradientBrush@@QEAAXPEAUID2D1LinearGradientBrush@@@Z @ 2987 NONAME
 ?Attach@CD2DMesh@@QEAAXPEAUID2D1Mesh@@@Z @ 2988 NONAME
 ?Attach@CD2DPathGeometry@@QEAAXPEAUID2D1PathGeometry@@@Z @ 2989 NONAME
 ?Attach@CD2DRadialGradientBrush@@QEAAXPEAUID2D1RadialGradientBrush@@@Z @ 2990 NONAME
 ?Attach@CD2DSolidColorBrush@@QEAAXPEAUID2D1SolidColorBrush@@@Z @ 2991 NONAME
 ?Attach@CDC@@QEAAHPEAUHDC__@@@Z @ 2992 NONAME
 ?Attach@CDCRenderTarget@@QEAAXPEAUID2D1DCRenderTarget@@@Z @ 2993 NONAME
 ?Attach@CGdiObject@@QEAAHPEAX@Z @ 2994 NONAME
 ?Attach@CHwndRenderTarget@@QEAAXPEAUID2D1HwndRenderTarget@@@Z @ 2995 NONAME
 ?Attach@CImageList@@QEAAHPEAU_IMAGELIST@@@Z @ 2996 NONAME
 ?Attach@CMemFile@@QEAAXPEAEII@Z @ 2997 NONAME
 ?Attach@CMenu@@QEAAHPEAUHMENU__@@@Z @ 2998 NONAME
 ?Attach@CMonikerFile@@IEAAHPEAUIMoniker@@PEAUIBindHost@@PEAUIBindStatusCallback@@PEAUIBindCtx@@PEAVCFileException@@@Z @ 2999 NONAME
 ?Attach@CMonikerFile@@IEAAHPEB_WPEAUIBindHost@@PEAUIBindStatusCallback@@PEAUIBindCtx@@PEAVCFileException@@@Z @ 3000 NONAME
 ?Attach@COleDataObject@@QEAAXPEAUIDataObject@@H@Z @ 3001 NONAME
 ?Attach@COleSafeArray@@QEAAXAEAUtagVARIANT@@@Z @ 3002 NONAME
 ?Attach@COleStreamFile@@QEAAXPEAUIStream@@@Z @ 3003 NONAME
 ?Attach@COleVariant@@QEAAXAEAUtagVARIANT@@@Z @ 3004 NONAME
 ?Attach@CRenderTarget@@QEAAXPEAUID2D1RenderTarget@@@Z @ 3005 NONAME
 ?Attach@CSocket@@QEAAH_K@Z @ 3006 NONAME
 ?Attach@CWnd@@QEAAHPEAUHWND__@@@Z @ 3007 NONAME
 ?AttachClipboard@COleDataObject@@QEAAHXZ @ 3008 NONAME
 ?AttachControlSite@COleControlContainer@@QEAAXPEAVCWnd@@I@Z @ 3009 NONAME
 ?AttachControlSite@CWnd@@IEAAXPEAVCHandleMap@@@Z @ 3010 NONAME
 ?AttachControlSite@CWnd@@QEAAXPEAV1@I@Z @ 3011 NONAME
 ?AttachDataObject@COleClientItem@@QEBAXAEAVCOleDataObject@@@Z @ 3012 NONAME
 ?AttachDispatch@COleDispatchDriver@@QEAAXPEAUIDispatch@@H@Z @ 3013 NONAME
 ?AttachHandle@CAsyncSocket@@SAX_KPEAV1@H@Z @ 3014 NONAME
 ?AttachOnSetup@CPrintDialog@@MEAAPEAV1@XZ @ 3015 NONAME
 ?AttachToTabWnd@CDockablePane@@UEAAPEAV1@PEAV1@W4AFX_DOCK_METHOD@@HPEAPEAV1@@Z @ 3016 NONAME
 ?AttachWindow@COleControlSite@@QEAAXXZ @ 3017 NONAME
 ?AutoGrayInactiveImages@CMFCToolBar@@SAXHHH@Z @ 3018 NONAME
 ?AutoHidePane@CDockingManager@@QEAAPEAVCMFCAutoHideBar@@PEAVCDockablePane@@PEAV2@@Z @ 3019 NONAME
 ?AutoLoad@CBitmapButton@@QEAAHIPEAVCWnd@@@Z @ 3020 NONAME
 ?AutosaveAllDocumentInfo@CDataRecoveryHandler@@UEAAHXZ @ 3021 NONAME
 ?AutosaveDocumentInfo@CDataRecoveryHandler@@UEAAHPEAVCDocument@@H@Z @ 3022 NONAME
 ?AutoSize@CToolBarCtrl@@QEAAXXZ @ 3023 NONAME
 ?AuxQueueAdd@CSocket@@KAXI_K_J@Z @ 3024 NONAME
 ?BeforeNavigate2@CHtmlView@@MEAAXPEAUIDispatch@@PEAUtagVARIANT@@1111PEAF@Z @ 3025 NONAME
 ?BeginBusyState@COleMessageFilter@@UEAAXXZ @ 3026 NONAME
 ?BeginDeferErrors@COleLinkingDoc@@QEAAXXZ @ 3027 NONAME
 ?BeginDrag@CDragListBox@@UEAAHVCPoint@@@Z @ 3028 NONAME
 ?BeginDrag@CImageList@@QEAAHHVCPoint@@@Z @ 3029 NONAME
 ?BeginDrag@CReBarCtrl@@QEAAXIK@Z @ 3030 NONAME
 ?BeginDraw@CRenderTarget@@QEAAXXZ @ 3031 NONAME
 ?BeginEnumFormats@COleDataObject@@QEAAXXZ @ 3032 NONAME
 ?BeginFigure@CD2DGeometrySink@@QEAAXVCD2DPointF@@W4D2D1_FIGURE_BEGIN@@@Z @ 3033 NONAME
 ?BeginModalState@CFrameWnd@@UEAAXXZ @ 3034 NONAME
 ?BeginModalState@CWnd@@UEAAXXZ @ 3035 NONAME
 ?BeginPaint@CWnd@@QEAAPEAVCDC@@PEAUtagPAINTSTRUCT@@@Z @ 3036 NONAME
 ?BeginPath@CDC@@QEAAHXZ @ 3037 NONAME
 ?BeginReadChunks@CDocument@@UEAAXXZ @ 3038 NONAME
 ?BeginTrans@CDatabase@@QEAAHXZ @ 3039 NONAME
 ?BeginTrans@CDockingPanesRow@@IEAAXXZ @ 3040 NONAME
 ?BeginWaitCursor@CCmdTarget@@QEAAXXZ @ 3041 NONAME
 ?Bind@CAsyncSocket@@QEAAHIPEB_W@Z @ 3042 NONAME
 ?Bind@CAsyncSocket@@QEAAHPEBUsockaddr@@H@Z @ 3043 NONAME
 ?BindColumns@CDataSourceControl@@UEAAXXZ @ 3044 NONAME
 ?BindControls@COccManager@@IEAAXPEAVCWnd@@@Z @ 3045 NONAME
 ?BindDC@CDCRenderTarget@@QEAAHAEBVCDC@@AEBVCRect@@@Z @ 3046 NONAME
 ?BindDefaultProperty@COleControlSite@@UEAAXJGPEB_WPEAVCWnd@@@Z @ 3047 NONAME
 ?BindDefaultProperty@CWnd@@QEAAXJGPEB_WPEAV1@@Z @ 3048 NONAME
 ?BindFieldsForUpdate@CRecordset@@QEAAXXZ @ 3049 NONAME
 ?BindFieldsToColumns@CRecordset@@QEAAIXZ @ 3050 NONAME
 ?BindParameters@CDatabase@@UEAAXPEAX@Z @ 3051 NONAME
 ?BindParams@CRecordset@@QEAAIPEAX@Z @ 3052 NONAME
 ?BindProp@CDataSourceControl@@UEAAXPEAVCDataBoundProperty@@H@Z @ 3053 NONAME
 ?BindProp@CDataSourceControl@@UEAAXPEAVCOleControlSite@@H@Z @ 3054 NONAME
 ?BindProperty@COleControlSite@@UEAAXJPEAVCWnd@@@Z @ 3055 NONAME
 ?BindProperty@CWnd@@QEAAXJPEAV1@@Z @ 3056 NONAME
 ?BitBlt@CDC@@QEAAHHHHHPEAV1@HHK@Z @ 3057 NONAME
 ?BitmapToClient@CMFCImagePaintArea@@IEAAXAEAVCRect@@@Z @ 3058 NONAME
 ?BoundPropertyChanged@COleControl@@QEAAXJ@Z @ 3059 NONAME
 ?BoundPropertyRequestEdit@COleControl@@QEAAHJ@Z @ 3060 NONAME
 ?BringBarsToTop@CDockingManager@@QEAAXKH@Z @ 3061 NONAME
 ?BringToTop@CFrameWnd@@IEAAXH@Z @ 3062 NONAME
 ?BringWindowToTop@CWnd@@QEAAXXZ @ 3063 NONAME
 ?BroadcastAmbientPropertyChange@COleControlContainer@@UEAAXJ@Z @ 3064 NONAME
 ?BrowseCallbackProc@CShellManager@@KAHPEAUHWND__@@I_J1@Z @ 3065 NONAME
 ?BrowseForFolder@CShellManager@@QEAAHAEAV?$CStringT@_WV?$StrTraitMFC_DLL@_WV?$ChTraitsCRT@_W@ATL@@@@@ATL@@PEAVCWnd@@PEB_W2IPEAH@Z @ 3066 NONAME
 ?Build@CMenuTearOffManager@@QEAAXIAEAV?$CStringT@_WV?$StrTraitMFC_DLL@_WV?$ChTraitsCRT@_W@ATL@@@@@ATL@@@Z @ 3067 NONAME
 ?BuildErrorString@CDBException@@UEAAXPEAVCDatabase@@PEAXH@Z @ 3068 NONAME
 ?BuildFonts@CMFCRibbonFontComboBox@@QEAAXHEE@Z @ 3069 NONAME
 ?BuildOrigItems@CMFCMenuBar@@MEAAHI@Z @ 3070 NONAME
 ?BuildOrigItems@CMFCPopupMenuBar@@QEAAHI@Z @ 3071 NONAME
 ?BuildPanesMenu@CDockingManager@@QEAAXAEAVCMenu@@H@Z @ 3072 NONAME
 ?BuildPropPageArray@CPropertySheet@@UEAAXXZ @ 3073 NONAME
 ?BuildSelectSQL@CRecordset@@IEAAXXZ @ 3074 NONAME
 ?BuildSharedMenu@COleControl@@MEAAHXZ @ 3075 NONAME
 ?BuildSharedMenu@COleDocIPFrameWnd@@MEAAHXZ @ 3076 NONAME
 ?BuildSharedMenu@COleIPFrameWnd@@MEAAHXZ @ 3077 NONAME
 ?BuildSQL@CRecordset@@IEAAXPEB_W@Z @ 3078 NONAME
 ?BuildUpdateSQL@CRecordset@@IEAAXXZ @ 3079 NONAME
 ?ButtonDblClk@COleControl@@IEAAXGIVCPoint@@@Z @ 3080 NONAME
 ?ButtonDown@COleControl@@IEAAXGIVCPoint@@@Z @ 3081 NONAME
 ?ButtonFromAutoHideWindow@CMFCAutoHideBar@@IEAAPEAVCMFCAutoHideButton@@PEAVCDockablePane@@@Z @ 3082 NONAME
 ?ButtonFromPoint@CMFCAutoHideBar@@IEAAPEAVCMFCAutoHideButton@@VCPoint@@@Z @ 3083 NONAME
 ?ButtonToIndex@CMFCToolBar@@QEBAHPEBVCMFCToolBarButton@@@Z @ 3084 NONAME
 ?ButtonUp@COleControl@@IEAAXGIVCPoint@@@Z @ 3085 NONAME
 ?Cache@_AFXCTL_AMBIENT_CACHE@@QEAAXPEAUtagQACONTAINER@@@Z @ 3086 NONAME
 ?Cache@CMFCVisualManagerBitmapCache@@QEAAHAEBVCSize@@AEAVCMFCControlRenderer@@@Z @ 3087 NONAME
 ?Cache@CMFCVisualManagerBitmapCacheItem@CMFCVisualManagerBitmapCache@@QEAAXAEBVCSize@@AEAVCMFCControlRenderer@@@Z @ 3088 NONAME
 ?Cache@CTypeLibCache@@QEAAXKPEAUITypeLib@@@Z @ 3089 NONAME
 ?Cache@XOleCache@COleControl@@UEAAJPEAUtagFORMATETC@@KPEAK@Z @ 3090 NONAME
 ?CacheData@COleDataSource@@QEAAXGPEAUtagSTGMEDIUM@@PEAUtagFORMATETC@@@Z @ 3091 NONAME
 ?CacheGlobalData@COleDataSource@@QEAAXGPEAXPEAUtagFORMATETC@@@Z @ 3092 NONAME
 ?CacheTypeInfo@CTypeLibCache@@QEAAXKAEBU_GUID@@PEAUITypeInfo@@@Z @ 3093 NONAME
 ?CacheY@CMFCVisualManagerBitmapCache@@QEAAHHAEAVCMFCControlRenderer@@@Z @ 3094 NONAME
 ?CalcAvailablePaneSpace@CPaneContainer@@UEAAHHPEAVCPane@@PEAV1@H@Z @ 3095 NONAME
 ?CalcAvailableSize@CPane@@UEAA?AVCSize@@VCRect@@@Z @ 3096 NONAME
 ?CalcAvailableSpace@CPaneContainer@@UEAA?AVCSize@@V2@H@Z @ 3097 NONAME
 ?CalcBorders@CMiniFrameWnd@@SAXPEAUtagRECT@@KK@Z @ 3098 NONAME
 ?CalcBorderSize@CMFCTasksPaneFrameWnd@@UEBAXAEAVCRect@@@Z @ 3099 NONAME
 ?CalcBorderSize@CPaneFrameWnd@@UEBAXAEAVCRect@@@Z @ 3100 NONAME
 ?CalcCorrectOffset@CDockablePane@@IEAA?AVCPoint@@VCRect@@H@Z @ 3101 NONAME
 ?CalcDynamicLayout@CControlBar@@UEAA?AVCSize@@HK@Z @ 3102 NONAME
 ?CalcDynamicLayout@CReBar@@UEAA?AVCSize@@HK@Z @ 3103 NONAME
 ?CalcDynamicLayout@CToolBar@@UEAA?AVCSize@@HK@Z @ 3104 NONAME
 ?CalcEditMargin@CMFCPropertyGridCtrl@@IEAAXXZ @ 3105 NONAME
 ?CalcExpectedDockedRect@CDockingManager@@QEAAXPEAVCWnd@@VCPoint@@AEAVCRect@@AEAHPEAPEAVCDockablePane@@@Z @ 3106 NONAME
 ?CalcExpectedDockedRect@CGlobalUtils@@QEAAXAEAVCPaneContainerManager@@PEAVCWnd@@VCPoint@@AEAVCRect@@AEAHPEAPEAVCDockablePane@@@Z @ 3107 NONAME
 ?CalcExpectedDockedRect@CMultiPaneFrameWnd@@UEAAXPEAVCWnd@@VCPoint@@AEAVCRect@@AEAHPEAPEAVCDockablePane@@@Z @ 3108 NONAME
 ?CalcExpectedDockedRect@CPaneDivider@@UEAAXPEAVCWnd@@VCPoint@@AEAVCRect@@AEAHPEAPEAVCDockablePane@@@Z @ 3109 NONAME
 ?CalcFixedLayout@CControlBar@@UEAA?AVCSize@@HH@Z @ 3110 NONAME
 ?CalcFixedLayout@CDialogBar@@UEAA?AVCSize@@HH@Z @ 3111 NONAME
 ?CalcFixedLayout@CDockablePane@@UEAA?AVCSize@@HH@Z @ 3112 NONAME
 ?CalcFixedLayout@CDockBar@@UEAA?AVCSize@@HH@Z @ 3113 NONAME
 ?CalcFixedLayout@CDockingPanesRow@@UEAA?AVCSize@@HH@Z @ 3114 NONAME
 ?CalcFixedLayout@CDockSite@@UEAA?AVCSize@@HH@Z @ 3115 NONAME
 ?CalcFixedLayout@CMFCAutoHideBar@@UEAA?AVCSize@@HH@Z @ 3116 NONAME
 ?CalcFixedLayout@CMFCCaptionBar@@MEAA?AVCSize@@HH@Z @ 3117 NONAME
 ?CalcFixedLayout@CMFCMenuBar@@UEAA?AVCSize@@HH@Z @ 3118 NONAME
 ?CalcFixedLayout@CMFCOutlookBarPane@@MEAA?AVCSize@@HH@Z @ 3119 NONAME
 ?CalcFixedLayout@CMFCReBar@@UEAA?AVCSize@@HH@Z @ 3120 NONAME
 ?CalcFixedLayout@CMFCRibbonBar@@MEAA?AVCSize@@HH@Z @ 3121 NONAME
 ?CalcFixedLayout@CMFCRibbonStatusBar@@MEAA?AVCSize@@HH@Z @ 3122 NONAME
 ?CalcFixedLayout@CMFCStatusBar@@UEAA?AVCSize@@HH@Z @ 3123 NONAME
 ?CalcFixedLayout@CMFCToolBar@@UEAA?AVCSize@@HH@Z @ 3124 NONAME
 ?CalcFixedLayout@CPaneDivider@@UEAA?AVCSize@@HH@Z @ 3125 NONAME
 ?CalcFixedLayout@CReBar@@UEAA?AVCSize@@HH@Z @ 3126 NONAME
 ?CalcFixedLayout@CStatusBar@@UEAA?AVCSize@@HH@Z @ 3127 NONAME
 ?CalcFixedLayout@CToolBar@@UEAA?AVCSize@@HH@Z @ 3128 NONAME
 ?CalcInsideRect@CControlBar@@UEBAXAEAVCRect@@H@Z @ 3129 NONAME
 ?CalcInsideRect@CPane@@QEBAXAEAVCRect@@H@Z @ 3130 NONAME
 ?CalcInsideRect@CStatusBar@@UEBAXAEAVCRect@@H@Z @ 3131 NONAME
 ?CalcLastPaneOffset@CDockingPanesRow@@IEAAHXZ @ 3132 NONAME
 ?CalcLayout@CMFCMenuBar@@UEAA?AVCSize@@KH@Z @ 3133 NONAME
 ?CalcLayout@CMFCToolBar@@MEAA?AVCSize@@KH@Z @ 3134 NONAME
 ?CalcLayout@CToolBar@@IEAA?AVCSize@@KH@Z @ 3135 NONAME
 ?CalcMaxButtonHeight@CMFCMenuBar@@UEAAHXZ @ 3136 NONAME
 ?CalcMaxButtonHeight@CMFCToolBar@@MEAAHXZ @ 3137 NONAME
 ?CalcMinimumItemHeight@CCheckListBox@@IEAAHXZ @ 3138 NONAME
 ?CalcMinSize@CPaneFrameWnd@@MEAAXAEAVCSize@@PEAUtagMINMAXINFO@@@Z @ 3139 NONAME
 ?CalcNcSize@CMFCControlBarImpl@@IEAAXPEAUtagNCCALCSIZE_PARAMS@@@Z @ 3140 NONAME
 ?CalcPageDisplaySize@CPreviewView@@IEAA?AVCSize@@XZ @ 3141 NONAME
 ?CalcPaneOffset@CDockingManager@@IEAAXPEAVCAutoHideDockSite@@@Z @ 3142 NONAME
 ?CalcRecentDockedRect@CPane@@QEAAXXZ @ 3143 NONAME
 ?CalcRectForSliding@CDockablePane@@IEAAXAEAVCRect@@0H@Z @ 3144 NONAME
 ?CalcRects@CPaneContainerManager@@QEAAXAEAVCRect@@00AEAKKVCSize@@2@Z @ 3145 NONAME
 ?CalcScaleRatio@CPreviewView@@MEAA?AVCSize@@V2@0@Z @ 3146 NONAME
 ?CalcSize@CMFCColorBar@@MEAA?AVCSize@@H@Z @ 3147 NONAME
 ?CalcSize@CMFCPopupMenuBar@@MEAA?AVCSize@@H@Z @ 3148 NONAME
 ?CalcSize@CMFCRibbonPanelMenuBar@@UEAA?AVCSize@@H@Z @ 3149 NONAME
 ?CalcSize@CMFCToolBar@@UEAA?AVCSize@@H@Z @ 3150 NONAME
 ?CalcSize@CToolBar@@IEAA?AVCSize@@PEAU_TBBUTTON@@H@Z @ 3151 NONAME
 ?CalcSysButtonSize@CMFCMenuBar@@IEAAXXZ @ 3152 NONAME
 ?CalcTotalWidth@CMFCRibbonPanel@@IEAAHXZ @ 3153 NONAME
 ?CalculateRecentSize@CPaneContainer@@QEAAXXZ @ 3154 NONAME
 ?CalcWindowRect@CDockSite@@MEAAXPEAUtagRECT@@I@Z @ 3155 NONAME
 ?CalcWindowRect@CEditView@@MEAAXPEAUtagRECT@@I@Z @ 3156 NONAME
 ?CalcWindowRect@CMDIClientAreaWnd@@MEAAXPEAUtagRECT@@I@Z @ 3157 NONAME
 ?CalcWindowRect@CScrollView@@UEAAXPEAUtagRECT@@I@Z @ 3158 NONAME
 ?CalcWindowRect@CView@@UEAAXPEAUtagRECT@@I@Z @ 3159 NONAME
 ?CalcWindowRect@CWnd@@UEAAXPEAUtagRECT@@I@Z @ 3160 NONAME
 ?CalcWindowRectForMDITabbedGroups@CMDIClientAreaWnd@@QEAAXPEAUtagRECT@@I@Z @ 3161 NONAME
 ?CallMemberFunc@CCmdTarget@@IEAAJPEBUAFX_DISPMAP_ENTRY@@GPEAUtagVARIANT@@PEAUtagDISPPARAMS@@PEAI@Z @ 3162 NONAME
 ?CanAcceptMiniFrame@CDockablePane@@UEBAHPEAVCPaneFrameWnd@@@Z @ 3163 NONAME
 ?CanAcceptPane@CAutoHideDockSite@@UEBAHPEBVCBasePane@@@Z @ 3164 NONAME
 ?CanAcceptPane@CDockSite@@UEBAHPEBVCBasePane@@@Z @ 3165 NONAME
 ?CanAcceptPane@CMFCOutlookBar@@UEBAHPEBVCBasePane@@@Z @ 3166 NONAME
 ?CanAccessExternal@CDHtmlDialog@@UEAAHXZ @ 3167 NONAME
 ?CanActivate@COleClientItem@@MEAAHXZ @ 3168 NONAME
 ?CanActivate@CRichEditCntrItem@@UEAAHXZ @ 3169 NONAME
 ?CanActivateNext@CSplitterWnd@@UEAAHH@Z @ 3170 NONAME
 ?CanAppend@CRecordset@@QEBAHXZ @ 3171 NONAME
 ?CanAutoHide@CDockablePane@@UEBAHXZ @ 3172 NONAME
 ?CanBeAddedToQuickAccessToolBar@CMFCRibbonBaseElement@@UEBAHXZ @ 3173 NONAME
 ?CanBeAttached@CGlobalUtils@@QEBAHPEAVCWnd@@@Z @ 3174 NONAME
 ?CanBeAttached@CPaneContainerManager@@UEBAHXZ @ 3175 NONAME
 ?CanBeDockedToPane@CMultiPaneFrameWnd@@UEBAHPEBVCDockablePane@@@Z @ 3176 NONAME
 ?CanBeDockedToPane@CPaneFrameWnd@@UEBAHPEBVCDockablePane@@@Z @ 3177 NONAME
 ?CanBeDropped@CMFCOutlookBarPaneButton@@UEAAHPEAVCMFCToolBar@@@Z @ 3178 NONAME
 ?CanBeRestored@CMFCToolBar@@UEBAHXZ @ 3179 NONAME
 ?CanBeStretched@CMFCRibbonButton@@UEAAHXZ @ 3180 NONAME
 ?CanBeTabbedDocument@CPane@@UEBAHXZ @ 3181 NONAME
 ?CanBookmark@CRecordset@@QEBAHXZ @ 3182 NONAME
 ?Cancel@CDatabase@@QEAAXXZ @ 3183 NONAME
 ?Cancel@CRecordset@@QEAAXXZ @ 3184 NONAME
 ?CancelBlockingCall@CSocket@@QEAAXXZ @ 3185 NONAME
 ?CancelDrag@CDragListBox@@UEAAXVCPoint@@@Z @ 3186 NONAME
 ?Cancelled@XNotifyDBEvents@COleControlSite@@UEAAJKKQEAUtagDBNOTIFYREASON@@@Z @ 3187 NONAME
 ?CancelLink@COleUILinkInfo@@UEAAJK@Z @ 3188 NONAME
 ?CancelLoop@CDockContext@@QEAAXXZ @ 3189 NONAME
 ?CancelMode@CMFCRibbonPanel@@IEAAXXZ @ 3190 NONAME
 ?CancelToClose@CPropertyPage@@QEAAXXZ @ 3191 NONAME
 ?CancelToolTips@CWnd@@SAXH@Z @ 3192 NONAME
 ?CancelUpdate@CRecordset@@QEAAXXZ @ 3193 NONAME
 ?CanCloseFrame@CDocument@@UEAAHPEAVCFrameWnd@@@Z @ 3194 NONAME
 ?CanCloseFrame@COleServerDoc@@UEAAHPEAVCFrameWnd@@@Z @ 3195 NONAME
 ?CanCreateFromData@COleClientItem@@SAHPEBVCOleDataObject@@@Z @ 3196 NONAME
 ?CanCreateLinkFromData@COleClientItem@@SAHPEBVCOleDataObject@@@Z @ 3197 NONAME
 ?CanDock@CDockContext@@QEAAKXZ @ 3198 NONAME
 ?CanDock@CFrameWnd@@QEAAKVCRect@@KPEAPEAVCDockBar@@@Z @ 3199 NONAME
 ?CanEnterHelpMode@CFrameWnd@@QEAAHXZ @ 3200 NONAME
 ?CanFloat@CBasePane@@UEBAHXZ @ 3201 NONAME
 ?CanFloat@CBaseTabbedPane@@UEBAHXZ @ 3202 NONAME
 ?CanHandleSiblings@CMFCToolBar@@QEAAHXZ @ 3203 NONAME
 ?CanInPlaceActivate@XOleIPSite@COleClientItem@@UEAAJXZ @ 3204 NONAME
 ?CanInPlaceActivate@XOleIPSite@COleControlSite@@UEAAJXZ @ 3205 NONAME
 ?CanPaneBeInFloatingMultiPaneFrameWnd@CGlobalUtils@@QEBAHPEAVCWnd@@@Z @ 3206 NONAME
 ?CanPaste@COleClientItem@@SAHXZ @ 3207 NONAME
 ?CanPaste@CRichEditCtrl@@QEBAHI@Z @ 3208 NONAME
 ?CanPaste@CRichEditView@@QEBAHXZ @ 3209 NONAME
 ?CanPasteLink@COleClientItem@@SAHXZ @ 3210 NONAME
 ?CanRedo@CRichEditCtrl@@QEBAHXZ @ 3211 NONAME
 ?CanRestart@CRecordset@@QEBAHXZ @ 3212 NONAME
 ?CanScroll@CRecordset@@QEBAHXZ @ 3213 NONAME
 ?CanShowFewerPageButtons@CMFCOutlookBarTabCtrl@@UEBAHXZ @ 3214 NONAME
 ?CanShowMorePageButtons@CMFCOutlookBarTabCtrl@@UEBAHXZ @ 3215 NONAME
 ?CanTransact@CDatabase@@QEBAHXZ @ 3216 NONAME
 ?CanTransact@CRecordset@@QEBAHXZ @ 3217 NONAME
 ?CanUndo@CEdit@@QEBAHXZ @ 3218 NONAME
 ?CanUndo@CRichEditCtrl@@QEBAHXZ @ 3219 NONAME
 ?CanUpdate@CDatabase@@QEBAHXZ @ 3220 NONAME
 ?CanUpdate@CRecordset@@QEBAHXZ @ 3221 NONAME
 ?CanWindowlessActivate@XOleIPSite@COleControlSite@@UEAAJXZ @ 3222 NONAME
 ?CauseCancelMode@CSmartDockingManager@@QEAAXXZ @ 3223 NONAME
 ?CDHtmlSinkHandlerQueryInterface@CDHtmlEventSink@@UEAAJAEBU_GUID@@PEAPEAX@Z @ 3224 NONAME
 ?CenterElementsInColumn@CMFCRibbonPanel@@IEAAXHHH@Z @ 3225 NONAME
 ?CenterOnPoint@CScrollView@@IEAAXVCPoint@@@Z @ 3226 NONAME
 ?CenterWindow@CWnd@@QEAAXPEAV1@@Z @ 3227 NONAME
 ?ChangeActivePage@CMFCTasksPane@@IEAAXHH@Z @ 3228 NONAME
 ?ChangeBitmap@CToolBarCtrl@@QEAAHHH@Z @ 3229 NONAME
 ?ChangeClipboardChain@CWnd@@QEAAHPEAUHWND__@@@Z @ 3230 NONAME
 ?ChangeType@COleVariant@@QEAAXGPEAUtagVARIANT@@@Z @ 3231 NONAME
 ?CharFromPos@CEdit@@QEBAHVCPoint@@@Z @ 3232 NONAME
 ?CharFromPos@CRichEditCtrl@@QEBAHVCPoint@@@Z @ 3233 NONAME
 ?CharToItem@CListBox@@UEAAHII@Z @ 3234 NONAME
 ?CharToOemA@?$CStringT@_WV?$StrTraitMFC_DLL@_WV?$ChTraitsCRT@_W@ATL@@@@@ATL@@QEAAXXZ @ 3235 NONAME
 ?CharToOemA@?$CStringT@DV?$StrTraitMFC_DLL@DV?$ChTraitsCRT@D@ATL@@@@@ATL@@QEAAXXZ @ 3236 NONAME
 ?Check@CDatabase@@UEBAHF@Z @ 3237 NONAME
 ?Check@CRecordset@@UEBAHF@Z @ 3238 NONAME
 ?CheckAlignment@CGlobalUtils@@QEBAHVCPoint@@PEAVCBasePane@@HPEBVCDockingManager@@HAEAKKPEBUtagRECT@@@Z @ 3239 NONAME
 ?CheckAndRemoveNonValidPane@CPaneContainerManager@@QEAAHPEAVCWnd@@@Z @ 3240 NONAME
 ?CheckArea@CMFCPopupMenu@@QEBA?AW4MENUAREA_TYPE@1@AEBVCPoint@@@Z @ 3241 NONAME
 ?CheckAutoCenter@CDialog@@UEAAHXZ @ 3242 NONAME
 ?CheckAutoCenter@CWnd@@UEAAHXZ @ 3243 NONAME
 ?CheckAutoHideCondition@CDockablePane@@MEAAHXZ @ 3244 NONAME
 ?CheckButton@CToolBarCtrl@@QEAAHHH@Z @ 3245 NONAME
 ?CheckChar@CMFCMaskedEdit@@AEAAH_WH@Z @ 3246 NONAME
 ?CheckCount@CArchive@@QEAAXXZ @ 3247 NONAME
 ?CheckDlgButton@COleControlContainer@@UEAAXHI@Z @ 3248 NONAME
 ?CheckDlgButton@CWnd@@QEAAXHI@Z @ 3249 NONAME
 ?CheckForMiniFrameAndCaption@CPaneContainerManager@@UEAAHVCPoint@@PEAPEAVCDockablePane@@@Z @ 3250 NONAME
 ?CheckFromPoint@CCheckListBox@@IEAAHVCPoint@@AEAH@Z @ 3251 NONAME
 ?CheckGeneral@COleClientItem@@MEAAXJ@Z @ 3252 NONAME
 ?CheckGripperVisibility@CMultiPaneFrameWnd@@UEAAXXZ @ 3253 NONAME
 ?CheckHstmt@CDatabase@@QEBAHFPEAX@Z @ 3254 NONAME
 ?CheckImplicitLoad@?$CStringT@_WV?$StrTraitMFC_DLL@_WV?$ChTraitsCRT@_W@ATL@@@@@ATL@@AEAA_NPEBX@Z @ 3255 NONAME
 ?CheckImplicitLoad@?$CStringT@DV?$StrTraitMFC_DLL@DV?$ChTraitsCRT@D@ATL@@@@@ATL@@AEAA_NPEBX@Z @ 3256 NONAME
 ?CheckMenuItem@CMenu@@QEAAIII@Z @ 3257 NONAME
 ?CheckMenuRadioItem@CMenu@@QEAAHIIII@Z @ 3258 NONAME
 ?CheckNextPrevRadioButton@CMFCButton@@IEAAHH@Z @ 3259 NONAME
 ?CheckPaneDividerVisibility@CPaneContainer@@QEAAXXZ @ 3260 NONAME
 ?CheckPanes@CDockingPanesRow@@IEAAHAEAVCRect@@PEAVCPane@@_NVCPoint@@HAEAPEAX@Z @ 3261 NONAME
 ?Checkpoint@CMemoryState@@QEAAXXZ @ 3262 NONAME
 ?CheckRadioButton@COleControlContainer@@UEAAXHHH@Z @ 3263 NONAME
 ?CheckRadioButton@CWnd@@QEAAXHHH@Z @ 3264 NONAME
 ?CheckRectangle@CMFCCaptionBar@@IEAAHAEAVCRect@@AEBV2@H@Z @ 3265 NONAME
 ?CheckRemovedItems@CJumpList@@IEAAPEAUIObjectCollection@@PEAU2@@Z @ 3266 NONAME
 ?CheckRowsetCurrencyStatus@CRecordset@@QEAAXGJ@Z @ 3267 NONAME
 ?CheckRowsetError@CRecordset@@UEAAXF@Z @ 3268 NONAME
 ?CheckScrollBars@CScrollView@@QEBAXAEAH0@Z @ 3269 NONAME
 ?CheckStopSlideCondition@CDockablePane@@MEAAHH@Z @ 3270 NONAME
 ?CheckTabbedBarAlignment@CTabbedPane@@MEAAHXZ @ 3271 NONAME
 ?CheckVisibility@CPaneDivider@@UEAAHXZ @ 3272 NONAME
 ?ChildWindowFromPoint@CWnd@@QEBAPEAV1@UtagPOINT@@@Z @ 3273 NONAME
 ?ChildWindowFromPoint@CWnd@@QEBAPEAV1@UtagPOINT@@I@Z @ 3274 NONAME
 ?Chord@CDC@@QEAAHHHHHHHHH@Z @ 3275 NONAME
 ?Chord@CDC@@QEAAHPEBUtagRECT@@UtagPOINT@@1@Z @ 3276 NONAME
 ?ChWindowFromPoint@@YAPEAUHWND__@@PEAU1@UtagPOINT@@@Z @ 3277 NONAME
 ?CleanState@CWinAppEx@@UEAAHPEB_W@Z @ 3278 NONAME
 ?CleanStyle@CMFCVisualManagerOffice2007@@SAXXZ @ 3279 NONAME
 ?CleanStyle@CMFCVisualManagerWindows7@@SAXXZ @ 3280 NONAME
 ?CleanUp@AFX_GLOBAL_DATA@@QEAAXXZ @ 3281 NONAME
 ?CleanUp@CCommandManager@@QEAAXXZ @ 3282 NONAME
 ?CleanUp@CKeyboardManager@@SAXXZ @ 3283 NONAME
 ?CleanUp@CMenuHash@@QEAAXXZ @ 3284 NONAME
 ?CleanUp@CMenuImages@@SAXXZ @ 3285 NONAME
 ?CleanUp@CMFCBaseTabCtrl@@UEAAXXZ @ 3286 NONAME
 ?CleanUp@CMFCButton@@UEAAXXZ @ 3287 NONAME
 ?CleanUp@CMFCControlRenderer@@UEAAXXZ @ 3288 NONAME
 ?CleanUp@CMFCFontComboBox@@IEAAXXZ @ 3289 NONAME
 ?CleanUp@CMFCToolBarImages@@SAXXZ @ 3290 NONAME
 ?CleanUp@CMFCVisualManagerOffice2007@@MEAAXXZ @ 3291 NONAME
 ?CleanUp@CMFCVisualManagerWindows7@@UEAAXXZ @ 3292 NONAME
 ?CleanUp@CPaneContainer@@IEAAXXZ @ 3293 NONAME
 ?Cleanup@CPropertyPage@@IEAAXXZ @ 3294 NONAME
 ?CleanUp@CRecentDockSiteInfo@@QEAAXXZ @ 3295 NONAME
 ?Cleanup@CSplitButton@@IEAAXXZ @ 3296 NONAME
 ?CleanUpAutoHideButtons@CMFCAutoHideBar@@IEAAXXZ @ 3297 NONAME
 ?CleanUpCustomizeItems@CMFCRibbonStatusBar@@IEAAXXZ @ 3298 NONAME
 ?CleanUpGroup@CAnimationController@@IEAAXPEAVCAnimationGroup@@@Z @ 3299 NONAME
 ?CleanUpGroup@CAnimationController@@QEAAXI@Z @ 3300 NONAME
 ?CleanUpImages@CMFCToolBar@@SAXXZ @ 3301 NONAME
 ?CleanUpLockedImages@CMFCToolBar@@QEAAXXZ @ 3302 NONAME
 ?CleanupObjectArray@COlePropertyPage@@IEAAXXZ @ 3303 NONAME
 ?CleanUpSizes@CMFCRibbonButtonsGroup@@MEAAXXZ @ 3304 NONAME
 ?CleanUpSizes@CMFCRibbonCategory@@IEAAXXZ @ 3305 NONAME
 ?CleanUpSizes@CMFCRibbonPanel@@IEAAXXZ @ 3306 NONAME
 ?CleanUpThemes@CMFCBaseVisualManager@@IEAAXXZ @ 3307 NONAME
 ?CleanUpUndoList@CMFCRibbonUndoButton@@QEAAXXZ @ 3308 NONAME
 ?Clear@CComboBox@@QEAAXXZ @ 3309 NONAME
 ?Clear@CDBVariant@@QEAAXXZ @ 3310 NONAME
 ?Clear@CDockState@@QEAAXXZ @ 3311 NONAME
 ?Clear@CEdit@@QEAAXXZ @ 3312 NONAME
 ?Clear@CMFCFilterChunkValueImpl@@UEAAXXZ @ 3313 NONAME
 ?Clear@CMFCRibbonGallery@@UEAAXXZ @ 3314 NONAME
 ?Clear@CMFCToolBarImages@@QEAAXXZ @ 3315 NONAME
 ?Clear@CMFCVisualManagerBitmapCache@@QEAAXXZ @ 3316 NONAME
 ?Clear@COleSafeArray@@QEAAXXZ @ 3317 NONAME
 ?Clear@COleVariant@@QEAAXXZ @ 3318 NONAME
 ?Clear@CRenderTarget@@QEAAXU_D3DCOLORVALUE@@@Z @ 3319 NONAME
 ?Clear@CRichEditCtrl@@QEAAXXZ @ 3320 NONAME
 ?ClearAddress@CIPAddressCtrl@@QEAAXXZ @ 3321 NONAME
 ?ClearAll@CJumpList@@QEAAXXZ @ 3322 NONAME
 ?ClearAll@CMFCOutlookBarPane@@QEAAXXZ @ 3323 NONAME
 ?ClearAllCmdImages@CCommandManager@@QEAAXXZ @ 3324 NONAME
 ?ClearAllDestinations@CJumpList@@QEAAXXZ @ 3325 NONAME
 ?ClearAllFilters@CHeaderCtrl@@QEAAHXZ @ 3326 NONAME
 ?ClearChunkList@CDocument@@UEAAXXZ @ 3327 NONAME
 ?ClearCmdImage@CCommandManager@@QEAAXI@Z @ 3328 NONAME
 ?ClearControlData@CMFCControlContainer@@QEAAXXZ @ 3329 NONAME
 ?ClearData@CMFCRibbonComboBox@@MEAAXXZ @ 3330 NONAME
 ?ClearData@CMFCRibbonFontComboBox@@MEAAXXZ @ 3331 NONAME
 ?ClearDirtyFieldStatus@CRecordset@@QEAAXK@Z @ 3332 NONAME
 ?ClearFieldStatus@CRecordset@@QEAAXXZ @ 3333 NONAME
 ?ClearFilter@CHeaderCtrl@@QEAAHH@Z @ 3334 NONAME
 ?ClearFonts@CMFCToolBarFontComboBox@@KAXXZ @ 3335 NONAME
 ?ClearImageList@CMFCBaseTabCtrl@@UEAAXXZ @ 3336 NONAME
 ?ClearImages@CMFCButton@@IEAAXH@Z @ 3337 NONAME
 ?ClearNullFieldStatus@CRecordset@@QEAAXK@Z @ 3338 NONAME
 ?ClearNullParamStatus@CRecordset@@QEAAXK@Z @ 3339 NONAME
 ?ClearPathName@CDocument@@UEAAXXZ @ 3340 NONAME
 ?ClearSel@CSliderCtrl@@QEAAXH@Z @ 3341 NONAME
 ?ClearTics@CSliderCtrl@@QEAAXH@Z @ 3342 NONAME
 ?ClearTransitions@CAnimationBaseObject@@UEAAXH@Z @ 3343 NONAME
 ?ClearTransitions@CAnimationVariable@@QEAAXH@Z @ 3344 NONAME
 ?ClearUserCmdImages@CCommandManager@@QEAAXXZ @ 3345 NONAME
 ?ClickCommandControl@CTaskDialog@@IEBAXH@Z @ 3346 NONAME
 ?ClickRadioButton@CTaskDialog@@IEBAXH@Z @ 3347 NONAME
 ?ClientToParent@COleControl@@UEBAXPEBUtagRECT@@PEAUtagPOINT@@@Z @ 3348 NONAME
 ?ClientToScreen@CWnd@@QEBAXPEAUtagPOINT@@@Z @ 3349 NONAME
 ?ClientToScreen@CWnd@@QEBAXPEAUtagRECT@@@Z @ 3350 NONAME
 ?ClipCaretRect@COleControl@@QEAAHPEAUtagRECT@@@Z @ 3351 NONAME
 ?ClipToPage@CPreviewDC@@QEAAXXZ @ 3352 NONAME
 ?Clone@CAfxStringMgr@@UEAAPEAUIAtlStringMgr@ATL@@XZ @ 3353 NONAME
 ?Clone@CArchiveStream@@UEAAJPEAPEAUIStream@@@Z @ 3354 NONAME
 ?Clone@XEnumVOID@CEnumArray@@UEAAJPEAPEAUIEnumVOID@@@Z @ 3355 NONAME
 ?Clone@XOleDocumentView@CDocObjectServer@@UEAAJPEAUIOleInPlaceSite@@PEAPEAUIOleDocumentView@@@Z @ 3356 NONAME
 ?CloneData@?$CSimpleStringT@_W$00@ATL@@CAPEAUCStringData@2@PEAU32@@Z @ 3357 NONAME
 ?CloneData@?$CSimpleStringT@D$00@ATL@@CAPEAUCStringData@2@PEAU32@@Z @ 3358 NONAME
 ?Close@CAnimateCtrl@@QEAAHXZ @ 3359 NONAME
 ?Close@CArchive@@QEAAXXZ @ 3360 NONAME
 ?Close@CAsyncMonikerFile@@UEAAXXZ @ 3361 NONAME
 ?Close@CAsyncSocket@@UEAAXXZ @ 3362 NONAME
 ?Close@CCachedDataPathProperty@@UEAAXXZ @ 3363 NONAME
 ?Close@CD2DGeometrySink@@QEAAHXZ @ 3364 NONAME
 ?Close@CDatabase@@UEAAXXZ @ 3365 NONAME
 ?Close@CFile@@UEAAXXZ @ 3366 NONAME
 ?Close@CFileFind@@QEAAXXZ @ 3367 NONAME
 ?Close@CInternetConnection@@UEAAXXZ @ 3368 NONAME
 ?Close@CInternetFile@@UEAAXXZ @ 3369 NONAME
 ?Close@CInternetSession@@UEAAXXZ @ 3370 NONAME
 ?Close@CMemFile@@UEAAXXZ @ 3371 NONAME
 ?Close@CMetaFileDC@@QEAAPEAUHMETAFILE__@@XZ @ 3372 NONAME
 ?Close@CMirrorFile@@UEAAXXZ @ 3373 NONAME
 ?Close@CMonikerFile@@UEAAXXZ @ 3374 NONAME
 ?Close@COleClientItem@@QEAAXW4tagOLECLOSE@@@Z @ 3375 NONAME
 ?Close@COleStreamFile@@UEAAXXZ @ 3376 NONAME
 ?Close@CRecordset@@UEAAXXZ @ 3377 NONAME
 ?Close@CSettingsStore@@UEAAXXZ @ 3378 NONAME
 ?Close@CSocket@@UEAAXXZ @ 3379 NONAME
 ?Close@CSocketFile@@UEAAXXZ @ 3380 NONAME
 ?Close@CStdioFile@@UEAAXXZ @ 3381 NONAME
 ?Close@XOleObject@CDocObjectServer@@UEAAJK@Z @ 3382 NONAME
 ?Close@XOleObject@COleControl@@UEAAJK@Z @ 3383 NONAME
 ?Close@XOleObject@COleServerDoc@@UEAAJK@Z @ 3384 NONAME
 ?Close@XOleObject@COleServerItem@@UEAAJK@Z @ 3385 NONAME
 ?CloseAllDocuments@CDocManager@@UEAAXH@Z @ 3386 NONAME
 ?CloseAllDocuments@CDocTemplate@@UEAAXH@Z @ 3387 NONAME
 ?CloseAllDocuments@CWinApp@@QEAAXH@Z @ 3388 NONAME
 ?CloseAllWindows@CMDIClientAreaWnd@@QEAAXPEAVCMFCTabCtrl@@@Z @ 3389 NONAME
 ?CloseColorPopup@CMFCPropertyGridCtrl@@UEAAXXZ @ 3390 NONAME
 ?CloseContext@CFileFind@@MEAAXXZ @ 3391 NONAME
 ?CloseContext@CFtpFileFind@@MEAAXXZ @ 3392 NONAME
 ?CloseContext@CGopherFileFind@@MEAAXXZ @ 3393 NONAME
 ?CloseContextMenu@CMFCToolBarsMenuPropertyPage@@QEAAXPEAVCMFCPopupMenu@@@Z @ 3394 NONAME
 ?CloseDelayedSubMenu@CMFCPopupMenuBar@@UEAAXXZ @ 3395 NONAME
 ?CloseDelayedSubMenu@CMFCRibbonPanelMenuBar@@UEAAXXZ @ 3396 NONAME
 ?CloseEnhanced@CMetaFileDC@@QEAAPEAUHENHMETAFILE__@@XZ @ 3397 NONAME
 ?CloseFigure@CDC@@QEAAHXZ @ 3398 NONAME
 ?CloseMenu@CMFCPopupMenu@@QEAAXH@Z @ 3399 NONAME
 ?CloseMiniFrame@CMultiPaneFrameWnd@@UEAAXXZ @ 3400 NONAME
 ?CloseMiniFrame@CPaneFrameWnd@@MEAAXXZ @ 3401 NONAME
 ?CloseMonthCal@CDateTimeCtrl@@QEAAXXZ @ 3402 NONAME
 ?ClosePopupMenu@CMFCRibbonBaseElement@@UEAAXXZ @ 3403 NONAME
 ?ClosePopupMenu@CMFCRibbonButton@@UEAAXXZ @ 3404 NONAME
 ?CloseView@XOleDocumentView@CDocObjectServer@@UEAAJK@Z @ 3405 NONAME
 ?CloseWindow@CWnd@@QEAAXXZ @ 3406 NONAME
 ?CollapseAllGroups@CMFCTasksPane@@QEAAXH@Z @ 3407 NONAME
 ?CollapseAllGroups@CMFCTasksPane@@QEAAXHH@Z @ 3408 NONAME
 ?CollapseGroup@CMFCTasksPane@@QEAAHPEAVCMFCTasksPaneTaskGroup@@H@Z @ 3409 NONAME
 ?CollapseSubmenus@CMFCPopupMenu@@IEAAXXZ @ 3410 NONAME
 ?Collate@?$CStringT@_WV?$StrTraitMFC_DLL@_WV?$ChTraitsCRT@_W@ATL@@@@@ATL@@QEBAHPEB_W@Z @ 3411 NONAME
 ?Collate@?$CStringT@DV?$StrTraitMFC_DLL@DV?$ChTraitsCRT@D@ATL@@@@@ATL@@QEBAHPEBD@Z @ 3412 NONAME
 ?CollateNoCase@?$CStringT@_WV?$StrTraitMFC_DLL@_WV?$ChTraitsCRT@_W@ATL@@@@@ATL@@QEBAHPEB_W@Z @ 3413 NONAME
 ?CollateNoCase@?$CStringT@DV?$StrTraitMFC_DLL@DV?$ChTraitsCRT@D@ATL@@@@@ATL@@QEBAHPEBD@Z @ 3414 NONAME
 ?CollectBaseElement@CMFCRibbonCollector@@MEAAXAEBVCMFCRibbonBaseElement@@AEAVXElement@CMFCRibbonInfo@@H@Z @ 3415 NONAME
 ?CollectCategory@CMFCRibbonCollector@@MEAAXAEBVCMFCRibbonCategory@@AEAVXCategory@CMFCRibbonInfo@@@Z @ 3416 NONAME
 ?CollectCategoryMain@CMFCRibbonCollector@@MEAAXAEBVCMFCRibbonBar@@AEAVXCategoryMain@CMFCRibbonInfo@@@Z @ 3417 NONAME
 ?CollectElement@CMFCRibbonCollector@@MEAAPEAVXElement@CMFCRibbonInfo@@AEBVCMFCRibbonBaseElement@@@Z @ 3418 NONAME
 ?CollectElement@CMFCRibbonCollector@@MEAAXAEBVCMFCRibbonBaseElement@@AEAVXElement@CMFCRibbonInfo@@@Z @ 3419 NONAME
 ?CollectImageInfo@CMFCRibbonCollector@@MEAAXAEAVCMFCToolBarImages@@AEAVXImage@CMFCRibbonInfo@@H@Z @ 3420 NONAME
 ?CollectPanel@CMFCRibbonCollector@@MEAAXAEBVCMFCRibbonPanel@@AEAVXPanel@CMFCRibbonInfo@@@Z @ 3421 NONAME
 ?CollectQATElements@CMFCRibbonCollector@@MEAAXAEBVCMFCRibbonBar@@AEAVXRibbonBar@CMFCRibbonInfo@@@Z @ 3422 NONAME
 ?CollectRibbonBar@CMFCRibbonCollector@@MEAAXAEBVCMFCRibbonBar@@AEAVXRibbonBar@CMFCRibbonInfo@@@Z @ 3423 NONAME
 ?CollectRibbonBar@CMFCRibbonCollector@@UEAAXAEBVCMFCRibbonBar@@@Z @ 3424 NONAME
 ?COLORREF_TO_D2DCOLOR@CRenderTarget@@SA?AU_D3DCOLORVALUE@@KH@Z @ 3425 NONAME
 ?CombineRgn@CRgn@@QEAAHPEBV1@0H@Z @ 3426 NONAME
 ?CombineWithGeometry@CD2DGeometry@@QEBAHAEAV1@W4D2D1_COMBINE_MODE@@AEBUD2D_MATRIX_3X2_F@@PEAUID2D1SimplifiedGeometrySink@@M@Z @ 3427 NONAME
 ?Command@CFtpConnection@@QEAAPEAVCInternetFile@@PEB_WW4CmdResponseType@1@K_K@Z @ 3428 NONAME
 ?CommandToIndex@CMFCStatusBar@@QEBAHI@Z @ 3429 NONAME
 ?CommandToIndex@CMFCToolBar@@QEBAHIH@Z @ 3430 NONAME
 ?CommandToIndex@CStatusBar@@QEBAHI@Z @ 3431 NONAME
 ?CommandToIndex@CToolBar@@QEBAHI@Z @ 3432 NONAME
 ?CommandToIndex@CToolBarCtrl@@QEBAII@Z @ 3433 NONAME
 ?Commit@CArchiveStream@@UEAAJK@Z @ 3434 NONAME
 ?CommitItem@COleClientItem@@UEAAXH@Z @ 3435 NONAME
 ?CommitItems@COleDocument@@QEAAXHPEAUIStorage@@@Z @ 3436 NONAME
 ?CommitList@CJumpList@@QEAAHXZ @ 3437 NONAME
 ?CommitTrans@CDatabase@@QEAAHXZ @ 3438 NONAME
 ?CommitTrans@CDockingPanesRow@@IEAAXXZ @ 3439 NONAME
 ?CommonBaseInit@CFile@@IEAAXPEAXPEAVCAtlTransactionManager@ATL@@@Z @ 3440 NONAME
 ?CommonBaseInit@CStdioFile@@IEAAXPEAU_iobuf@@PEAVCAtlTransactionManager@ATL@@@Z @ 3441 NONAME
 ?CommonConstruct@CDialogEx@@IEAAXXZ @ 3442 NONAME
 ?CommonConstruct@COleObjectFactory@@IEAAXAEBU_GUID@@PEAUCRuntimeClass@@HHPEB_W@Z @ 3443 NONAME
 ?CommonConstruct@CPropertyPage@@IEAAXPEB_WI@Z @ 3444 NONAME
 ?CommonConstruct@CPropertyPage@@IEAAXPEB_WIII@Z @ 3445 NONAME
 ?CommonConstruct@CPropertySheet@@QEAAXPEAVCWnd@@I@Z @ 3446 NONAME
 ?CommonConstruct@CPropertySheet@@QEAAXPEAVCWnd@@IPEAUHBITMAP__@@PEAUHPALETTE__@@1@Z @ 3447 NONAME
 ?CommonConstruct@CWinThread@@QEAAXXZ @ 3448 NONAME
 ?CommonCreate@CMFCDesktopAlertWnd@@IEAAHVCPoint@@PEAVCMFCDesktopAlertWndInfo@@@Z @ 3449 NONAME
 ?CommonInit@CD2DBitmap@@IEAAXXZ @ 3450 NONAME
 ?CommonInit@CD2DBitmapBrush@@IEAAXPEAUD2D1_BITMAP_BRUSH_PROPERTIES@@@Z @ 3451 NONAME
 ?CommonInit@CD2DBrushProperties@@IEAAXXZ @ 3452 NONAME
 ?CommonInit@CFile@@IEAAXPEB_WIPEAVCAtlTransactionManager@ATL@@@Z @ 3453 NONAME
 ?CommonInit@CMFCControlRendererInfo@@QEAAXXZ @ 3454 NONAME
 ?CommonInit@CMFCCustomizeButton@@IEAAXXZ @ 3455 NONAME
 ?CommonInit@CMFCDropDownListBox@@IEAAXXZ @ 3456 NONAME
 ?CommonInit@CMFCHeaderCtrl@@IEAAXXZ @ 3457 NONAME
 ?CommonInit@CMFCPropertyPage@@IEAAXXZ @ 3458 NONAME
 ?CommonInit@CMFCPropertySheet@@IEAAXXZ @ 3459 NONAME
 ?CommonInit@CMFCRibbonButton@@IEAAXXZ @ 3460 NONAME
 ?CommonInit@CMFCRibbonCategory@@IEAAXPEAVCMFCRibbonBar@@PEB_WIIVCSize@@2@Z @ 3461 NONAME
 ?CommonInit@CMFCRibbonColorButton@@IEAAXXZ @ 3462 NONAME
 ?CommonInit@CMFCRibbonComboBox@@IEAAXXZ @ 3463 NONAME
 ?CommonInit@CMFCRibbonEdit@@IEAAXXZ @ 3464 NONAME
 ?CommonInit@CMFCRibbonGallery@@IEAAXXZ @ 3465 NONAME
 ?CommonInit@CMFCRibbonGalleryMenuButton@@IEAAXXZ @ 3466 NONAME
 ?CommonInit@CMFCRibbonPanel@@IEAAXPEB_WPEAUHICON__@@@Z @ 3467 NONAME
 ?CommonInit@CMFCRibbonPanelMenuBar@@IEAAXXZ @ 3468 NONAME
 ?CommonInit@CMFCRibbonProgressBar@@IEAAXXZ @ 3469 NONAME
 ?CommonInit@CMFCRibbonSlider@@IEAAXXZ @ 3470 NONAME
 ?CommonInit@CMFCRibbonStatusBarPane@@IEAAXXZ @ 3471 NONAME
 ?CommonInit@CMFCRibbonUndoButton@@IEAAXXZ @ 3472 NONAME
 ?CommonInit@CMFCToolBarImages@@QEAAXH@Z @ 3473 NONAME
 ?CommonInit@CStdioFile@@IEAAXPEB_WIPEAVCAtlTransactionManager@ATL@@@Z @ 3474 NONAME
 ?Compare@?$CStringT@_WV?$StrTraitMFC_DLL@_WV?$ChTraitsCRT@_W@ATL@@@@@ATL@@QEBAHPEB_W@Z @ 3475 NONAME
 ?Compare@?$CStringT@DV?$StrTraitMFC_DLL@DV?$ChTraitsCRT@D@ATL@@@@@ATL@@QEBAHPEBD@Z @ 3476 NONAME
 ?Compare@CMFCToolBarComboBoxButton@@UEAAHPEB_W0@Z @ 3477 NONAME
 ?CompareItem@CComboBox@@UEAAHPEAUtagCOMPAREITEMSTRUCT@@@Z @ 3478 NONAME
 ?CompareItem@CListBox@@UEAAHPEAUtagCOMPAREITEMSTRUCT@@@Z @ 3479 NONAME
 ?CompareItem@CMFCFontComboBox@@UEAAHPEAUtagCOMPAREITEMSTRUCT@@@Z @ 3480 NONAME
 ?CompareNoCase@?$CStringT@_WV?$StrTraitMFC_DLL@_WV?$ChTraitsCRT@_W@ATL@@@@@ATL@@QEBAHPEB_W@Z @ 3481 NONAME
 ?CompareNoCase@?$CStringT@DV?$StrTraitMFC_DLL@DV?$ChTraitsCRT@D@ATL@@@@@ATL@@QEBAHPEBD@Z @ 3482 NONAME
 ?CompareProc@CMFCListCtrl@@KAH_J00@Z @ 3483 NONAME
 ?CompareProc@CMFCShellTreeCtrl@@KAH_J00@Z @ 3484 NONAME
 ?CompareProps@CMFCPropertyGridCtrl@@MEBAHPEBVCMFCPropertyGridProperty@@0@Z @ 3485 NONAME
 ?CompareWith@CMFCToolBarButton@@UEBAHAEBV1@@Z @ 3486 NONAME
 ?CompareWith@CMFCToolBarMenuButton@@UEBAHAEBVCMFCToolBarButton@@@Z @ 3487 NONAME
 ?CompareWithGeometry@CD2DGeometry@@QEBA?AW4D2D1_GEOMETRY_RELATION@@AEAV1@AEBUD2D_MATRIX_3X2_F@@M@Z @ 3488 NONAME
 ?ComputeArea@CD2DGeometry@@QEBAHAEBUD2D_MATRIX_3X2_F@@AEAMM@Z @ 3489 NONAME
 ?ComputeDeltas@CPreviewDC@@IEAA?AVCSize@@AEAHPEB_WAEAIHIPEAHHPEA_W30@Z @ 3490 NONAME
 ?ComputeLength@CD2DGeometry@@QEBAHAEBUD2D_MATRIX_3X2_F@@AEAMM@Z @ 3491 NONAME
 ?ComputePointAtLength@CD2DGeometry@@QEBAHMAEBUD2D_MATRIX_3X2_F@@AEAVCD2DPointF@@1M@Z @ 3492 NONAME
 ?Concatenate@?$CSimpleStringT@_W$00@ATL@@KAXAEAV12@PEB_WH1H@Z @ 3493 NONAME
 ?Concatenate@?$CSimpleStringT@D$00@ATL@@KAXAEAV12@PEBDH1H@Z @ 3494 NONAME
 ?ConcatenateItem@CShellManager@@QEAAPEFAU_ITEMIDLIST@@PEFBU2@0@Z @ 3495 NONAME
 ?Connect@CAsyncSocket@@QEAAHPEB_WI@Z @ 3496 NONAME
 ?Connect@CAsyncSocket@@QEAAHPEBUsockaddr@@H@Z @ 3497 NONAME
 ?Connect@CDatabase@@IEAAHK@Z @ 3498 NONAME
 ?ConnectDHtmlElementEvents@CDHtmlDialog@@IEAAJ_K@Z @ 3499 NONAME
 ?ConnectDHtmlEvents@CDHtmlDialog@@IEAAJPEAUIUnknown@@@Z @ 3500 NONAME
 ?ConnectHelper@CAsyncSocket@@MEAAHPEBUsockaddr@@H@Z @ 3501 NONAME
 ?ConnectHelper@CSocket@@MEAAHPEBUsockaddr@@H@Z @ 3502 NONAME
 ?ConnectSink@COleControlSite@@IEAAKAEBU_GUID@@PEAUIUnknown@@@Z @ 3503 NONAME
 ?ConnectTemplate@COleTemplateServer@@QEAAXAEBU_GUID@@PEAVCDocTemplate@@HH@Z @ 3504 NONAME
 ?ConnectToConnectionPoint@CDHtmlEventSink@@QEAAJPEAUIUnknown@@AEBU_GUID@@PEAK@Z @ 3505 NONAME
 ?ConnectToControl@CDHtmlControlSink@@QEAAJPEAUIUnknown@@@Z @ 3506 NONAME
 ?ConnectView@COleServerDoc@@IEAAXPEAVCWnd@@PEAVCView@@@Z @ 3507 NONAME
 ?Construct@?$CStringT@_WV?$StrTraitMFC_DLL@_WV?$ChTraitsCRT@_W@ATL@@@@@ATL@@SAXPEAV12@@Z @ 3508 NONAME
 ?Construct@?$CStringT@DV?$StrTraitMFC_DLL@DV?$ChTraitsCRT@D@ATL@@@@@ATL@@SAXPEAV12@@Z @ 3509 NONAME
 ?Construct@CPropertyPage@@QEAAXII@Z @ 3510 NONAME
 ?Construct@CPropertyPage@@QEAAXIIII@Z @ 3511 NONAME
 ?Construct@CPropertyPage@@QEAAXPEB_WI@Z @ 3512 NONAME
 ?Construct@CPropertyPage@@QEAAXPEB_WIII@Z @ 3513 NONAME
 ?Construct@CPropertySheet@@QEAAXIPEAVCWnd@@I@Z @ 3514 NONAME
 ?Construct@CPropertySheet@@QEAAXIPEAVCWnd@@IPEAUHBITMAP__@@PEAUHPALETTE__@@1@Z @ 3515 NONAME
 ?Construct@CPropertySheet@@QEAAXPEB_WPEAVCWnd@@I@Z @ 3516 NONAME
 ?Construct@CPropertySheet@@QEAAXPEB_WPEAVCWnd@@IPEAUHBITMAP__@@PEAUHPALETTE__@@2@Z @ 3517 NONAME
 ?Construct@CRectTracker@@IEAAXXZ @ 3518 NONAME
 ?ConstructBaseElement@CMFCRibbonConstructor@@MEBAXAEAVCMFCRibbonBaseElement@@AEBVXElement@CMFCRibbonInfo@@@Z @ 3519 NONAME
 ?ConstructCategory@CMFCRibbonConstructor@@MEBAXAEAVCMFCRibbonCategory@@AEBVXCategory@CMFCRibbonInfo@@@Z @ 3520 NONAME
 ?ConstructCategoryMain@CMFCRibbonConstructor@@MEBAXAEAVCMFCRibbonBar@@AEBVXCategoryMain@CMFCRibbonInfo@@@Z @ 3521 NONAME
 ?ConstructElement@CMFCRibbonConstructor@@MEBAXAEAVCMFCRibbonBaseElement@@AEBVXElement@CMFCRibbonInfo@@@Z @ 3522 NONAME
 ?ConstructPanel@CMFCRibbonConstructor@@MEBAXAEAVCMFCRibbonPanel@@AEBVXPanel@CMFCRibbonInfo@@@Z @ 3523 NONAME
 ?ConstructQATElements@CMFCRibbonConstructor@@MEBAXAEAVCMFCRibbonBar@@AEBVXRibbonBar@CMFCRibbonInfo@@@Z @ 3524 NONAME
 ?ConstructRibbonBar@CMFCRibbonConstructor@@UEBAXAEAVCMFCRibbonBar@@@Z @ 3525 NONAME
 ?ConstructTabElements@CMFCRibbonConstructor@@MEBAXAEAVCMFCRibbonBar@@AEBVXRibbonBar@CMFCRibbonInfo@@@Z @ 3526 NONAME
 ?ContainsVariable@CAnimationBaseObject@@UEAAHPEAUIUIAnimationVariable@@@Z @ 3527 NONAME
 ?ContextSensitiveHelp@XOleInPlaceActiveObject@COleControl@@UEAAJH@Z @ 3528 NONAME
 ?ContextSensitiveHelp@XOleInPlaceActiveObject@COleServerDoc@@UEAAJH@Z @ 3529 NONAME
 ?ContextSensitiveHelp@XOleInPlaceFrame@COleFrameHook@@UEAAJH@Z @ 3530 NONAME
 ?ContextSensitiveHelp@XOleInPlaceObject@COleControl@@UEAAJH@Z @ 3531 NONAME
 ?ContextSensitiveHelp@XOleInPlaceObject@COleServerDoc@@UEAAJH@Z @ 3532 NONAME
 ?ContextSensitiveHelp@XOleIPFrame@COleControlContainer@@UEAAJH@Z @ 3533 NONAME
 ?ContextSensitiveHelp@XOleIPSite@COleClientItem@@UEAAJH@Z @ 3534 NONAME
 ?ContextSensitiveHelp@XOleIPSite@COleControlSite@@UEAAJH@Z @ 3535 NONAME
 ?ContextSensitiveHelp@XOleWindow@CDocument@@UEAAJH@Z @ 3536 NONAME
 ?ContextSensitiveHelp@XRichEditOleCallback@CRichEditView@@UEAAJH@Z @ 3537 NONAME
 ?ContextToSize@CMFCColorBar@@QEAAXHH@Z @ 3538 NONAME
 ?ContinueModal@CPropertySheet@@UEAAHXZ @ 3539 NONAME
 ?ContinueModal@CWnd@@UEAAHXZ @ 3540 NONAME
 ?ContinueRouting@CCmdUI@@QEAAXXZ @ 3541 NONAME
 ?ControlBarCleanUp@@YAXXZ @ 3542 NONAME
 ?ControlBarToTabbedDocument@CMDIFrameWndEx@@UEAAPEAVCMDIChildWndEx@@PEAVCDockablePane@@@Z @ 3543 NONAME
 ?ControlInfoChanged@COleControl@@QEAAXXZ @ 3544 NONAME
 ?ConvertObject@XOleUIObjInfo@COlePropertiesDialog@@UEAAJKAEBU_GUID@@@Z @ 3545 NONAME
 ?ConvertTo@COleClientItem@@UEAAHAEBU_GUID@@@Z @ 3546 NONAME
 ?ConvertTo@CRichEditCntrItem@@UEAAHAEBU_GUID@@@Z @ 3547 NONAME
 ?ConvertTo32Bits@CMFCToolBarImages@@QEAAHK@Z @ 3548 NONAME
 ?ConvertToTabbedDocument@CBaseTabbedPane@@UEAAXH@Z @ 3549 NONAME
 ?ConvertToTabbedDocument@CDockablePane@@UEAAXH@Z @ 3550 NONAME
 ?ConvertToTabbedDocument@CMultiPaneFrameWnd@@UEAAXXZ @ 3551 NONAME
 ?ConvertToTabbedDocument@CPane@@UEAAXH@Z @ 3552 NONAME
 ?ConvertToTabbedDocument@CPaneFrameWnd@@UEAAXXZ @ 3553 NONAME
 ?Copy@CByteArray@@QEAAXAEBV1@@Z @ 3554 NONAME
 ?Copy@CComboBox@@QEAAXXZ @ 3555 NONAME
 ?Copy@CDWordArray@@QEAAXAEBV1@@Z @ 3556 NONAME
 ?Copy@CEdit@@QEAAXXZ @ 3557 NONAME
 ?Copy@CImageList@@QEAAHHHI@Z @ 3558 NONAME
 ?Copy@CImageList@@QEAAHHPEAV1@HI@Z @ 3559 NONAME
 ?Copy@CMFCToolBarImages@@SAPEAUHBITMAP__@@PEAU2@@Z @ 3560 NONAME
 ?Copy@CObArray@@QEAAXAEBV1@@Z @ 3561 NONAME
 ?Copy@COleSafeArray@@QEAAXPEAPEAUtagSAFEARRAY@@@Z @ 3562 NONAME
 ?Copy@CPaneContainer@@UEAAPEAV1@PEAV1@@Z @ 3563 NONAME
 ?Copy@CPtrArray@@QEAAXAEBV1@@Z @ 3564 NONAME
 ?Copy@CRichEditCtrl@@QEAAXXZ @ 3565 NONAME
 ?Copy@CStringArray@@QEAAXAEBV1@@Z @ 3566 NONAME
 ?Copy@CUIntArray@@QEAAXAEBV1@@Z @ 3567 NONAME
 ?Copy@CWordArray@@QEAAXAEBV1@@Z @ 3568 NONAME
 ?CopyButtonsList@CMFCOutlookBarPane@@IEAAXAEBVCObList@@AEAV2@@Z @ 3569 NONAME
 ?CopyChars@?$CSimpleStringT@_W$00@ATL@@SAXPEA_WPEB_WH@Z @ 3570 NONAME
 ?CopyChars@?$CSimpleStringT@D$00@ATL@@SAXPEADPEBDH@Z @ 3571 NONAME
 ?CopyCharsOverlapped@?$CSimpleStringT@_W$00@ATL@@SAXPEA_WPEB_WH@Z @ 3572 NONAME
 ?CopyCharsOverlapped@?$CSimpleStringT@D$00@ATL@@SAXPEADPEBDH@Z @ 3573 NONAME
 ?CopyChunk@CMFCFilterChunkValueImpl@@UEAAJPEAUtagSTAT_CHUNK@@@Z @ 3574 NONAME
 ?CopyColumnID@CDataSourceControl@@QEAAHPEAUtagDBCOLUMNID@@PEBU2@@Z @ 3575 NONAME
 ?CopyFrom@CMFCColorMenuButton@@MEAAXAEBVCMFCToolBarButton@@@Z @ 3576 NONAME
 ?CopyFrom@CMFCCustomizeButton@@UEAAXAEBVCMFCToolBarButton@@@Z @ 3577 NONAME
 ?CopyFrom@CMFCCustomizeMenuButton@@MEAAXAEBVCMFCToolBarButton@@@Z @ 3578 NONAME
 ?CopyFrom@CMFCDropDownToolbarButton@@UEAAXAEBVCMFCToolBarButton@@@Z @ 3579 NONAME
 ?CopyFrom@CMFCFilterChunkValueImpl@@UEAAXPEAUIFilterChunkValue@ATL@@@Z @ 3580 NONAME
 ?CopyFrom@CMFCRibbonBaseElement@@UEAAXAEBV1@@Z @ 3581 NONAME
 ?CopyFrom@CMFCRibbonButton@@MEAAXAEBVCMFCRibbonBaseElement@@@Z @ 3582 NONAME
 ?CopyFrom@CMFCRibbonButtonsGroup@@MEAAXAEBVCMFCRibbonBaseElement@@@Z @ 3583 NONAME
 ?CopyFrom@CMFCRibbonCategory@@UEAAXAEAV1@@Z @ 3584 NONAME
 ?CopyFrom@CMFCRibbonColorButton@@MEAAXAEBVCMFCRibbonBaseElement@@@Z @ 3585 NONAME
 ?CopyFrom@CMFCRibbonComboBox@@MEAAXAEBVCMFCRibbonBaseElement@@@Z @ 3586 NONAME
 ?CopyFrom@CMFCRibbonDefaultPanelButton@@UEAAXAEBVCMFCRibbonBaseElement@@@Z @ 3587 NONAME
 ?CopyFrom@CMFCRibbonEdit@@UEAAXAEBVCMFCRibbonBaseElement@@@Z @ 3588 NONAME
 ?CopyFrom@CMFCRibbonFontComboBox@@MEAAXAEBVCMFCRibbonBaseElement@@@Z @ 3589 NONAME
 ?CopyFrom@CMFCRibbonGallery@@MEAAXAEBVCMFCRibbonBaseElement@@@Z @ 3590 NONAME
 ?CopyFrom@CMFCRibbonGalleryIcon@@MEAAXAEBVCMFCRibbonBaseElement@@@Z @ 3591 NONAME
 ?CopyFrom@CMFCRibbonGalleryMenuButton@@UEAAXAEBVCMFCToolBarButton@@@Z @ 3592 NONAME
 ?CopyFrom@CMFCRibbonLinkCtrl@@UEAAXAEBVCMFCRibbonBaseElement@@@Z @ 3593 NONAME
 ?CopyFrom@CMFCRibbonMainPanel@@MEAAXAEAVCMFCRibbonPanel@@@Z @ 3594 NONAME
 ?CopyFrom@CMFCRibbonPanel@@MEAAXAEAV1@@Z @ 3595 NONAME
 ?CopyFrom@CMFCRibbonProgressBar@@MEAAXAEBVCMFCRibbonBaseElement@@@Z @ 3596 NONAME
 ?CopyFrom@CMFCRibbonQuickAccessToolBarDefaultState@@QEAAXAEBV1@@Z @ 3597 NONAME
 ?CopyFrom@CMFCRibbonSeparator@@MEAAXAEBVCMFCRibbonBaseElement@@@Z @ 3598 NONAME
 ?CopyFrom@CMFCRibbonSlider@@MEAAXAEBVCMFCRibbonBaseElement@@@Z @ 3599 NONAME
 ?CopyFrom@CMFCRibbonStatusBarPane@@MEAAXAEBVCMFCRibbonBaseElement@@@Z @ 3600 NONAME
 ?CopyFrom@CMFCRibbonTab@@UEAAXAEBVCMFCRibbonBaseElement@@@Z @ 3601 NONAME
 ?CopyFrom@CMFCRibbonUndoButton@@MEAAXAEBVCMFCRibbonBaseElement@@@Z @ 3602 NONAME
 ?CopyFrom@CMFCToolBarButton@@UEAAXAEBV1@@Z @ 3603 NONAME
 ?CopyFrom@CMFCToolBarComboBoxButton@@UEAAXAEBVCMFCToolBarButton@@@Z @ 3604 NONAME
 ?CopyFrom@CMFCToolBarDateTimeCtrl@@UEAAXAEBVCMFCToolBarButton@@@Z @ 3605 NONAME
 ?CopyFrom@CMFCToolBarEditBoxButton@@UEAAXAEBVCMFCToolBarButton@@@Z @ 3606 NONAME
 ?CopyFrom@CMFCToolBarFontComboBox@@MEAAXAEBVCMFCToolBarButton@@@Z @ 3607 NONAME
 ?CopyFrom@CMFCToolBarMenuButton@@UEAAXAEBVCMFCToolBarButton@@@Z @ 3608 NONAME
 ?CopyFrom@CMFCToolBarMenuButtonsButton@@UEAAXAEBVCMFCToolBarButton@@@Z @ 3609 NONAME
 ?CopyFrom@CMFCToolBarSpinEditBoxButton@@MEAAXAEBVCMFCToolBarButton@@@Z @ 3610 NONAME
 ?CopyFrom@CMFCToolBarSystemMenuButton@@UEAAXAEBVCMFCToolBarButton@@@Z @ 3611 NONAME
 ?CopyFrom@CRibbonCategoryScroll@@EEAAXAEBVCMFCRibbonBaseElement@@@Z @ 3612 NONAME
 ?CopyFromBitmap@CD2DBitmap@@QEAAJPEBV1@PEBVCD2DPointU@@PEBVCD2DRectU@@@Z @ 3613 NONAME
 ?CopyFromMemory@CD2DBitmap@@QEAAJPEBXIPEBVCD2DRectU@@@Z @ 3614 NONAME
 ?CopyFromRenderTarget@CD2DBitmap@@QEAAJPEBVCRenderTarget@@PEBVCD2DPointU@@PEBVCD2DRectU@@@Z @ 3615 NONAME
 ?CopyIconToClipboard@CUserTool@@QEAAHXZ @ 3616 NONAME
 ?CopyImageToClipboard@CMFCToolBarImages@@QEAAHH@Z @ 3617 NONAME
 ?CopyItem@CShellManager@@QEAAPEFAU_ITEMIDLIST@@PEFBU2@@Z @ 3618 NONAME
 ?CopyKeyMap@CMFCKeyMapDialog@@MEAAXXZ @ 3619 NONAME
 ?CopyOriginalMenuItemsFromMenu@CContextMenuManager@@IEAAXIAEAVCMFCPopupMenuBar@@@Z @ 3620 NONAME
 ?CopyOriginalMenuItemsToMenu@CContextMenuManager@@IEAAXIAEAVCMFCPopupMenuBar@@@Z @ 3621 NONAME
 ?CopyRgn@CRgn@@QEAAHPEBV1@@Z @ 3622 NONAME
 ?CopyState@CBasePane@@UEAAXPEAV1@@Z @ 3623 NONAME
 ?CopyState@CDockablePane@@UEAAXPEAV1@@Z @ 3624 NONAME
 ?CopyState@CPane@@UEAAXPEAV1@@Z @ 3625 NONAME
 ?CopyTemp@CMFCToolBarImages@@IEAAXAEAV1@@Z @ 3626 NONAME
 ?CopyTo@CArchiveStream@@UEAAJPEAUIStream@@T_ULARGE_INTEGER@@PEAT3@2@Z @ 3627 NONAME
 ?CopyTo@CMFCToolBarImages@@QEAAHAEAV1@@Z @ 3628 NONAME
 ?CopyTo@CSmartDockingInfo@@QEAAXAEAV1@@Z @ 3629 NONAME
 ?CopyToClipboard@COleClientItem@@QEAAXH@Z @ 3630 NONAME
 ?CopyToClipboard@COleServerItem@@QEAAXH@Z @ 3631 NONAME
 ?CorrectZoomSize@CMFCZoomKernel@@SAXAEBVCSize@@AEAV2@W4XZoomType@1@@Z @ 3632 NONAME
 ?Create@CAnimateCtrl@@UEAAHKAEBUtagRECT@@PEAVCWnd@@I@Z @ 3633 NONAME
 ?Create@CAnimationVariable@@UEAAHPEAUIUIAnimationManager@@@Z @ 3634 NONAME
 ?Create@CAsyncSocket@@QEAAHIHJPEB_W@Z @ 3635 NONAME
 ?Create@CButton@@UEAAHPEB_WKAEBUtagRECT@@PEAVCWnd@@I@Z @ 3636 NONAME
 ?Create@CCheckListBox@@UEAAHKAEBUtagRECT@@PEAVCWnd@@I@Z @ 3637 NONAME
 ?Create@CComboBox@@UEAAHKAEBUtagRECT@@PEAVCWnd@@I@Z @ 3638 NONAME
 ?Create@CComboBoxEx@@UEAAHKAEBUtagRECT@@PEAVCWnd@@I@Z @ 3639 NONAME
 ?Create@CControlFrameWnd@@UEAAHPEB_W@Z @ 3640 NONAME
 ?Create@CD2DBitmap@@UEAAJPEAVCRenderTarget@@@Z @ 3641 NONAME
 ?Create@CD2DBitmapBrush@@UEAAJPEAVCRenderTarget@@@Z @ 3642 NONAME
 ?Create@CD2DLayer@@UEAAJPEAVCRenderTarget@@@Z @ 3643 NONAME
 ?Create@CD2DLinearGradientBrush@@UEAAJPEAVCRenderTarget@@@Z @ 3644 NONAME
 ?Create@CD2DMesh@@UEAAJPEAVCRenderTarget@@@Z @ 3645 NONAME
 ?Create@CD2DPathGeometry@@UEAAJPEAVCRenderTarget@@@Z @ 3646 NONAME
 ?Create@CD2DRadialGradientBrush@@UEAAJPEAVCRenderTarget@@@Z @ 3647 NONAME
 ?Create@CD2DSolidColorBrush@@UEAAJPEAVCRenderTarget@@@Z @ 3648 NONAME
 ?Create@CDateTimeCtrl@@UEAAHKAEBUtagRECT@@PEAVCWnd@@I@Z @ 3649 NONAME
 ?Create@CDCRenderTarget@@QEAAHAEBUD2D1_RENDER_TARGET_PROPERTIES@@@Z @ 3650 NONAME
 ?Create@CDialog@@UEAAHIPEAVCWnd@@@Z @ 3651 NONAME
 ?Create@CDialog@@UEAAHPEB_WPEAVCWnd@@@Z @ 3652 NONAME
 ?Create@CDialogBar@@UEAAHPEAVCWnd@@III@Z @ 3653 NONAME
 ?Create@CDialogBar@@UEAAHPEAVCWnd@@PEB_WII@Z @ 3654 NONAME
 ?Create@CDockablePane@@UEAAHPEB_WPEAVCWnd@@AEBUtagRECT@@HIKKKPEAUCCreateContext@@@Z @ 3655 NONAME
 ?Create@CDockablePane@@UEAAHPEB_WPEAVCWnd@@VCSize@@HIKKK@Z @ 3656 NONAME
 ?Create@CDockBar@@UEAAHPEAVCWnd@@KI@Z @ 3657 NONAME
 ?Create@CDockingManager@@QEAAHPEAVCFrameWnd@@@Z @ 3658 NONAME
 ?Create@CDockSite@@UEAAHKAEBUtagRECT@@PEAVCWnd@@KPEAUCCreateContext@@@Z @ 3659 NONAME
 ?Create@CEdit@@QEAAHKAEBUtagRECT@@PEAVCWnd@@I@Z @ 3660 NONAME
 ?Create@CFindReplaceDialog@@UEAAHHPEB_W0KPEAVCWnd@@@Z @ 3661 NONAME
 ?Create@CFormView@@MEAAHPEB_W0KAEBUtagRECT@@PEAVCWnd@@IPEAUCCreateContext@@@Z @ 3662 NONAME
 ?Create@CFrameWnd@@UEAAHPEB_W0KAEBUtagRECT@@PEAVCWnd@@0KPEAUCCreateContext@@@Z @ 3663 NONAME
 ?Create@CHeaderCtrl@@UEAAHKAEBUtagRECT@@PEAVCWnd@@I@Z @ 3664 NONAME
 ?Create@CHotKeyCtrl@@UEAAHKAEBUtagRECT@@PEAVCWnd@@I@Z @ 3665 NONAME
 ?Create@CHtmlEditCtrl@@UEAAHPEB_WKAEBUtagRECT@@PEAVCWnd@@HPEAUCCreateContext@@@Z @ 3666 NONAME
 ?Create@CHtmlEditView@@UEAAHPEB_W0KAEBUtagRECT@@PEAVCWnd@@IPEAUCCreateContext@@@Z @ 3667 NONAME
 ?Create@CHtmlView@@UEAAHPEB_W0KAEBUtagRECT@@PEAVCWnd@@IPEAUCCreateContext@@@Z @ 3668 NONAME
 ?Create@CHwndRenderTarget@@QEAAHPEAUHWND__@@@Z @ 3669 NONAME
 ?Create@CImageList@@QEAAHAEAV1@H0HHH@Z @ 3670 NONAME
 ?Create@CImageList@@QEAAHHHIHH@Z @ 3671 NONAME
 ?Create@CImageList@@QEAAHIHHK@Z @ 3672 NONAME
 ?Create@CImageList@@QEAAHPEAV1@@Z @ 3673 NONAME
 ?Create@CImageList@@QEAAHPEB_WHHK@Z @ 3674 NONAME
 ?Create@CIPAddressCtrl@@UEAAHKAEBUtagRECT@@PEAVCWnd@@I@Z @ 3675 NONAME
 ?Create@CLinkCtrl@@UEAAHKAEBUtagRECT@@PEAVCWnd@@I@Z @ 3676 NONAME
 ?Create@CLinkCtrl@@UEAAHPEB_WKAEBUtagRECT@@PEAVCWnd@@I@Z @ 3677 NONAME
 ?Create@CListBox@@UEAAHKAEBUtagRECT@@PEAVCWnd@@I@Z @ 3678 NONAME
 ?Create@CListCtrl@@QEAAHKAEBUtagRECT@@PEAVCWnd@@I@Z @ 3679 NONAME
 ?Create@CMDIChildWnd@@UEAAHPEB_W0KAEBUtagRECT@@PEAVCMDIFrameWnd@@PEAUCCreateContext@@@Z @ 3680 NONAME
 ?Create@CMetaFileDC@@QEAAHPEB_W@Z @ 3681 NONAME
 ?Create@CMFCAutoHideBar@@UEAAHPEB_WKAEBUtagRECT@@PEAVCWnd@@IKPEAUCCreateContext@@@Z @ 3682 NONAME
 ?Create@CMFCAutoHideButton@@UEAAHPEAVCMFCAutoHideBar@@PEAVCDockablePane@@K@Z @ 3683 NONAME
 ?Create@CMFCCaptionBar@@QEAAHKPEAVCWnd@@IHH@Z @ 3684 NONAME
 ?Create@CMFCColorBar@@UEAAHPEAVCWnd@@KIPEAVCPalette@@HHH@Z @ 3685 NONAME
 ?Create@CMFCControlRenderer@@UEAAHAEBVCMFCControlRendererInfo@@H@Z @ 3686 NONAME
 ?Create@CMFCDesktopAlertWnd@@UEAAHPEAVCWnd@@AEAVCMFCDesktopAlertWndInfo@@PEAUHMENU__@@VCPoint@@@Z @ 3687 NONAME
 ?Create@CMFCDesktopAlertWnd@@UEAAHPEAVCWnd@@IPEAUHMENU__@@VCPoint@@PEAUCRuntimeClass@@@Z @ 3688 NONAME
 ?Create@CMFCDropDownFrame@@UEAAHPEAVCWnd@@HHPEAVCMFCDropDownToolBar@@@Z @ 3689 NONAME
 ?Create@CMFCMenuBar@@UEAAHPEAVCWnd@@KI@Z @ 3690 NONAME
 ?Create@CMFCOutlookBar@@UEAAHPEB_WPEAVCWnd@@AEBUtagRECT@@IKKPEAUCCreateContext@@@Z @ 3691 NONAME
 ?Create@CMFCOutlookBarPane@@UEAAHPEAVCWnd@@KIK@Z @ 3692 NONAME
 ?Create@CMFCOutlookBarTabCtrl@@UEAAHAEBVCRect@@PEAVCWnd@@I@Z @ 3693 NONAME
 ?Create@CMFCPopupMenu@@UEAAHPEAVCWnd@@HHPEAUHMENU__@@HH@Z @ 3694 NONAME
 ?Create@CMFCPreviewCtrlImpl@@UEAAHPEAUHWND__@@PEBUtagRECT@@@Z @ 3695 NONAME
 ?Create@CMFCPreviewCtrlImpl@@UEAAHPEAUHWND__@@PEBUtagRECT@@PEAUCCreateContext@@@Z @ 3696 NONAME
 ?Create@CMFCPropertyGridCtrl@@UEAAHKAEBUtagRECT@@PEAVCWnd@@I@Z @ 3697 NONAME
 ?Create@CMFCPropertyGridToolTipCtrl@@UEAAHPEAVCWnd@@@Z @ 3698 NONAME
 ?Create@CMFCReBar@@QEAAHPEAVCWnd@@KKI@Z @ 3699 NONAME
 ?Create@CMFCRibbonBar@@QEAAHPEAVCWnd@@KI@Z @ 3700 NONAME
 ?Create@CMFCRibbonStatusBar@@QEAAHPEAVCWnd@@KI@Z @ 3701 NONAME
 ?Create@CMFCShadowRenderer@@MEAAHAEBVCMFCControlRendererInfo@@H@Z @ 3702 NONAME
 ?Create@CMFCShadowRenderer@@UEAAHHKHH@Z @ 3703 NONAME
 ?Create@CMFCShadowWnd@@UEAAHXZ @ 3704 NONAME
 ?Create@CMFCStatusBar@@QEAAHPEAVCWnd@@KI@Z @ 3705 NONAME
 ?Create@CMFCTabCtrl@@QEAAHW4Style@1@AEBUtagRECT@@PEAVCWnd@@IW4Location@CMFCBaseTabCtrl@@H@Z @ 3706 NONAME
 ?Create@CMFCToolBar@@UEAAHPEAVCWnd@@KI@Z @ 3707 NONAME
 ?Create@CMFCToolBarsCustomizeDialog@@UEAAHXZ @ 3708 NONAME
 ?Create@CMFCZoomKernel@@QEAAXJJJJW4XFilterType@1@@Z @ 3709 NONAME
 ?Create@CMFCZoomKernel@@QEAAXJJW4XFilterType@1@@Z @ 3710 NONAME
 ?Create@CMiniDockFrameWnd@@UEAAHPEAVCWnd@@K@Z @ 3711 NONAME
 ?Create@CMiniFrameWnd@@UEAAHPEB_W0KAEBUtagRECT@@PEAVCWnd@@I@Z @ 3712 NONAME
 ?Create@CMonthCalCtrl@@UEAAHKAEBUtagPOINT@@PEAVCWnd@@I@Z @ 3713 NONAME
 ?Create@CMonthCalCtrl@@UEAAHKAEBUtagRECT@@PEAVCWnd@@I@Z @ 3714 NONAME
 ?Create@CNetAddressCtrl@@UEAAHKAEBUtagRECT@@PEAVCWnd@@I@Z @ 3715 NONAME
 ?Create@COleResizeBar@@UEAAHPEAVCWnd@@KI@Z @ 3716 NONAME
 ?Create@COleSafeArray@@QEAAXGKPEAK@Z @ 3717 NONAME
 ?Create@COleSafeArray@@QEAAXGKPEAUtagSAFEARRAYBOUND@@@Z @ 3718 NONAME
 ?Create@CPagerCtrl@@UEAAHKAEBUtagRECT@@PEAVCWnd@@I@Z @ 3719 NONAME
 ?Create@CPane@@UEAAHPEB_WKAEBUtagRECT@@PEAVCWnd@@IKPEAUCCreateContext@@@Z @ 3720 NONAME
 ?Create@CPaneContainerManager@@UEAAHPEAVCWnd@@PEAVCPaneDivider@@PEAUCRuntimeClass@@@Z @ 3721 NONAME
 ?Create@CPaneDialog@@QEAAHPEB_WPEAVCWnd@@H0IIKK@Z @ 3722 NONAME
 ?Create@CPaneDialog@@QEAAHPEB_WPEAVCWnd@@HIII@Z @ 3723 NONAME
 ?Create@CPaneDivider@@UEAAHKAEBUtagRECT@@PEAVCWnd@@IPEAUCCreateContext@@@Z @ 3724 NONAME
 ?Create@CPaneFrameWnd@@UEAAHPEB_WKAEBUtagRECT@@PEAVCWnd@@PEAUCCreateContext@@@Z @ 3725 NONAME
 ?Create@CPlex@@SAPEAU1@AEAPEAU1@_K1@Z @ 3726 NONAME
 ?Create@CProgressCtrl@@UEAAHKAEBUtagRECT@@PEAVCWnd@@I@Z @ 3727 NONAME
 ?Create@CPropertySheet@@UEAAHPEAVCWnd@@KK@Z @ 3728 NONAME
 ?Create@CReBar@@UEAAHPEAVCWnd@@KKI@Z @ 3729 NONAME
 ?Create@CReBarCtrl@@QEAAHKAEBUtagRECT@@PEAVCWnd@@I@Z @ 3730 NONAME
 ?Create@CReflectorWnd@@QEAAHAEBVCRect@@PEAUHWND__@@@Z @ 3731 NONAME
 ?Create@CRichEditCtrl@@QEAAHKAEBUtagRECT@@PEAVCWnd@@I@Z @ 3732 NONAME
 ?Create@CScreenWnd@@UEAAHPEAVCMFCColorDialog@@@Z @ 3733 NONAME
 ?Create@CScrollBar@@UEAAHKAEBUtagRECT@@PEAVCWnd@@I@Z @ 3734 NONAME
 ?Create@CSettingsStoreSP@@QEAAAEAVCSettingsStore@@HH@Z @ 3735 NONAME
 ?Create@CSliderCtrl@@UEAAHKAEBUtagRECT@@PEAVCWnd@@I@Z @ 3736 NONAME
 ?Create@CSmartDockingGroupGuide@@MEAAXW4SDMarkerPlace@CSmartDockingStandaloneGuide@@PEAVCSmartDockingGroupGuidesManager@@@Z @ 3737 NONAME
 ?Create@CSmartDockingGroupGuide@@UEAAXW4SDMarkerPlace@CSmartDockingStandaloneGuide@@PEAVCWnd@@@Z @ 3738 NONAME
 ?Create@CSmartDockingGroupGuidesManager@@UEAAXPEAVCWnd@@@Z @ 3739 NONAME
 ?Create@CSmartDockingHighlighterWnd@@QEAAXPEAVCWnd@@@Z @ 3740 NONAME
 ?Create@CSmartDockingManager@@QEAAXPEAVCWnd@@PEAUCRuntimeClass@@1@Z @ 3741 NONAME
 ?Create@CSmartDockingStandaloneGuide@@UEAAXW4SDMarkerPlace@1@PEAVCWnd@@@Z @ 3742 NONAME
 ?Create@CSmartDockingStandaloneGuideWnd@@QEAAHPEAUtagRECT@@PEAUHBITMAP__@@PEAUHRGN__@@PEAVCWnd@@HH@Z @ 3743 NONAME
 ?Create@CSocket@@QEAAHIHPEB_W@Z @ 3744 NONAME
 ?Create@CSpinButtonCtrl@@UEAAHKAEBUtagRECT@@PEAVCWnd@@I@Z @ 3745 NONAME
 ?Create@CSplitButton@@UEAAHPEB_WKAEBUtagRECT@@PEAVCWnd@@I@Z @ 3746 NONAME
 ?Create@CSplitterWnd@@UEAAHPEAVCWnd@@HHUtagSIZE@@PEAUCCreateContext@@KI@Z @ 3747 NONAME
 ?Create@CStatic@@UEAAHPEB_WKAEBUtagRECT@@PEAVCWnd@@I@Z @ 3748 NONAME
 ?Create@CStatusBar@@UEAAHPEAVCWnd@@KI@Z @ 3749 NONAME
 ?Create@CStatusBarCtrl@@QEAAHKAEBUtagRECT@@PEAVCWnd@@I@Z @ 3750 NONAME
 ?Create@CTabCtrl@@UEAAHKAEBUtagRECT@@PEAVCWnd@@I@Z @ 3751 NONAME
 ?Create@CToolBar@@UEAAHPEAVCWnd@@KI@Z @ 3752 NONAME
 ?Create@CToolBarCtrl@@QEAAHKAEBUtagRECT@@PEAVCWnd@@I@Z @ 3753 NONAME
 ?Create@CToolTipCtrl@@UEAAHPEAVCWnd@@K@Z @ 3754 NONAME
 ?Create@CTreeCtrl@@QEAAHKAEBUtagRECT@@PEAVCWnd@@I@Z @ 3755 NONAME
 ?Create@CWnd@@UEAAHPEB_W0KAEBUtagRECT@@PEAV1@IPEAUCCreateContext@@@Z @ 3756 NONAME
 ?CreateAccessibleProxy@CWnd@@UEAAJ_K_JPEA_J@Z @ 3757 NONAME
 ?CreateApplicationButton@CMFCRibbonConstructor@@MEBAPEAVCMFCRibbonApplicationButton@@AEAVCMFCRibbonBar@@@Z @ 3758 NONAME
 ?CreateAutoHideButtonRegion@CMFCVisualManagerVS2005@@IEAAHVCRect@@KAEAPEAUtagPOINT@@@Z @ 3759 NONAME
 ?CreateBindContext@CMonikerFile@@IEAAPEAUIBindCtx@@PEAVCFileException@@@Z @ 3760 NONAME
 ?CreateBindHost@CMonikerFile@@KAPEAUIBindHost@@XZ @ 3761 NONAME
 ?CreateBindStatusCallback@CAsyncMonikerFile@@MEAAPEAUIUnknown@@PEAU2@@Z @ 3762 NONAME
 ?CreateBitmap@CBitmap@@QEAAHHHIIPEBX@Z @ 3763 NONAME
 ?CreateBitmap_32@CDrawingManager@@SAPEAUHBITMAP__@@AEBVCSize@@PEAPEAX@Z @ 3764 NONAME
 ?CreateBitmap_32@CDrawingManager@@SAPEAUHBITMAP__@@PEAU2@K@Z @ 3765 NONAME
 ?CreateBitmapIndirect@CBitmap@@QEAAHPEAUtagBITMAP@@@Z @ 3766 NONAME
 ?CreateBoldFont@CMFCPropertyGridCtrl@@IEAAXXZ @ 3767 NONAME
 ?CreateBrushIndirect@CBrush@@QEAAHPEBUtagLOGBRUSH@@@Z @ 3768 NONAME
 ?CreateCaret@CWnd@@QEAAXPEAVCBitmap@@@Z @ 3769 NONAME
 ?CreateCategory@CMFCRibbonConstructor@@MEBAPEAVCMFCRibbonCategory@@AEAVCMFCRibbonBar@@AEBVXCategory@CMFCRibbonInfo@@@Z @ 3770 NONAME
 ?CreateCategoryContext@CMFCRibbonConstructor@@MEBAPEAVCMFCRibbonCategory@@AEAVCMFCRibbonBar@@AEBVXContext@CMFCRibbonInfo@@AEBVXCategory@5@@Z @ 3771 NONAME
 ?CreateCategoryMain@CMFCRibbonConstructor@@MEBAPEAVCMFCRibbonMainPanel@@AEAVCMFCRibbonBar@@AEBVXCategoryMain@CMFCRibbonInfo@@@Z @ 3772 NONAME
 ?CreateClient@CMDIFrameWnd@@UEAAHPEAUtagCREATESTRUCTW@@PEAVCMenu@@@Z @ 3773 NONAME
 ?CreateClientItem@CRichEditDoc@@UEBAPEAVCRichEditCntrItem@@PEAU_reobject@@@Z @ 3774 NONAME
 ?CreateCloneFrom@COleClientItem@@QEAAHPEBV1@@Z @ 3775 NONAME
 ?CreateCombo@CMFCPropertyGridProperty@@MEAAPEAVCComboBox@@PEAVCWnd@@VCRect@@@Z @ 3776 NONAME
 ?CreateCombo@CMFCToolBarComboBoxButton@@UEAAPEAVCComboBox@@PEAVCWnd@@AEBVCRect@@@Z @ 3777 NONAME
 ?CreateCombo@CMFCToolBarFontComboBox@@MEAAPEAVCComboBox@@PEAVCWnd@@AEBVCRect@@@Z @ 3778 NONAME
 ?CreateCombo@CMFCToolBarFontSizeComboBox@@MEAAPEAVCComboBox@@PEAVCWnd@@AEBVCRect@@@Z @ 3779 NONAME
 ?CreateCommon@CSplitterWnd@@IEAAHPEAVCWnd@@UtagSIZE@@KI@Z @ 3780 NONAME
 ?CreateCompatibleBitmap@CBitmap@@QEAAHPEAVCDC@@HH@Z @ 3781 NONAME
 ?CreateCompatibleDC@CDC@@QEAAHPEAV1@@Z @ 3782 NONAME
 ?CreateCompatibleRenderTarget@CRenderTarget@@QEAAHAEAVCBitmapRenderTarget@@VCD2DSizeF@@VCD2DSizeU@@PEAUD2D1_PIXEL_FORMAT@@W4D2D1_COMPATIBLE_RENDER_TARGET_OPTIONS@@@Z @ 3783 NONAME
 ?CreateConnectionArray@CConnectionPoint@@QEAAXXZ @ 3784 NONAME
 ?CreateContainer@COccManager@@UEAAPEAVCOleControlContainer@@PEAVCWnd@@@Z @ 3785 NONAME
 ?CreateControl@CMFCColorBar@@UEAAHPEAVCWnd@@AEBVCRect@@IHPEAVCPalette@@@Z @ 3786 NONAME
 ?CreateControl@COleControlContainer@@QEAAHPEAVCWnd@@AEBU_GUID@@PEB_WKAEBUtagRECT@@IPEAVCFile@@HPEA_WPEAPEAVCOleControlSite@@@Z @ 3787 NONAME
 ?CreateControl@COleControlContainer@@QEAAHPEAVCWnd@@AEBU_GUID@@PEB_WKPEBUtagPOINT@@PEBUtagSIZE@@IPEAVCFile@@HPEA_WPEAPEAVCOleControlSite@@@Z @ 3788 NONAME
 ?CreateControl@COleControlContainer@@QEAAHPEAVCWnd@@AEBVCControlCreationInfo@@KPEBUtagPOINT@@PEBUtagSIZE@@I@Z @ 3789 NONAME
 ?CreateControl@COleControlSite@@QEAAJPEAVCWnd@@AEBVCControlCreationInfo@@KPEBUtagPOINT@@PEBUtagSIZE@@I@Z @ 3790 NONAME
 ?CreateControl@COleControlSite@@UEAAJPEAVCWnd@@AEBU_GUID@@PEB_WKAEBUtagRECT@@IPEAVCFile@@HPEA_W@Z @ 3791 NONAME
 ?CreateControl@COleControlSite@@UEAAJPEAVCWnd@@AEBU_GUID@@PEB_WKPEBUtagPOINT@@PEBUtagSIZE@@IPEAVCFile@@HPEA_W@Z @ 3792 NONAME
 ?CreateControl@CWnd@@QEAAHAEBU_GUID@@PEB_WKAEBUtagRECT@@PEAV1@IPEAVCFile@@HPEA_W@Z @ 3793 NONAME
 ?CreateControl@CWnd@@QEAAHAEBU_GUID@@PEB_WKPEBUtagPOINT@@PEBUtagSIZE@@PEAV1@IPEAVCFile@@HPEA_W@Z @ 3794 NONAME
 ?CreateControl@CWnd@@QEAAHAEBVCControlCreationInfo@@KPEBUtagPOINT@@PEBUtagSIZE@@PEAV1@I@Z @ 3795 NONAME
 ?CreateControl@CWnd@@QEAAHPEB_W0KAEBUtagRECT@@PEAV1@IPEAVCFile@@HPEA_W@Z @ 3796 NONAME
 ?CreateControlCommon@COleControlContainer@@QEAAHPEAVCWnd@@AEBU_GUID@@AEBVCControlCreationInfo@@PEB_WKPEBUtagPOINT@@PEBUtagSIZE@@IPEAVCFile@@HPEA_WPEAPEAVCOleControlSite@@@Z @ 3797 NONAME
 ?CreateControlCommon@COleControlSite@@MEAAJPEAVCWnd@@AEBU_GUID@@AEBVCControlCreationInfo@@PEB_WKPEBUtagPOINT@@PEBUtagSIZE@@IPEAVCFile@@HPEA_W@Z @ 3798 NONAME
 ?CreateControlContainer@CWnd@@MEAAHPEAPEAVCOleControlContainer@@@Z @ 3799 NONAME
 ?CreateControlSite@CDHtmlDialog@@UEAAHPEAVCOleControlContainer@@PEAPEAVCOleControlSite@@IAEBU_GUID@@@Z @ 3800 NONAME
 ?CreateControlSite@CHtmlView@@UEAAHPEAVCOleControlContainer@@PEAPEAVCOleControlSite@@IAEBU_GUID@@@Z @ 3801 NONAME
 ?CreateControlSite@CWnd@@MEAAHPEAVCOleControlContainer@@PEAPEAVCOleControlSite@@IAEBU_GUID@@@Z @ 3802 NONAME
 ?CreateControlWindow@COleControl@@MEAAHPEAUHWND__@@AEBVCRect@@PEBUtagRECT@@@Z @ 3803 NONAME
 ?CreateCopy@CMenuImages@@KAXAEAVCMFCToolBarImages@@K@Z @ 3804 NONAME
 ?CreateCustomPage@CMFCOutlookBar@@QEAAPEAVCMFCOutlookBarPane@@PEB_WHKH@Z @ 3805 NONAME
 ?CreateDateTimeCtrl@CMFCToolBarDateTimeCtrl@@MEAAPEAVCMFCToolBarDateTimeCtrlImpl@@PEAVCWnd@@AEBVCRect@@@Z @ 3806 NONAME
 ?CreateDCW@CDC@@QEAAHPEB_W00PEBX@Z @ 3807 NONAME
 ?CreateDefaultMiniframe@CMFCTasksPane@@UEAAPEAVCPaneFrameWnd@@VCRect@@@Z @ 3808 NONAME
 ?CreateDefaultMiniframe@CPane@@UEAAPEAVCPaneFrameWnd@@VCRect@@@Z @ 3809 NONAME
 ?CreateDefaultPaneDivider@CDockablePane@@SAPEAVCPaneDivider@@KPEAVCWnd@@PEAUCRuntimeClass@@@Z @ 3810 NONAME
 ?CreateDIBPatternBrush@CBrush@@QEAAHPEAXI@Z @ 3811 NONAME
 ?CreateDIBPatternBrush@CBrush@@QEAAHPEBXI@Z @ 3812 NONAME
 ?CreateDirectory@CFtpConnection@@QEAAHPEB_W@Z @ 3813 NONAME
 ?CreateDirectoryW@CFtpConnection@@QEAAHPEB_W@Z @ 3814 NONAME
 ?CreateDiscardableBitmap@CBitmap@@QEAAHPEAVCDC@@HH@Z @ 3815 NONAME
 ?CreateDispatch@COleDispatchDriver@@QEAAHAEBU_GUID@@PEAVCOleException@@@Z @ 3816 NONAME
 ?CreateDispatch@COleDispatchDriver@@QEAAHPEB_WPEAVCOleException@@@Z @ 3817 NONAME
 ?CreateDitherBitmap@AFX_GLOBAL_DATA@@IEAAPEAUHBITMAP__@@PEAUHDC__@@@Z @ 3818 NONAME
 ?CreateDlg@CWnd@@IEAAHPEB_WPEAV1@@Z @ 3819 NONAME
 ?CreateDlgControl@CMFCControlContainer@@IEAAPEAVCWnd@@PEB_W@Z @ 3820 NONAME
 ?CreateDlgControl@COccManager@@IEAAHPEAVCWnd@@PEAUHWND__@@HPEAUDLGITEMTEMPLATE@@GPEAEKPEAPEAU3@@Z @ 3821 NONAME
 ?CreateDlgControls@COccManager@@UEAAHPEAVCWnd@@PEAXPEAU_AFX_OCC_DIALOG_INFO@@@Z @ 3822 NONAME
 ?CreateDlgControls@COccManager@@UEAAHPEAVCWnd@@PEB_WPEAU_AFX_OCC_DIALOG_INFO@@@Z @ 3823 NONAME
 ?CreateDlgIndirect@CWnd@@IEAAHPEBUDLGTEMPLATE@@PEAV1@PEAUHINSTANCE__@@@Z @ 3824 NONAME
 ?CreateDocumentInfo@CDataRecoveryHandler@@UEAAHPEAVCDocument@@@Z @ 3825 NONAME
 ?CreateDocumentWindow@CMDIFrameWndEx@@UEAAPEAVCMDIChildWndEx@@PEB_WPEAVCObject@@@Z @ 3826 NONAME
 ?CreateDragImage@CHeaderCtrl@@QEAAPEAVCImageList@@H@Z @ 3827 NONAME
 ?CreateDragImage@CListCtrl@@QEAAPEAVCImageList@@HPEAUtagPOINT@@@Z @ 3828 NONAME
 ?CreateDragImage@CTreeCtrl@@QEAAPEAVCImageList@@PEAU_TREEITEM@@@Z @ 3829 NONAME
 ?CreateDroppedButton@CMFCOutlookBarPane@@MEAAPEAVCMFCToolBarButton@@PEAVCOleDataObject@@@Z @ 3830 NONAME
 ?CreateDroppedButton@CMFCPopupMenuBar@@MEAAPEAVCMFCToolBarButton@@PEAVCOleDataObject@@@Z @ 3831 NONAME
 ?CreateDroppedButton@CMFCToolBar@@MEAAPEAVCMFCToolBarButton@@PEAVCOleDataObject@@@Z @ 3832 NONAME
 ?CreateEdit@CMFCRibbonEdit@@UEAAPEAVCMFCRibbonRichEditCtrl@@PEAVCWnd@@K@Z @ 3833 NONAME
 ?CreateEdit@CMFCToolBarComboBoxButton@@UEAAPEAVCMFCToolBarComboBoxEdit@@PEAVCWnd@@AEBVCRect@@K@Z @ 3834 NONAME
 ?CreateEdit@CMFCToolBarEditBoxButton@@UEAAPEAVCEdit@@PEAVCWnd@@AEBVCRect@@@Z @ 3835 NONAME
 ?CreateEdit@CMFCToolBarSpinEditBoxButton@@MEAAPEAVCEdit@@PEAVCWnd@@AEBVCRect@@@Z @ 3836 NONAME
 ?CreateElement@CMFCRibbonConstructor@@MEBAPEAVCMFCRibbonBaseElement@@AEBVXElement@CMFCRibbonInfo@@@Z @ 3837 NONAME
 ?CreateEllipticRgn@CRgn@@QEAAHHHHH@Z @ 3838 NONAME
 ?CreateEllipticRgnIndirect@CRgn@@QEAAHPEBUtagRECT@@@Z @ 3839 NONAME
 ?CreateEmpty@CPictureHolder@@QEAAHXZ @ 3840 NONAME
 ?CreateEnhanced@CMetaFileDC@@QEAAHPEAVCDC@@PEB_WPEBUtagRECT@@1@Z @ 3841 NONAME
 ?CreateEx@CAnimateCtrl@@UEAAHKKAEBUtagRECT@@PEAVCWnd@@I@Z @ 3842 NONAME
 ?CreateEx@CBasePane@@UEAAHKPEB_W0KAEBUtagRECT@@PEAVCWnd@@IKPEAUCCreateContext@@@Z @ 3843 NONAME
 ?CreateEx@CComboBoxEx@@UEAAHKKAEBUtagRECT@@PEAVCWnd@@I@Z @ 3844 NONAME
 ?CreateEx@CDockablePane@@UEAAHKPEB_WPEAVCWnd@@AEBUtagRECT@@HIKKKPEAUCCreateContext@@@Z @ 3845 NONAME
 ?CreateEx@CDockSite@@UEAAHKKAEBUtagRECT@@PEAVCWnd@@KPEAUCCreateContext@@@Z @ 3846 NONAME
 ?CreateEx@CHeaderCtrl@@UEAAHKKAEBUtagRECT@@PEAVCWnd@@I@Z @ 3847 NONAME
 ?CreateEx@CHotKeyCtrl@@UEAAHKKAEBUtagRECT@@PEAVCWnd@@I@Z @ 3848 NONAME
 ?CreateEx@CIPAddressCtrl@@UEAAHKKAEBUtagRECT@@PEAVCWnd@@I@Z @ 3849 NONAME
 ?CreateEx@CLinkCtrl@@UEAAHKKAEBUtagRECT@@PEAVCWnd@@I@Z @ 3850 NONAME
 ?CreateEx@CLinkCtrl@@UEAAHPEB_WKKAEBUtagRECT@@PEAVCWnd@@I@Z @ 3851 NONAME
 ?CreateEx@CListCtrl@@QEAAHKKAEBUtagRECT@@PEAVCWnd@@I@Z @ 3852 NONAME
 ?CreateEx@CMFCMenuBar@@UEAAHPEAVCWnd@@KKVCRect@@I@Z @ 3853 NONAME
 ?CreateEx@CMFCRibbonBar@@QEAAHPEAVCWnd@@KKI@Z @ 3854 NONAME
 ?CreateEx@CMFCRibbonStatusBar@@QEAAHPEAVCWnd@@KKI@Z @ 3855 NONAME
 ?CreateEx@CMFCStatusBar@@QEAAHPEAVCWnd@@KKI@Z @ 3856 NONAME
 ?CreateEx@CMFCToolBar@@UEAAHPEAVCWnd@@KKVCRect@@I@Z @ 3857 NONAME
 ?CreateEx@CMiniFrameWnd@@UEAAHKPEB_W0KAEBUtagRECT@@PEAVCWnd@@I@Z @ 3858 NONAME
 ?CreateEx@CNetAddressCtrl@@UEAAHKKAEBUtagRECT@@PEAVCWnd@@I@Z @ 3859 NONAME
 ?CreateEx@CPagerCtrl@@UEAAHKKAEBUtagRECT@@PEAVCWnd@@I@Z @ 3860 NONAME
 ?CreateEx@CPane@@UEAAHKPEB_WKAEBUtagRECT@@PEAVCWnd@@IKPEAUCCreateContext@@@Z @ 3861 NONAME
 ?CreateEx@CPaneDivider@@UEAAHKKAEBUtagRECT@@PEAVCWnd@@IPEAUCCreateContext@@@Z @ 3862 NONAME
 ?CreateEx@CPaneFrameWnd@@UEAAHKPEB_WKAEBUtagRECT@@PEAVCWnd@@PEAUCCreateContext@@@Z @ 3863 NONAME
 ?CreateEx@CProgressCtrl@@UEAAHKKAEBUtagRECT@@PEAVCWnd@@I@Z @ 3864 NONAME
 ?CreateEx@CReBarCtrl@@QEAAHKKAEBUtagRECT@@PEAVCWnd@@I@Z @ 3865 NONAME
 ?CreateEx@CRichEditCtrl@@QEAAHKKAEBUtagRECT@@PEAVCWnd@@I@Z @ 3866 NONAME
 ?CreateEx@CSliderCtrl@@UEAAHKKAEBUtagRECT@@PEAVCWnd@@I@Z @ 3867 NONAME
 ?CreateEx@CSpinButtonCtrl@@UEAAHKKAEBUtagRECT@@PEAVCWnd@@I@Z @ 3868 NONAME
 ?CreateEx@CStatusBar@@UEAAHPEAVCWnd@@KKI@Z @ 3869 NONAME
 ?CreateEx@CStatusBarCtrl@@QEAAHKKAEBUtagRECT@@PEAVCWnd@@I@Z @ 3870 NONAME
 ?CreateEx@CTabCtrl@@UEAAHKKAEBUtagRECT@@PEAVCWnd@@I@Z @ 3871 NONAME
 ?CreateEx@CToolBar@@UEAAHPEAVCWnd@@KKVCRect@@I@Z @ 3872 NONAME
 ?CreateEx@CToolBarCtrl@@QEAAHKKAEBUtagRECT@@PEAVCWnd@@I@Z @ 3873 NONAME
 ?CreateEx@CToolTipCtrl@@UEAAHPEAVCWnd@@KK@Z @ 3874 NONAME
 ?CreateEx@CTreeCtrl@@QEAAHKKAEBUtagRECT@@PEAVCWnd@@I@Z @ 3875 NONAME
 ?CreateEx@CWnd@@UEAAHKPEB_W0KAEBUtagRECT@@PEAV1@IPEAX@Z @ 3876 NONAME
 ?CreateEx@CWnd@@UEAAHKPEB_W0KHHHHPEAUHWND__@@PEAUHMENU__@@PEAX@Z @ 3877 NONAME
 ?CreateFloatingFrame@CFrameWnd@@QEAAPEAVCMiniDockFrameWnd@@K@Z @ 3878 NONAME
 ?CreateFontIndirectW@CFont@@QEAAHPEBUtagLOGFONTW@@@Z @ 3879 NONAME
 ?CreateFonts@CMFCTasksPane@@IEAAXXZ @ 3880 NONAME
 ?CreateFontW@CFont@@QEAAHHHHHHEEEEEEEEPEB_W@Z @ 3881 NONAME
 ?CreateFrameWindow@COleControl@@MEAAPEAVCControlFrameWnd@@XZ @ 3882 NONAME
 ?CreateFromBitmap@CPictureHolder@@QEAAHI@Z @ 3883 NONAME
 ?CreateFromBitmap@CPictureHolder@@QEAAHPEAUHBITMAP__@@PEAUHPALETTE__@@H@Z @ 3884 NONAME
 ?CreateFromBitmap@CPictureHolder@@QEAAHPEAVCBitmap@@PEAVCPalette@@H@Z @ 3885 NONAME
 ?CreateFromClipboard@COleClientItem@@QEAAHW4tagOLERENDER@@GPEAUtagFORMATETC@@@Z @ 3886 NONAME
 ?CreateFromData@COleClientItem@@QEAAHPEAVCOleDataObject@@W4tagOLERENDER@@GPEAUtagFORMATETC@@@Z @ 3887 NONAME
 ?CreateFromData@CRgn@@QEAAHPEBUtagXFORM@@HPEBU_RGNDATA@@@Z @ 3888 NONAME
 ?CreateFromFile@COleClientItem@@QEAAHPEB_WAEBU_GUID@@W4tagOLERENDER@@GPEAUtagFORMATETC@@@Z @ 3889 NONAME
 ?CreateFromIcon@CPictureHolder@@QEAAHI@Z @ 3890 NONAME
 ?CreateFromIcon@CPictureHolder@@QEAAHPEAUHICON__@@H@Z @ 3891 NONAME
 ?CreateFromImageList@CMFCToolBarImages@@QEAAHAEBVCImageList@@@Z @ 3892 NONAME
 ?CreateFromMenu@CMFCMenuBar@@UEAAXPEAUHMENU__@@HH@Z @ 3893 NONAME
 ?CreateFromMenu@CMFCToolBarMenuButton@@UEAAXPEAUHMENU__@@@Z @ 3894 NONAME
 ?CreateFromMenu@CMFCToolBarSystemMenuButton@@UEAAXPEAUHMENU__@@@Z @ 3895 NONAME
 ?CreateFromMetafile@CPictureHolder@@QEAAHPEAUHMETAFILE__@@HHH@Z @ 3896 NONAME
 ?CreateFromOleData@CMFCToolBarButton@@SAPEAV1@PEAVCOleDataObject@@@Z @ 3897 NONAME
 ?CreateFromParams@CMFCDesktopAlertDialog@@QEAAHAEAVCMFCDesktopAlertWndInfo@@PEAVCMFCDesktopAlertWnd@@@Z @ 3898 NONAME
 ?CreateFromPath@CRgn@@QEAAHPEAVCDC@@@Z @ 3899 NONAME
 ?CreateFromTag@XBase@CMFCRibbonInfo@@SAPEAV12@AEAVXRibbonInfoParser@2@@Z @ 3900 NONAME
 ?CreateFromType@XBase@CMFCRibbonInfo@@SAPEAV12@W4XElementType@2@@Z @ 3901 NONAME
 ?CreateFromType@XElement@CMFCRibbonInfo@@SAPEAV12@W4XElementType@2@@Z @ 3902 NONAME
 ?CreateGrayCaret@CWnd@@QEAAXHH@Z @ 3903 NONAME
 ?CreateGripperBrush@CMFCVisualManagerOfficeXP@@MEAAXXZ @ 3904 NONAME
 ?CreateHalftonePalette@CPalette@@QEAAHPEAVCDC@@@Z @ 3905 NONAME
 ?CreateHatchBrush@CBrush@@QEAAHHK@Z @ 3906 NONAME
 ?CreateHexagon@CMFCColorPickerCtrl@@IEAAXXZ @ 3907 NONAME
 ?CreateHexGreyScaleBar@CMFCColorPickerCtrl@@IEAAXXZ @ 3908 NONAME
 ?CreateIcons@CMFCRibbonGallery@@IEAAXXZ @ 3909 NONAME
 ?CreateICW@CDC@@QEAAHPEB_W00PEBX@Z @ 3910 NONAME
 ?CreateIndirect@CDialog@@IEAAHPEAXPEAVCWnd@@PEAUHINSTANCE__@@@Z @ 3911 NONAME
 ?CreateIndirect@CDialog@@IEAAHPEBUDLGTEMPLATE@@PEAVCWnd@@PEAXPEAUHINSTANCE__@@@Z @ 3912 NONAME
 ?CreateIndirect@CDialog@@UEAAHPEAXPEAVCWnd@@@Z @ 3913 NONAME
 ?CreateIndirect@CDialog@@UEAAHPEBUDLGTEMPLATE@@PEAVCWnd@@PEAX@Z @ 3914 NONAME
 ?CreateInPlaceEdit@CMFCPropertyGridProperty@@UEAAPEAVCWnd@@VCRect@@AEAH@Z @ 3915 NONAME
 ?CreateInPlaceFrame@COleServerDoc@@MEAAPEAVCOleIPFrameWnd@@PEAVCWnd@@@Z @ 3916 NONAME
 ?CreateInstance@AFX_COM@@QEAAJAEBU_GUID@@PEAUIUnknown@@0PEAPEAX@Z @ 3917 NONAME
 ?CreateInstance@XClassFactory@COleObjectFactory@@UEAAJPEAUIUnknown@@AEBU_GUID@@PEAPEAX@Z @ 3918 NONAME
 ?CreateInstanceLic@XClassFactory@COleObjectFactory@@UEAAJPEAUIUnknown@@0AEBU_GUID@@PEA_WPEAPEAX@Z @ 3919 NONAME
 ?CreateItem@COleInsertDialog@@QEAAHPEAVCOleClientItem@@@Z @ 3920 NONAME
 ?CreateItem@COlePasteSpecialDialog@@QEAAHPEAVCOleClientItem@@@Z @ 3921 NONAME
 ?CreateItem@CShellManager@@QEAAPEFAU_ITEMIDLIST@@I@Z @ 3922 NONAME
 ?CreateKey@CSettingsStore@@UEAAHPEB_W@Z @ 3923 NONAME
 ?CreateKeyframe@CAnimationController@@QEAAPEAVCKeyFrame@@IPEAVCBaseKeyFrame@@N@Z @ 3924 NONAME
 ?CreateKeyframe@CAnimationController@@QEAAPEAVCKeyFrame@@IPEAVCBaseTransition@@@Z @ 3925 NONAME
 ?CreateLinkFromClipboard@COleClientItem@@QEAAHW4tagOLERENDER@@GPEAUtagFORMATETC@@@Z @ 3926 NONAME
 ?CreateLinkFromData@COleClientItem@@QEAAHPEAVCOleDataObject@@W4tagOLERENDER@@GPEAUtagFORMATETC@@@Z @ 3927 NONAME
 ?CreateLinkFromFile@COleClientItem@@QEAAHPEB_WW4tagOLERENDER@@GPEAUtagFORMATETC@@@Z @ 3928 NONAME
 ?CreateLocator@CGopherConnection@@QEAA?AVCGopherLocator@@PEB_W0K@Z @ 3929 NONAME
 ?CreateLocator@CGopherConnection@@SA?AVCGopherLocator@@PEB_W@Z @ 3930 NONAME
 ?CreateLocator@CGopherConnection@@SA?AVCGopherLocator@@PEB_W00KG@Z @ 3931 NONAME
 ?CreateMask@CMFCToolBarImages@@IEAAXHHH@Z @ 3932 NONAME
 ?CreateMemoryStream@COleStreamFile@@QEAAHPEAVCFileException@@@Z @ 3933 NONAME
 ?CreateMenu@CMenu@@QEAAHXZ @ 3934 NONAME
 ?CreateMenu@CMFCTasksPane@@QEBAPEAUHMENU__@@XZ @ 3935 NONAME
 ?CreateMenu@CMFCToolBarMenuButton@@UEBAPEAUHMENU__@@XZ @ 3936 NONAME
 ?CreateMenu@CMFCToolBarSystemMenuButton@@UEBAPEAUHMENU__@@XZ @ 3937 NONAME
 ?CreateNavigationToolbar@CMFCTasksPane@@IEAAHXZ @ 3938 NONAME
 ?CreateNewChild@CMDIFrameWnd@@QEAAPEAVCMDIChildWnd@@PEAUCRuntimeClass@@IPEAUHMENU__@@PEAUHACCEL__@@@Z @ 3939 NONAME
 ?CreateNewDocument@CDocTemplate@@UEAAPEAVCDocument@@XZ @ 3940 NONAME
 ?CreateNewFrame@CDocTemplate@@UEAAPEAVCFrameWnd@@PEAVCDocument@@PEAV2@@Z @ 3941 NONAME
 ?CreateNewItem@COleClientItem@@QEAAHAEBU_GUID@@W4tagOLERENDER@@GPEAUtagFORMATETC@@@Z @ 3942 NONAME
 ?CreateNewItem@CVSListBoxBase@@MEAAXXZ @ 3943 NONAME
 ?CreateNewTabGroup@CMDIClientAreaWnd@@AEAAPEAVCMFCTabCtrl@@PEAV2@VCRect@@H@Z @ 3944 NONAME
 ?CreateNewTool@CMFCToolBarsToolsPropertyPage@@IEAAPEAVCUserTool@@XZ @ 3945 NONAME
 ?CreateNewTool@CUserToolsManager@@QEAAPEAVCUserTool@@XZ @ 3946 NONAME
 ?CreateNewToolBar@CFrameImpl@@IEAAPEBVCMFCToolBar@@PEB_W@Z @ 3947 NONAME
 ?CreateNewWindow@CMDIFrameWndEx@@UEAAPEAVCMDIChildWndEx@@PEB_WPEAVCObject@@@Z @ 3948 NONAME
 ?CreateObject@CAnimationController@@SAPEAVCObject@@XZ @ 3949 NONAME
 ?CreateObject@CAutoHideDockSite@@SAPEAVCObject@@XZ @ 3950 NONAME
 ?CreateObject@CByteArray@@SAPEAVCObject@@XZ @ 3951 NONAME
 ?CreateObject@CDC@@SAPEAVCObject@@XZ @ 3952 NONAME
 ?CreateObject@CDocItem@@SAPEAVCObject@@XZ @ 3953 NONAME
 ?CreateObject@CDockablePane@@SAPEAVCObject@@XZ @ 3954 NONAME
 ?CreateObject@CDockablePaneAdapter@@SAPEAVCObject@@XZ @ 3955 NONAME
 ?CreateObject@CDockSite@@SAPEAVCObject@@XZ @ 3956 NONAME
 ?CreateObject@CDockState@@SAPEAVCObject@@XZ @ 3957 NONAME
 ?CreateObject@CDWordArray@@SAPEAVCObject@@XZ @ 3958 NONAME
 ?CreateObject@CEditView@@SAPEAVCObject@@XZ @ 3959 NONAME
 ?CreateObject@CFrameWnd@@SAPEAVCObject@@XZ @ 3960 NONAME
 ?CreateObject@CFrameWndEx@@SAPEAVCObject@@XZ @ 3961 NONAME
 ?CreateObject@CGdiObject@@SAPEAVCObject@@XZ @ 3962 NONAME
 ?CreateObject@CHelpComboBoxButton@@SAPEAVCObject@@XZ @ 3963 NONAME
 ?CreateObject@CHtmlEditView@@SAPEAVCObject@@XZ @ 3964 NONAME
 ?CreateObject@CHtmlView@@SAPEAVCObject@@XZ @ 3965 NONAME
 ?CreateObject@CImageList@@SAPEAVCObject@@XZ @ 3966 NONAME
 ?CreateObject@CListView@@SAPEAVCObject@@XZ @ 3967 NONAME
 ?CreateObject@CMapStringToOb@@SAPEAVCObject@@XZ @ 3968 NONAME
 ?CreateObject@CMapStringToString@@SAPEAVCObject@@XZ @ 3969 NONAME
 ?CreateObject@CMapWordToOb@@SAPEAVCObject@@XZ @ 3970 NONAME
 ?CreateObject@CMDIChildWnd@@SAPEAVCObject@@XZ @ 3971 NONAME
 ?CreateObject@CMDIChildWndEx@@SAPEAVCObject@@XZ @ 3972 NONAME
 ?CreateObject@CMDIFrameWnd@@SAPEAVCObject@@XZ @ 3973 NONAME
 ?CreateObject@CMDIFrameWndEx@@SAPEAVCObject@@XZ @ 3974 NONAME
 ?CreateObject@CMDITabProxyWnd@@SAPEAVCObject@@XZ @ 3975 NONAME
 ?CreateObject@CMenu@@SAPEAVCObject@@XZ @ 3976 NONAME
 ?CreateObject@CMFCAutoHideBar@@SAPEAVCObject@@XZ @ 3977 NONAME
 ?CreateObject@CMFCAutoHideButton@@SAPEAVCObject@@XZ @ 3978 NONAME
 ?CreateObject@CMFCBaseToolBar@@SAPEAVCObject@@XZ @ 3979 NONAME
 ?CreateObject@CMFCButton@@SAPEAVCObject@@XZ @ 3980 NONAME
 ?CreateObject@CMFCCaptionBar@@SAPEAVCObject@@XZ @ 3981 NONAME
 ?CreateObject@CMFCColorBar@@SAPEAVCObject@@XZ @ 3982 NONAME
 ?CreateObject@CMFCColorMenuButton@@SAPEAVCObject@@XZ @ 3983 NONAME
 ?CreateObject@CMFCControlRenderer@@SAPEAVCObject@@XZ @ 3984 NONAME
 ?CreateObject@CMFCCustomColorsPropertyPage@@SAPEAVCObject@@XZ @ 3985 NONAME
 ?CreateObject@CMFCCustomizeButton@@SAPEAVCObject@@XZ @ 3986 NONAME
 ?CreateObject@CMFCCustomizeMenuButton@@SAPEAVCObject@@XZ @ 3987 NONAME
 ?CreateObject@CMFCDesktopAlertDialog@@SAPEAVCObject@@XZ @ 3988 NONAME
 ?CreateObject@CMFCDropDownFrame@@SAPEAVCObject@@XZ @ 3989 NONAME
 ?CreateObject@CMFCDropDownToolBar@@SAPEAVCObject@@XZ @ 3990 NONAME
 ?CreateObject@CMFCDropDownToolbarButton@@SAPEAVCObject@@XZ @ 3991 NONAME
 ?CreateObject@CMFCMenuBar@@SAPEAVCObject@@XZ @ 3992 NONAME
 ?CreateObject@CMFCMousePropertyPage@@SAPEAVCObject@@XZ @ 3993 NONAME
 ?CreateObject@CMFCOutlookBar@@SAPEAVCObject@@XZ @ 3994 NONAME
 ?CreateObject@CMFCOutlookBarPane@@SAPEAVCObject@@XZ @ 3995 NONAME
 ?CreateObject@CMFCOutlookBarPaneAdapter@@SAPEAVCObject@@XZ @ 3996 NONAME
 ?CreateObject@CMFCOutlookBarPaneButton@@SAPEAVCObject@@XZ @ 3997 NONAME
 ?CreateObject@CMFCOutlookBarTabCtrl@@SAPEAVCObject@@XZ @ 3998 NONAME
 ?CreateObject@CMFCPopupMenu@@SAPEAVCObject@@XZ @ 3999 NONAME
 ?CreateObject@CMFCPopupMenuBar@@SAPEAVCObject@@XZ @ 4000 NONAME
 ?CreateObject@CMFCPropertyPage@@SAPEAVCObject@@XZ @ 4001 NONAME
 ?CreateObject@CMFCRibbonApplicationButton@@SAPEAVCObject@@XZ @ 4002 NONAME
 ?CreateObject@CMFCRibbonButton@@SAPEAVCObject@@XZ @ 4003 NONAME
 ?CreateObject@CMFCRibbonButtonsGroup@@SAPEAVCObject@@XZ @ 4004 NONAME
 ?CreateObject@CMFCRibbonCaptionButton@@SAPEAVCObject@@XZ @ 4005 NONAME
 ?CreateObject@CMFCRibbonCategory@@SAPEAVCObject@@XZ @ 4006 NONAME
 ?CreateObject@CMFCRibbonCheckBox@@SAPEAVCObject@@XZ @ 4007 NONAME
 ?CreateObject@CMFCRibbonColorButton@@SAPEAVCObject@@XZ @ 4008 NONAME
 ?CreateObject@CMFCRibbonColorMenuButton@@SAPEAVCObject@@XZ @ 4009 NONAME
 ?CreateObject@CMFCRibbonComboBox@@SAPEAVCObject@@XZ @ 4010 NONAME
 ?CreateObject@CMFCRibbonContextCaption@@SAPEAVCObject@@XZ @ 4011 NONAME
 ?CreateObject@CMFCRibbonCustomizePropertyPage@@SAPEAVCObject@@XZ @ 4012 NONAME
 ?CreateObject@CMFCRibbonDefaultPanelButton@@SAPEAVCObject@@XZ @ 4013 NONAME
 ?CreateObject@CMFCRibbonEdit@@SAPEAVCObject@@XZ @ 4014 NONAME
 ?CreateObject@CMFCRibbonFontComboBox@@SAPEAVCObject@@XZ @ 4015 NONAME
 ?CreateObject@CMFCRibbonGallery@@SAPEAVCObject@@XZ @ 4016 NONAME
 ?CreateObject@CMFCRibbonGalleryIcon@@SAPEAVCObject@@XZ @ 4017 NONAME
 ?CreateObject@CMFCRibbonGalleryMenuButton@@SAPEAVCObject@@XZ @ 4018 NONAME
 ?CreateObject@CMFCRibbonLabel@@SAPEAVCObject@@XZ @ 4019 NONAME
 ?CreateObject@CMFCRibbonLaunchButton@@SAPEAVCObject@@XZ @ 4020 NONAME
 ?CreateObject@CMFCRibbonLinkCtrl@@SAPEAVCObject@@XZ @ 4021 NONAME
 ?CreateObject@CMFCRibbonMainPanel@@SAPEAVCObject@@XZ @ 4022 NONAME
 ?CreateObject@CMFCRibbonMainPanelButton@@SAPEAVCObject@@XZ @ 4023 NONAME
 ?CreateObject@CMFCRibbonMiniToolBar@@SAPEAVCObject@@XZ @ 4024 NONAME
 ?CreateObject@CMFCRibbonPanel@@SAPEAVCObject@@XZ @ 4025 NONAME
 ?CreateObject@CMFCRibbonProgressBar@@SAPEAVCObject@@XZ @ 4026 NONAME
 ?CreateObject@CMFCRibbonQuickAccessCustomizeButton@@SAPEAVCObject@@XZ @ 4027 NONAME
 ?CreateObject@CMFCRibbonQuickAccessToolBar@@SAPEAVCObject@@XZ @ 4028 NONAME
 ?CreateObject@CMFCRibbonRecentFilesList@@SAPEAVCObject@@XZ @ 4029 NONAME
 ?CreateObject@CMFCRibbonSeparator@@SAPEAVCObject@@XZ @ 4030 NONAME
 ?CreateObject@CMFCRibbonSlider@@SAPEAVCObject@@XZ @ 4031 NONAME
 ?CreateObject@CMFCRibbonStatusBarCustomizeButton@@SAPEAVCObject@@XZ @ 4032 NONAME
 ?CreateObject@CMFCRibbonStatusBarPane@@SAPEAVCObject@@XZ @ 4033 NONAME
 ?CreateObject@CMFCRibbonTabsGroup@@SAPEAVCObject@@XZ @ 4034 NONAME
 ?CreateObject@CMFCRibbonUndoButton@@SAPEAVCObject@@XZ @ 4035 NONAME
 ?CreateObject@CMFCShadowRenderer@@SAPEAVCObject@@XZ @ 4036 NONAME
 ?CreateObject@CMFCShowAllButton@@SAPEAVCObject@@XZ @ 4037 NONAME
 ?CreateObject@CMFCStandardColorsPropertyPage@@SAPEAVCObject@@XZ @ 4038 NONAME
 ?CreateObject@CMFCTabCtrl@@SAPEAVCObject@@XZ @ 4039 NONAME
 ?CreateObject@CMFCTasksPane@@SAPEAVCObject@@XZ @ 4040 NONAME
 ?CreateObject@CMFCTasksPaneFrameWnd@@SAPEAVCObject@@XZ @ 4041 NONAME
 ?CreateObject@CMFCTasksPaneToolBar@@SAPEAVCObject@@XZ @ 4042 NONAME
 ?CreateObject@CMFCToolBar@@SAPEAVCObject@@XZ @ 4043 NONAME
 ?CreateObject@CMFCToolBarButton@@SAPEAVCObject@@XZ @ 4044 NONAME
 ?CreateObject@CMFCToolBarColorButton@@SAPEAVCObject@@XZ @ 4045 NONAME
 ?CreateObject@CMFCToolBarComboBoxButton@@SAPEAVCObject@@XZ @ 4046 NONAME
 ?CreateObject@CMFCToolBarDateTimeCtrl@@SAPEAVCObject@@XZ @ 4047 NONAME
 ?CreateObject@CMFCToolBarEditBoxButton@@SAPEAVCObject@@XZ @ 4048 NONAME
 ?CreateObject@CMFCToolBarFontComboBox@@SAPEAVCObject@@XZ @ 4049 NONAME
 ?CreateObject@CMFCToolBarFontSizeComboBox@@SAPEAVCObject@@XZ @ 4050 NONAME
 ?CreateObject@CMFCToolBarMenuButton@@SAPEAVCObject@@XZ @ 4051 NONAME
 ?CreateObject@CMFCToolBarMenuButtonsButton@@SAPEAVCObject@@XZ @ 4052 NONAME
 ?CreateObject@CMFCToolBarsCommandsPropertyPage@@SAPEAVCObject@@XZ @ 4053 NONAME
 ?CreateObject@CMFCToolBarsKeyboardPropertyPage@@SAPEAVCObject@@XZ @ 4054 NONAME
 ?CreateObject@CMFCToolBarsListPropertyPage@@SAPEAVCObject@@XZ @ 4055 NONAME
 ?CreateObject@CMFCToolBarsMenuPropertyPage@@SAPEAVCObject@@XZ @ 4056 NONAME
 ?CreateObject@CMFCToolBarsOptionsPropertyPage@@SAPEAVCObject@@XZ @ 4057 NONAME
 ?CreateObject@CMFCToolBarSpinEditBoxButton@@SAPEAVCObject@@XZ @ 4058 NONAME
 ?CreateObject@CMFCToolBarSystemMenuButton@@SAPEAVCObject@@XZ @ 4059 NONAME
 ?CreateObject@CMFCToolTipCtrl@@SAPEAVCObject@@XZ @ 4060 NONAME
 ?CreateObject@CMFCVisualManager@@SAPEAVCObject@@XZ @ 4061 NONAME
 ?CreateObject@CMFCVisualManagerOffice2003@@SAPEAVCObject@@XZ @ 4062 NONAME
 ?CreateObject@CMFCVisualManagerOffice2007@@SAPEAVCObject@@XZ @ 4063 NONAME
 ?CreateObject@CMFCVisualManagerOfficeXP@@SAPEAVCObject@@XZ @ 4064 NONAME
 ?CreateObject@CMFCVisualManagerVS2005@@SAPEAVCObject@@XZ @ 4065 NONAME
 ?CreateObject@CMFCVisualManagerVS2008@@SAPEAVCObject@@XZ @ 4066 NONAME
 ?CreateObject@CMFCVisualManagerWindows@@SAPEAVCObject@@XZ @ 4067 NONAME
 ?CreateObject@CMFCVisualManagerWindows7@@SAPEAVCObject@@XZ @ 4068 NONAME
 ?CreateObject@CMiniDockFrameWnd@@SAPEAVCObject@@XZ @ 4069 NONAME
 ?CreateObject@CMiniFrameWnd@@SAPEAVCObject@@XZ @ 4070 NONAME
 ?CreateObject@CMouseManager@@SAPEAVCObject@@XZ @ 4071 NONAME
 ?CreateObject@CMultiPaneFrameWnd@@SAPEAVCObject@@XZ @ 4072 NONAME
 ?CreateObject@CObArray@@SAPEAVCObject@@XZ @ 4073 NONAME
 ?CreateObject@CObList@@SAPEAVCObject@@XZ @ 4074 NONAME
 ?CreateObject@COleDocIPFrameWnd@@SAPEAVCObject@@XZ @ 4075 NONAME
 ?CreateObject@COleDocIPFrameWndEx@@SAPEAVCObject@@XZ @ 4076 NONAME
 ?CreateObject@COleIPFrameWnd@@SAPEAVCObject@@XZ @ 4077 NONAME
 ?CreateObject@COleIPFrameWndEx@@SAPEAVCObject@@XZ @ 4078 NONAME
 ?CreateObject@COleServerDocEx@@SAPEAVCObject@@XZ @ 4079 NONAME
 ?CreateObject@COutlookCustomizeButton@@SAPEAVCObject@@XZ @ 4080 NONAME
 ?CreateObject@CPane@@SAPEAVCObject@@XZ @ 4081 NONAME
 ?CreateObject@CPaneContainerManager@@SAPEAVCObject@@XZ @ 4082 NONAME
 ?CreateObject@CPaneDialog@@SAPEAVCObject@@XZ @ 4083 NONAME
 ?CreateObject@CPaneDivider@@SAPEAVCObject@@XZ @ 4084 NONAME
 ?CreateObject@CPaneFrameWnd@@SAPEAVCObject@@XZ @ 4085 NONAME
 ?CreateObject@CPreviewView@@SAPEAVCObject@@XZ @ 4086 NONAME
 ?CreateObject@CPreviewViewEx@@SAPEAVCObject@@XZ @ 4087 NONAME
 ?CreateObject@CRibbonUndoLabel@@SAPEAVCObject@@XZ @ 4088 NONAME
 ?CreateObject@CRichEditCntrItem@@SAPEAVCObject@@XZ @ 4089 NONAME
 ?CreateObject@CRichEditView@@SAPEAVCObject@@XZ @ 4090 NONAME
 ?CreateObject@CRuntimeClass@@QEAAPEAVCObject@@XZ @ 4091 NONAME
 ?CreateObject@CRuntimeClass@@SAPEAVCObject@@PEB_W@Z @ 4092 NONAME
 ?CreateObject@CRuntimeClass@@SAPEAVCObject@@PEBD@Z @ 4093 NONAME
 ?CreateObject@CSettingsStore@@SAPEAVCObject@@XZ @ 4094 NONAME
 ?CreateObject@CSmartDockingGroupGuidesManager@@SAPEAVCObject@@XZ @ 4095 NONAME
 ?CreateObject@CSmartDockingStandaloneGuide@@SAPEAVCObject@@XZ @ 4096 NONAME
 ?CreateObject@CStringArray@@SAPEAVCObject@@XZ @ 4097 NONAME
 ?CreateObject@CStringList@@SAPEAVCObject@@XZ @ 4098 NONAME
 ?CreateObject@CTabbedPane@@SAPEAVCObject@@XZ @ 4099 NONAME
 ?CreateObject@CTabView@@SAPEAVCObject@@XZ @ 4100 NONAME
 ?CreateObject@CTasksPaneHistoryButton@@SAPEAVCObject@@XZ @ 4101 NONAME
 ?CreateObject@CTasksPaneMenuButton@@SAPEAVCObject@@XZ @ 4102 NONAME
 ?CreateObject@CTasksPaneNavigateButton@@SAPEAVCObject@@XZ @ 4103 NONAME
 ?CreateObject@CTreeView@@SAPEAVCObject@@XZ @ 4104 NONAME
 ?CreateObject@CUserTool@@SAPEAVCObject@@XZ @ 4105 NONAME
 ?CreateObject@CWnd@@SAPEAVCObject@@XZ @ 4106 NONAME
 ?CreateObject@CWordArray@@SAPEAVCObject@@XZ @ 4107 NONAME
 ?CreateOleFont@COleControlContainer@@QEAAXPEAVCFont@@@Z @ 4108 NONAME
 ?CreateOleFrame@CDocTemplate@@QEAAPEAVCFrameWnd@@PEAVCWnd@@PEAVCDocument@@H@Z @ 4109 NONAME
 ?CreateOneDim@COleSafeArray@@QEAAXGKPEBXJ@Z @ 4110 NONAME
 ?CreateOrLoad@COleControlSite@@MEAAJAEBU_GUID@@PEAVCFile@@HPEA_W@Z @ 4111 NONAME
 ?CreateOrLoad@COleControlSite@@MEAAJAEBVCControlCreationInfo@@@Z @ 4112 NONAME
 ?CreatePalette@CMFCColorBar@@KAHAEBV?$CArray@KK@@AEAVCPalette@@@Z @ 4113 NONAME
 ?CreatePalette@CPalette@@QEAAHPEAUtagLOGPALETTE@@@Z @ 4114 NONAME
 ?CreatePaneDivider@CPaneContainerManager@@IEAAPEAVCPaneDivider@@VCRect@@KH@Z @ 4115 NONAME
 ?CreatePanel@CMFCRibbonConstructor@@MEBAPEAVCMFCRibbonPanel@@AEAVCMFCRibbonCategory@@AEBVXPanel@CMFCRibbonInfo@@@Z @ 4116 NONAME
 ?CreatePatternBrush@CBrush@@QEAAHPEAVCBitmap@@@Z @ 4117 NONAME
 ?CreatePen@CPen@@QEAAHHHK@Z @ 4118 NONAME
 ?CreatePen@CPen@@QEAAHHHPEBUtagLOGBRUSH@@HPEBK@Z @ 4119 NONAME
 ?CreatePenIndirect@CPen@@QEAAHPEAUtagLOGPEN@@@Z @ 4120 NONAME
 ?CreatePointFont@CFont@@QEAAHHPEB_WPEAVCDC@@@Z @ 4121 NONAME
 ?CreatePointFontIndirect@CFont@@QEAAHPEBUtagLOGFONTW@@PEAVCDC@@@Z @ 4122 NONAME
 ?CreatePolygonRgn@CRgn@@QEAAHPEAUtagPOINT@@HH@Z @ 4123 NONAME
 ?CreatePolyPolygonRgn@CRgn@@QEAAHPEAUtagPOINT@@PEAHHH@Z @ 4124 NONAME
 ?CreatePopupMenu@CMenu@@QEAAHXZ @ 4125 NONAME
 ?CreatePopupMenu@CMFCColorMenuButton@@MEAAPEAVCMFCPopupMenu@@XZ @ 4126 NONAME
 ?CreatePopupMenu@CMFCCustomizeButton@@UEAAPEAVCMFCPopupMenu@@XZ @ 4127 NONAME
 ?CreatePopupMenu@CMFCRibbonGalleryMenuButton@@UEAAPEAVCMFCPopupMenu@@XZ @ 4128 NONAME
 ?CreatePopupMenu@COutlookCustomizeButton@@UEAAPEAVCMFCPopupMenu@@XZ @ 4129 NONAME
 ?CreatePreviewFrame@CDocTemplate@@QEAAPEAVCFrameWnd@@PEAVCWnd@@PEAVCDocument@@@Z @ 4130 NONAME
 ?CreatePrinterDC@CPageSetupDialog@@QEAAPEAUHDC__@@XZ @ 4131 NONAME
 ?CreatePrinterDC@CPrintDialog@@QEAAPEAUHDC__@@XZ @ 4132 NONAME
 ?CreatePrinterDC@CPrintDialogEx@@QEAAPEAUHDC__@@XZ @ 4133 NONAME
 ?CreatePrinterDC@CWinApp@@QEAAHAEAVCDC@@@Z @ 4134 NONAME
 ?CreateRectRgn@CRgn@@QEAAHHHHH@Z @ 4135 NONAME
 ?CreateRectRgnIndirect@CRgn@@QEAAHPEBUtagRECT@@@Z @ 4136 NONAME
 ?CreateRegionFromImage@CMFCToolBarImages@@SAPEAUHRGN__@@PEAUHBITMAP__@@K@Z @ 4137 NONAME
 ?CreateRoundRectRgn@CRgn@@QEAAHHHHHHH@Z @ 4138 NONAME
 ?CreateRow@CDockSite@@UEAAPEAVCDockingPanesRow@@PEAV1@HH@Z @ 4139 NONAME
 ?CreateRunDlgIndirect@CWnd@@IEAAHPEBUDLGTEMPLATE@@PEAV1@PEAUHINSTANCE__@@@Z @ 4140 NONAME
 ?CreateScrollBarCtrl@CSplitterWnd@@UEAAHKI@Z @ 4141 NONAME
 ?CreateSite@CControlSiteFactoryMgr@@QEAAPEAVCOleControlSite@@PEAVCOleControlContainer@@AEBVCControlCreationInfo@@@Z @ 4142 NONAME
 ?CreateSite@COccManager@@UEAAPEAVCOleControlSite@@PEAVCOleControlContainer@@@Z @ 4143 NONAME
 ?CreateSite@COccManager@@UEAAPEAVCOleControlSite@@PEAVCOleControlContainer@@AEBVCControlCreationInfo@@@Z @ 4144 NONAME
 ?CreateSolidBrush@CBrush@@QEAAHK@Z @ 4145 NONAME
 ?CreateSolidCaret@CWnd@@QEAAXHH@Z @ 4146 NONAME
 ?CreateSpinButton@CMFCRibbonEdit@@IEAAHPEAVCMFCRibbonRichEditCtrl@@PEAVCWnd@@@Z @ 4147 NONAME
 ?CreateSpinControl@CMFCPropertyGridProperty@@UEAAPEAVCSpinButtonCtrl@@VCRect@@@Z @ 4148 NONAME
 ?CreateStatic@CSplitterWnd@@UEAAHPEAVCWnd@@HHKI@Z @ 4149 NONAME
 ?CreateStaticFromClipboard@COleClientItem@@QEAAHW4tagOLERENDER@@GPEAUtagFORMATETC@@@Z @ 4150 NONAME
 ?CreateStaticFromData@COleClientItem@@QEAAHPEAVCOleDataObject@@W4tagOLERENDER@@GPEAUtagFORMATETC@@@Z @ 4151 NONAME
 ?CreateStockObject@CGdiObject@@QEAAHH@Z @ 4152 NONAME
 ?CreateStream@COleStreamFile@@QEAAHPEAUIStorage@@PEB_WKPEAVCFileException@@@Z @ 4153 NONAME
 ?CreateSysColorBrush@CBrush@@QEAAHH@Z @ 4154 NONAME
 ?CreateTabbedPane@CDockablePane@@UEAAPEAVCTabbedPane@@XZ @ 4155 NONAME
 ?CreateTabGroup@CMDIClientAreaWnd@@UEAAPEAVCMFCTabCtrl@@PEAV2@@Z @ 4156 NONAME
 ?CreateTearOffBar@CMFCColorPopupMenu@@UEAAPEAVCPane@@PEAVCFrameWnd@@IPEB_W@Z @ 4157 NONAME
 ?CreateTearOffBar@CMFCPopupMenu@@MEAAPEAVCPane@@PEAVCFrameWnd@@IPEB_W@Z @ 4158 NONAME
 ?CreateThread@CWinThread@@QEAAHKIPEAU_SECURITY_ATTRIBUTES@@@Z @ 4159 NONAME
 ?CreateToolTip@CTooltipManager@@SAHAEAPEAVCToolTipCtrl@@PEAVCWnd@@I@Z @ 4160 NONAME
 ?CreateToolTipObject@CTooltipManager@@IEAAHAEAPEAVCToolTipCtrl@@I@Z @ 4161 NONAME
 ?CreateTracker@COleControl@@IEAAXHH@Z @ 4162 NONAME
 ?CreateTracker@COleControl@@IEAAXHHPEBUtagRECT@@@Z @ 4163 NONAME
 ?CreateTransitions@CAnimationBaseObject@@QEAAHXZ @ 4164 NONAME
 ?CreateTransitions@CAnimationGroup@@IEAAHXZ @ 4165 NONAME
 ?CreateTransitions@CAnimationVariable@@QEAAHPEAUIUIAnimationTransitionLibrary@@PEAUIUIAnimationTransitionFactory@@@Z @ 4166 NONAME
 ?CreateView@CFrameWnd@@QEAAPEAVCWnd@@PEAUCCreateContext@@I@Z @ 4167 NONAME
 ?CreateView@CSplitterWnd@@UEAAHHHPEAUCRuntimeClass@@UtagSIZE@@PEAUCCreateContext@@@Z @ 4168 NONAME
 ?CreateView@XOleDocument@CDocObjectServer@@UEAAJPEAUIOleInPlaceSite@@PEAUIStream@@KPEAPEAUIOleDocumentView@@@Z @ 4169 NONAME
 ?CreateVisualManager@CMFCVisualManager@@KAPEAV1@PEAUCRuntimeClass@@@Z @ 4170 NONAME
 ?CreateWindowForSubclassedControl@COleControl@@IEAAXXZ @ 4171 NONAME
 ?CreateWrapper@CMFCBaseTabCtrl@@MEAAPEAVCWnd@@PEAV2@PEB_WH@Z @ 4172 NONAME
 ?Customize@CToolBarCtrl@@QEAAXXZ @ 4173 NONAME
 ?Cut@CComboBox@@QEAAXXZ @ 4174 NONAME
 ?Cut@CEdit@@QEAAXXZ @ 4175 NONAME
 ?Cut@CRichEditCtrl@@QEAAXXZ @ 4176 NONAME
 ?CyFromString@CGlobalUtils@@QEAAHAEATtagCY@@PEB_W@Z @ 4177 NONAME
 ?DAdvise@XDataObject@COleControl@@UEAAJPEAUtagFORMATETC@@KPEAUIAdviseSink@@PEAK@Z @ 4178 NONAME
 ?DAdvise@XDataObject@COleDataSource@@UEAAJPEAUtagFORMATETC@@KPEAUIAdviseSink@@PEAK@Z @ 4179 NONAME
 ?DAdvise@XDataObject@COleServerDoc@@UEAAJPEAUtagFORMATETC@@KPEAUIAdviseSink@@PEAK@Z @ 4180 NONAME
 ?DAdvise@XDataObject@COleServerItem@@UEAAJPEAUtagFORMATETC@@KPEAUIAdviseSink@@PEAK@Z @ 4181 NONAME
 ?DDP_CBIndex@@YAXPEAVCDataExchange@@HAEAHPEB_W@Z @ 4182 NONAME
 ?DDP_CBString@@YAXPEAVCDataExchange@@HAEAV?$CStringT@_WV?$StrTraitMFC_DLL@_WV?$ChTraitsCRT@_W@ATL@@@@@ATL@@PEB_W@Z @ 4183 NONAME
 ?DDP_CBStringExact@@YAXPEAVCDataExchange@@HAEAV?$CStringT@_WV?$StrTraitMFC_DLL@_WV?$ChTraitsCRT@_W@ATL@@@@@ATL@@PEB_W@Z @ 4184 NONAME
 ?DDP_Check@@YAXPEAVCDataExchange@@HAEAHPEB_W@Z @ 4185 NONAME
 ?DDP_EndCheck@@YAXPEAVCDataExchange@@HPEAHPEB_W@Z @ 4186 NONAME
 ?DDP_EndRadio@@YAXPEAVCDataExchange@@HPEAHPEB_W@Z @ 4187 NONAME
 ?DDP_EndText@@YAXPEAVCDataExchange@@HPEAEPEB_W@Z @ 4188 NONAME
 ?DDP_EndText@@YAXPEAVCDataExchange@@HPEAFPEB_W@Z @ 4189 NONAME
 ?DDP_EndText@@YAXPEAVCDataExchange@@HPEAHPEB_W@Z @ 4190 NONAME
 ?DDP_EndText@@YAXPEAVCDataExchange@@HPEAIPEB_W@Z @ 4191 NONAME
 ?DDP_EndText@@YAXPEAVCDataExchange@@HPEAJPEB_W@Z @ 4192 NONAME
 ?DDP_EndText@@YAXPEAVCDataExchange@@HPEAKPEB_W@Z @ 4193 NONAME
 ?DDP_EndText@@YAXPEAVCDataExchange@@HPEAMPEB_W@Z @ 4194 NONAME
 ?DDP_EndText@@YAXPEAVCDataExchange@@HPEANPEB_W@Z @ 4195 NONAME
 ?DDP_EndText@@YAXPEAVCDataExchange@@HPEAV?$CStringT@_WV?$StrTraitMFC_DLL@_WV?$ChTraitsCRT@_W@ATL@@@@@ATL@@PEB_W@Z @ 4196 NONAME
 ?DDP_LBIndex@@YAXPEAVCDataExchange@@HAEAHPEB_W@Z @ 4197 NONAME
 ?DDP_LBString@@YAXPEAVCDataExchange@@HAEAV?$CStringT@_WV?$StrTraitMFC_DLL@_WV?$ChTraitsCRT@_W@ATL@@@@@ATL@@PEB_W@Z @ 4198 NONAME
 ?DDP_LBStringExact@@YAXPEAVCDataExchange@@HAEAV?$CStringT@_WV?$StrTraitMFC_DLL@_WV?$ChTraitsCRT@_W@ATL@@@@@ATL@@PEB_W@Z @ 4199 NONAME
 ?DDP_PostProcessing@@YAXPEAVCDataExchange@@@Z @ 4200 NONAME
 ?DDP_Radio@@YAXPEAVCDataExchange@@HAEAHPEB_W@Z @ 4201 NONAME
 ?DDP_Text@@YAXPEAVCDataExchange@@HAEAEPEB_W@Z @ 4202 NONAME
 ?DDP_Text@@YAXPEAVCDataExchange@@HAEAFPEB_W@Z @ 4203 NONAME
 ?DDP_Text@@YAXPEAVCDataExchange@@HAEAHPEB_W@Z @ 4204 NONAME
 ?DDP_Text@@YAXPEAVCDataExchange@@HAEAIPEB_W@Z @ 4205 NONAME
 ?DDP_Text@@YAXPEAVCDataExchange@@HAEAJPEB_W@Z @ 4206 NONAME
 ?DDP_Text@@YAXPEAVCDataExchange@@HAEAKPEB_W@Z @ 4207 NONAME
 ?DDP_Text@@YAXPEAVCDataExchange@@HAEAMPEB_W@Z @ 4208 NONAME
 ?DDP_Text@@YAXPEAVCDataExchange@@HAEANPEB_W@Z @ 4209 NONAME
 ?DDP_Text@@YAXPEAVCDataExchange@@HAEAV?$CStringT@_WV?$StrTraitMFC_DLL@_WV?$ChTraitsCRT@_W@ATL@@@@@ATL@@PEB_W@Z @ 4210 NONAME
 ?DDV_MaxChars@@YAXPEAVCDataExchange@@AEBV?$CStringT@_WV?$StrTraitMFC_DLL@_WV?$ChTraitsCRT@_W@ATL@@@@@ATL@@H@Z @ 4211 NONAME
 ?DDV_MinMaxByte@@YAXPEAVCDataExchange@@EEE@Z @ 4212 NONAME
 ?DDV_MinMaxDateTime@@YAXPEAVCDataExchange@@AEAVCOleDateTime@ATL@@PEBV23@2@Z @ 4213 NONAME
 ?DDV_MinMaxDateTime@@YAXPEAVCDataExchange@@AEAVCTime@ATL@@PEBV23@2@Z @ 4214 NONAME
 ?DDV_MinMaxDouble@@YAXPEAVCDataExchange@@AEBNNN@Z @ 4215 NONAME
 ?DDV_MinMaxDWord@@YAXPEAVCDataExchange@@KKK@Z @ 4216 NONAME
 ?DDV_MinMaxFloat@@YAXPEAVCDataExchange@@AEBMMM@Z @ 4217 NONAME
 ?DDV_MinMaxInt@@YAXPEAVCDataExchange@@HHH@Z @ 4218 NONAME
 ?DDV_MinMaxLong@@YAXPEAVCDataExchange@@JJJ@Z @ 4219 NONAME
 ?DDV_MinMaxLongLong@@YAXPEAVCDataExchange@@_J11@Z @ 4220 NONAME
 ?DDV_MinMaxMonth@@YAXPEAVCDataExchange@@AEAVCOleDateTime@ATL@@PEBV23@2@Z @ 4221 NONAME
 ?DDV_MinMaxMonth@@YAXPEAVCDataExchange@@AEAVCTime@ATL@@PEBV23@2@Z @ 4222 NONAME
 ?DDV_MinMaxShort@@YAXPEAVCDataExchange@@FFF@Z @ 4223 NONAME
 ?DDV_MinMaxSlider@@YAXPEAVCDataExchange@@KKK@Z @ 4224 NONAME
 ?DDV_MinMaxUInt@@YAXPEAVCDataExchange@@III@Z @ 4225 NONAME
 ?DDV_MinMaxULongLong@@YAXPEAVCDataExchange@@_K11@Z @ 4226 NONAME
 ?DDX_CBIndex@@YAXPEAVCDataExchange@@HAEAH@Z @ 4227 NONAME
 ?DDX_CBString@@YAXPEAVCDataExchange@@HAEAV?$CStringT@_WV?$StrTraitMFC_DLL@_WV?$ChTraitsCRT@_W@ATL@@@@@ATL@@@Z @ 4228 NONAME
 ?DDX_CBStringExact@@YAXPEAVCDataExchange@@HAEAV?$CStringT@_WV?$StrTraitMFC_DLL@_WV?$ChTraitsCRT@_W@ATL@@@@@ATL@@@Z @ 4229 NONAME
 ?DDX_Check@@YAXPEAVCDataExchange@@HAEAH@Z @ 4230 NONAME
 ?DDX_Control@@YAXPEAVCDataExchange@@HAEAVCWnd@@@Z @ 4231 NONAME
 ?DDX_DateTimeCtrl@@YAXPEAVCDataExchange@@HAEAU_FILETIME@@@Z @ 4232 NONAME
 ?DDX_DateTimeCtrl@@YAXPEAVCDataExchange@@HAEAUtagDBDATE@@@Z @ 4233 NONAME
 ?DDX_DateTimeCtrl@@YAXPEAVCDataExchange@@HAEAUtagDBTIME@@@Z @ 4234 NONAME
 ?DDX_DateTimeCtrl@@YAXPEAVCDataExchange@@HAEAV?$CStringT@_WV?$StrTraitMFC_DLL@_WV?$ChTraitsCRT@_W@ATL@@@@@ATL@@@Z @ 4235 NONAME
 ?DDX_DateTimeCtrl@@YAXPEAVCDataExchange@@HAEAVCOleDateTime@ATL@@@Z @ 4236 NONAME
 ?DDX_DateTimeCtrl@@YAXPEAVCDataExchange@@HAEAVCTime@ATL@@@Z @ 4237 NONAME
 ?DDX_DHtml_AxControl@CDHtmlDialog@@IEAAXPEB_W0AEAUtagVARIANT@@H@Z @ 4238 NONAME
 ?DDX_DHtml_AxControl@CDHtmlDialog@@IEAAXPEB_WJAEAUtagVARIANT@@H@Z @ 4239 NONAME
 ?DDX_DHtml_AxControl@CDHtmlDialog@@QEAAXPEAVCDataExchange@@PEB_W1AEAUtagVARIANT@@@Z @ 4240 NONAME
 ?DDX_DHtml_AxControl@CDHtmlDialog@@QEAAXPEAVCDataExchange@@PEB_WJAEAUtagVARIANT@@@Z @ 4241 NONAME
 ?DDX_DHtml_CheckBox@CDHtmlDialog@@IEAAXPEB_WAEAHH@Z @ 4242 NONAME
 ?DDX_DHtml_CheckBox@CDHtmlDialog@@QEAAXPEAVCDataExchange@@PEB_WAEAH@Z @ 4243 NONAME
 ?DDX_DHtml_ElementText@CDHtmlDialog@@IEAAXPEB_WJAEAFH@Z @ 4244 NONAME
 ?DDX_DHtml_ElementText@CDHtmlDialog@@IEAAXPEB_WJAEAHH@Z @ 4245 NONAME
 ?DDX_DHtml_ElementText@CDHtmlDialog@@IEAAXPEB_WJAEAJH@Z @ 4246 NONAME
 ?DDX_DHtml_ElementText@CDHtmlDialog@@IEAAXPEB_WJAEAKH@Z @ 4247 NONAME
 ?DDX_DHtml_ElementText@CDHtmlDialog@@IEAAXPEB_WJAEAMH@Z @ 4248 NONAME
 ?DDX_DHtml_ElementText@CDHtmlDialog@@IEAAXPEB_WJAEANH@Z @ 4249 NONAME
 ?DDX_DHtml_ElementText@CDHtmlDialog@@IEAAXPEB_WJAEAV?$CStringT@_WV?$StrTraitMFC_DLL@_WV?$ChTraitsCRT@_W@ATL@@@@@ATL@@H@Z @ 4250 NONAME
 ?DDX_DHtml_ElementText@CDHtmlDialog@@QEAAXPEAVCDataExchange@@PEB_WJAEAF@Z @ 4251 NONAME
 ?DDX_DHtml_ElementText@CDHtmlDialog@@QEAAXPEAVCDataExchange@@PEB_WJAEAH@Z @ 4252 NONAME
 ?DDX_DHtml_ElementText@CDHtmlDialog@@QEAAXPEAVCDataExchange@@PEB_WJAEAJ@Z @ 4253 NONAME
 ?DDX_DHtml_ElementText@CDHtmlDialog@@QEAAXPEAVCDataExchange@@PEB_WJAEAK@Z @ 4254 NONAME
 ?DDX_DHtml_ElementText@CDHtmlDialog@@QEAAXPEAVCDataExchange@@PEB_WJAEAM@Z @ 4255 NONAME
 ?DDX_DHtml_ElementText@CDHtmlDialog@@QEAAXPEAVCDataExchange@@PEB_WJAEAN@Z @ 4256 NONAME
 ?DDX_DHtml_ElementText@CDHtmlDialog@@QEAAXPEAVCDataExchange@@PEB_WJAEAV?$CStringT@_WV?$StrTraitMFC_DLL@_WV?$ChTraitsCRT@_W@ATL@@@@@ATL@@@Z @ 4257 NONAME
 ?DDX_DHtml_ElementTextFloatFormat@CDHtmlDialog@@IEAAXPEB_WJPEAXNHH@Z @ 4258 NONAME
 ?DDX_DHtml_ElementTextWithFormat@CDHtmlDialog@@IEAAXPEB_WJ0IHZZ @ 4259 NONAME
 ?DDX_DHtml_Radio@CDHtmlDialog@@IEAAXPEB_WAEAJH@Z @ 4260 NONAME
 ?DDX_DHtml_Radio@CDHtmlDialog@@QEAAXPEAVCDataExchange@@PEB_WAEAJ@Z @ 4261 NONAME
 ?DDX_DHtml_SelectIndex@CDHtmlDialog@@IEAAXPEB_WAEAJH@Z @ 4262 NONAME
 ?DDX_DHtml_SelectIndex@CDHtmlDialog@@QEAAXPEAVCDataExchange@@PEB_WAEAJ@Z @ 4263 NONAME
 ?DDX_DHtml_SelectString@CDHtmlDialog@@IEAAXPEB_WAEAV?$CStringT@_WV?$StrTraitMFC_DLL@_WV?$ChTraitsCRT@_W@ATL@@@@@ATL@@H@Z @ 4264 NONAME
 ?DDX_DHtml_SelectString@CDHtmlDialog@@QEAAXPEAVCDataExchange@@PEB_WAEAV?$CStringT@_WV?$StrTraitMFC_DLL@_WV?$ChTraitsCRT@_W@ATL@@@@@ATL@@@Z @ 4265 NONAME
 ?DDX_DHtml_SelectValue@CDHtmlDialog@@IEAAXPEB_WAEAV?$CStringT@_WV?$StrTraitMFC_DLL@_WV?$ChTraitsCRT@_W@ATL@@@@@ATL@@H@Z @ 4266 NONAME
 ?DDX_DHtml_SelectValue@CDHtmlDialog@@QEAAXPEAVCDataExchange@@PEB_WAEAV?$CStringT@_WV?$StrTraitMFC_DLL@_WV?$ChTraitsCRT@_W@ATL@@@@@ATL@@@Z @ 4267 NONAME
 ?DDX_FieldCBIndex@@YAXPEAVCDataExchange@@HAEAHPEAVCRecordset@@@Z @ 4268 NONAME
 ?DDX_FieldCBString@@YAXPEAVCDataExchange@@HAEAV?$CStringT@_WV?$StrTraitMFC_DLL@_WV?$ChTraitsCRT@_W@ATL@@@@@ATL@@PEAVCRecordset@@@Z @ 4269 NONAME
 ?DDX_FieldCBStringExact@@YAXPEAVCDataExchange@@HAEAV?$CStringT@_WV?$StrTraitMFC_DLL@_WV?$ChTraitsCRT@_W@ATL@@@@@ATL@@PEAVCRecordset@@@Z @ 4270 NONAME
 ?DDX_FieldCheck@@YAXPEAVCDataExchange@@HAEAHPEAVCRecordset@@@Z @ 4271 NONAME
 ?DDX_FieldLBIndex@@YAXPEAVCDataExchange@@HAEAHPEAVCRecordset@@@Z @ 4272 NONAME
 ?DDX_FieldLBString@@YAXPEAVCDataExchange@@HAEAV?$CStringT@_WV?$StrTraitMFC_DLL@_WV?$ChTraitsCRT@_W@ATL@@@@@ATL@@PEAVCRecordset@@@Z @ 4273 NONAME
 ?DDX_FieldLBStringExact@@YAXPEAVCDataExchange@@HAEAV?$CStringT@_WV?$StrTraitMFC_DLL@_WV?$ChTraitsCRT@_W@ATL@@@@@ATL@@PEAVCRecordset@@@Z @ 4274 NONAME
 ?DDX_FieldRadio@@YAXPEAVCDataExchange@@HAEAHPEAVCRecordset@@@Z @ 4275 NONAME
 ?DDX_FieldScroll@@YAXPEAVCDataExchange@@HAEAHPEAVCRecordset@@@Z @ 4276 NONAME
 ?DDX_FieldText@@YAXPEAVCDataExchange@@HAEAEPEAVCRecordset@@@Z @ 4277 NONAME
 ?DDX_FieldText@@YAXPEAVCDataExchange@@HAEAHPEAVCRecordset@@@Z @ 4278 NONAME
 ?DDX_FieldText@@YAXPEAVCDataExchange@@HAEAIPEAVCRecordset@@@Z @ 4279 NONAME
 ?DDX_FieldText@@YAXPEAVCDataExchange@@HAEAJPEAVCRecordset@@@Z @ 4280 NONAME
 ?DDX_FieldText@@YAXPEAVCDataExchange@@HAEAKPEAVCRecordset@@@Z @ 4281 NONAME
 ?DDX_FieldText@@YAXPEAVCDataExchange@@HAEAMPEAVCRecordset@@@Z @ 4282 NONAME
 ?DDX_FieldText@@YAXPEAVCDataExchange@@HAEANPEAVCRecordset@@@Z @ 4283 NONAME
 ?DDX_FieldText@@YAXPEAVCDataExchange@@HAEAV?$CStringT@_WV?$StrTraitMFC_DLL@_WV?$ChTraitsCRT@_W@ATL@@@@@ATL@@PEAVCRecordset@@@Z @ 4284 NONAME
 ?DDX_FieldText@@YAXPEAVCDataExchange@@HPEA_WHPEAVCRecordset@@@Z @ 4285 NONAME
 ?DDX_IPAddress@@YAXPEAVCDataExchange@@HAEAK@Z @ 4286 NONAME
 ?DDX_LBIndex@@YAXPEAVCDataExchange@@HAEAH@Z @ 4287 NONAME
 ?DDX_LBString@@YAXPEAVCDataExchange@@HAEAV?$CStringT@_WV?$StrTraitMFC_DLL@_WV?$ChTraitsCRT@_W@ATL@@@@@ATL@@@Z @ 4288 NONAME
 ?DDX_LBStringExact@@YAXPEAVCDataExchange@@HAEAV?$CStringT@_WV?$StrTraitMFC_DLL@_WV?$ChTraitsCRT@_W@ATL@@@@@ATL@@@Z @ 4289 NONAME
 ?DDX_MonthCalCtrl@@YAXPEAVCDataExchange@@HAEAU_FILETIME@@@Z @ 4290 NONAME
 ?DDX_MonthCalCtrl@@YAXPEAVCDataExchange@@HAEAUtagDBDATE@@@Z @ 4291 NONAME
 ?DDX_MonthCalCtrl@@YAXPEAVCDataExchange@@HAEAVCOleDateTime@ATL@@@Z @ 4292 NONAME
 ?DDX_MonthCalCtrl@@YAXPEAVCDataExchange@@HAEAVCTime@ATL@@@Z @ 4293 NONAME
 ?DDX_OCBool@@YAXPEAVCDataExchange@@HJAEAH@Z @ 4294 NONAME
 ?DDX_OCBoolRO@@YAXPEAVCDataExchange@@HJAEAH@Z @ 4295 NONAME
 ?DDX_OCColor@@YAXPEAVCDataExchange@@HJAEAK@Z @ 4296 NONAME
 ?DDX_OCColorRO@@YAXPEAVCDataExchange@@HJAEAK@Z @ 4297 NONAME
 ?DDX_OCFloat@@YAXPEAVCDataExchange@@HJAEAM@Z @ 4298 NONAME
 ?DDX_OCFloat@@YAXPEAVCDataExchange@@HJAEAN@Z @ 4299 NONAME
 ?DDX_OCFloatRO@@YAXPEAVCDataExchange@@HJAEAM@Z @ 4300 NONAME
 ?DDX_OCFloatRO@@YAXPEAVCDataExchange@@HJAEAN@Z @ 4301 NONAME
 ?DDX_OCInt@@YAXPEAVCDataExchange@@HJAEAH@Z @ 4302 NONAME
 ?DDX_OCInt@@YAXPEAVCDataExchange@@HJAEAJ@Z @ 4303 NONAME
 ?DDX_OCIntRO@@YAXPEAVCDataExchange@@HJAEAH@Z @ 4304 NONAME
 ?DDX_OCIntRO@@YAXPEAVCDataExchange@@HJAEAJ@Z @ 4305 NONAME
 ?DDX_OCShort@@YAXPEAVCDataExchange@@HJAEAF@Z @ 4306 NONAME
 ?DDX_OCShortRO@@YAXPEAVCDataExchange@@HJAEAF@Z @ 4307 NONAME
 ?DDX_OCText@@YAXPEAVCDataExchange@@HJAEAV?$CStringT@_WV?$StrTraitMFC_DLL@_WV?$ChTraitsCRT@_W@ATL@@@@@ATL@@@Z @ 4308 NONAME
 ?DDX_OCTextRO@@YAXPEAVCDataExchange@@HJAEAV?$CStringT@_WV?$StrTraitMFC_DLL@_WV?$ChTraitsCRT@_W@ATL@@@@@ATL@@@Z @ 4309 NONAME
 ?DDX_Radio@@YAXPEAVCDataExchange@@HAEAH@Z @ 4310 NONAME
 ?DDX_Scroll@@YAXPEAVCDataExchange@@HAEAH@Z @ 4311 NONAME
 ?DDX_Slider@@YAXPEAVCDataExchange@@HAEAH@Z @ 4312 NONAME
 ?DDX_Text@@YAXPEAVCDataExchange@@HAEA_J@Z @ 4313 NONAME
 ?DDX_Text@@YAXPEAVCDataExchange@@HAEA_K@Z @ 4314 NONAME
 ?DDX_Text@@YAXPEAVCDataExchange@@HAEAE@Z @ 4315 NONAME
 ?DDX_Text@@YAXPEAVCDataExchange@@HAEAF@Z @ 4316 NONAME
 ?DDX_Text@@YAXPEAVCDataExchange@@HAEAH@Z @ 4317 NONAME
 ?DDX_Text@@YAXPEAVCDataExchange@@HAEAI@Z @ 4318 NONAME
 ?DDX_Text@@YAXPEAVCDataExchange@@HAEAJ@Z @ 4319 NONAME
 ?DDX_Text@@YAXPEAVCDataExchange@@HAEAK@Z @ 4320 NONAME
 ?DDX_Text@@YAXPEAVCDataExchange@@HAEAM@Z @ 4321 NONAME
 ?DDX_Text@@YAXPEAVCDataExchange@@HAEAN@Z @ 4322 NONAME
 ?DDX_Text@@YAXPEAVCDataExchange@@HAEAU_FILETIME@@@Z @ 4323 NONAME
 ?DDX_Text@@YAXPEAVCDataExchange@@HAEAU_GUID@@@Z @ 4324 NONAME
 ?DDX_Text@@YAXPEAVCDataExchange@@HAEAUtagDB_NUMERIC@@@Z @ 4325 NONAME
 ?DDX_Text@@YAXPEAVCDataExchange@@HAEAUtagDBDATE@@@Z @ 4326 NONAME
 ?DDX_Text@@YAXPEAVCDataExchange@@HAEAUtagDBTIME@@@Z @ 4327 NONAME
 ?DDX_Text@@YAXPEAVCDataExchange@@HAEAUtagDEC@@@Z @ 4328 NONAME
 ?DDX_Text@@YAXPEAVCDataExchange@@HAEAV?$CStringT@_WV?$StrTraitMFC_DLL@_WV?$ChTraitsCRT@_W@ATL@@@@@ATL@@@Z @ 4329 NONAME
 ?DDX_Text@@YAXPEAVCDataExchange@@HAEAVCOleCurrency@@@Z @ 4330 NONAME
 ?DDX_Text@@YAXPEAVCDataExchange@@HAEAVCOleDateTime@ATL@@@Z @ 4331 NONAME
 ?DDX_Text@@YAXPEAVCDataExchange@@HPEA_WH@Z @ 4332 NONAME
 ?Deactivate@CMFCPropertyGridToolTipCtrl@@QEAAXXZ @ 4333 NONAME
 ?Deactivate@CMFCToolBar@@UEAAXXZ @ 4334 NONAME
 ?Deactivate@COleClientItem@@QEAAXXZ @ 4335 NONAME
 ?Deactivate@XPropertyPage@COlePropertyPage@@UEAAJXZ @ 4336 NONAME
 ?DeactivateAndUndo@COleServerDoc@@QEAAHXZ @ 4337 NONAME
 ?DeactivateAndUndo@XOleIPSite@COleClientItem@@UEAAJXZ @ 4338 NONAME
 ?DeactivateAndUndo@XOleIPSite@COleControlSite@@UEAAJXZ @ 4339 NONAME
 ?DeactivateKeyboardFocus@CMFCRibbonBar@@QEAAXH@Z @ 4340 NONAME
 ?DeactivateMenu@CFrameImpl@@IEAAXXZ @ 4341 NONAME
 ?DeactivateUI@COleClientItem@@QEAAXXZ @ 4342 NONAME
 ?DecimalFromString@CGlobalUtils@@QEAAHAEAUtagDEC@@PEB_W@Z @ 4343 NONAME
 ?Default@CFieldExchange@@QEAAXPEB_WPEAXPEA_JH_K3@Z @ 4344 NONAME
 ?Default@CWnd@@IEAA_JXZ @ 4345 NONAME
 ?DefWindowProcW@CMDIChildWnd@@MEAA_JI_K_J@Z @ 4346 NONAME
 ?DefWindowProcW@CMDIFrameWnd@@MEAA_JI_K_J@Z @ 4347 NONAME
 ?DefWindowProcW@COleControl@@MEAA_JI_K_J@Z @ 4348 NONAME
 ?DefWindowProcW@CPrintDialogEx@@UEAA_JI_K_J@Z @ 4349 NONAME
 ?DefWindowProcW@CWnd@@MEAA_JI_K_J@Z @ 4350 NONAME
 ?DelayRecalcLayout@CFrameWnd@@QEAAXH@Z @ 4351 NONAME
 ?DelayRenderData@COleDataSource@@QEAAXGPEAUtagFORMATETC@@@Z @ 4352 NONAME
 ?DelayRenderFileData@COleDataSource@@QEAAXGPEAUtagFORMATETC@@@Z @ 4353 NONAME
 ?DelaySetData@COleDataSource@@QEAAXGPEAUtagFORMATETC@@@Z @ 4354 NONAME
 ?DelayShow@CControlBar@@UEAAXH@Z @ 4355 NONAME
 ?DelayUpdateFrameMenu@CFrameWnd@@UEAAXPEAUHMENU__@@@Z @ 4356 NONAME
 ?DelayUpdateFrameMenu@CFrameWndEx@@UEAAXPEAUHMENU__@@@Z @ 4357 NONAME
 ?DelayUpdateFrameMenu@CMDIFrameWnd@@UEAAXPEAUHMENU__@@@Z @ 4358 NONAME
 ?DelayUpdateFrameTitle@CFrameWnd@@QEAAXXZ @ 4359 NONAME
 ?Delete@?$CStringT@_WV?$StrTraitMFC_DLL@_WV?$ChTraitsCRT@_W@ATL@@@@@ATL@@QEAAHHH@Z @ 4360 NONAME
 ?Delete@?$CStringT@DV?$StrTraitMFC_DLL@DV?$ChTraitsCRT@D@ATL@@@@@ATL@@QEAAHHH@Z @ 4361 NONAME
 ?Delete@CException@@QEAAXXZ @ 4362 NONAME
 ?Delete@COleClientItem@@QEAAXH@Z @ 4363 NONAME
 ?Delete@CRecordset@@UEAAXXZ @ 4364 NONAME
 ?Delete@CWinThread@@UEAAXXZ @ 4365 NONAME
 ?DeleteAllAutosavedFiles@CDataRecoveryHandler@@UEAAHXZ @ 4366 NONAME
 ?DeleteAllItems@CListCtrl@@QEAAHXZ @ 4367 NONAME
 ?DeleteAllItems@CTabCtrl@@QEAAHXZ @ 4368 NONAME
 ?DeleteAllItems@CTreeCtrl@@QEAAHXZ @ 4369 NONAME
 ?DeleteAutosavedFile@CDataRecoveryHandler@@UEAAHAEBV?$CStringT@_WV?$StrTraitMFC_DLL@_WV?$ChTraitsCRT@_W@ATL@@@@@ATL@@@Z @ 4370 NONAME
 ?DeleteBand@CReBarCtrl@@QEAAHI@Z @ 4371 NONAME
 ?DeleteButton@CToolBarCtrl@@QEAAHH@Z @ 4372 NONAME
 ?DeleteColumn@CListCtrl@@QEAAHH@Z @ 4373 NONAME
 ?DeleteColumn@CSplitterWnd@@UEAAXH@Z @ 4374 NONAME
 ?DeleteContents@CDocument@@UEAAXXZ @ 4375 NONAME
 ?DeleteContents@CEditView@@UEAAXXZ @ 4376 NONAME
 ?DeleteContents@CHtmlEditDoc@@UEAAXXZ @ 4377 NONAME
 ?DeleteContents@COleDocument@@UEAAXXZ @ 4378 NONAME
 ?DeleteContents@COleServerDoc@@UEAAXXZ @ 4379 NONAME
 ?DeleteContents@CRichEditDoc@@UEAAXXZ @ 4380 NONAME
 ?DeleteContents@CRichEditView@@UEAAXXZ @ 4381 NONAME
 ?DeleteDC@CDC@@QEAAHXZ @ 4382 NONAME
 ?DeleteIcon@CUserTool@@MEAAXXZ @ 4383 NONAME
 ?DeleteImage@CMFCToolBarImages@@QEAAHH@Z @ 4384 NONAME
 ?DeleteImageList@CImageList@@QEAAHXZ @ 4385 NONAME
 ?DeleteItem@CComboBox@@UEAAXPEAUtagDELETEITEMSTRUCT@@@Z @ 4386 NONAME
 ?DeleteItem@CComboBoxEx@@QEAAHH@Z @ 4387 NONAME
 ?DeleteItem@CHeaderCtrl@@QEAAHH@Z @ 4388 NONAME
 ?DeleteItem@CListBox@@UEAAXPEAUtagDELETEITEMSTRUCT@@@Z @ 4389 NONAME
 ?DeleteItem@CListCtrl@@QEAAHH@Z @ 4390 NONAME
 ?DeleteItem@CMFCRibbonComboBox@@QEAAH_K@Z @ 4391 NONAME
 ?DeleteItem@CMFCRibbonComboBox@@QEAAHH@Z @ 4392 NONAME
 ?DeleteItem@CMFCRibbonComboBox@@QEAAHPEB_W@Z @ 4393 NONAME
 ?DeleteItem@CMFCToolBarComboBoxButton@@QEAAH_K@Z @ 4394 NONAME
 ?DeleteItem@CMFCToolBarComboBoxButton@@QEAAHH@Z @ 4395 NONAME
 ?DeleteItem@CMFCToolBarComboBoxButton@@QEAAHPEB_W@Z @ 4396 NONAME
 ?DeleteItem@CTabCtrl@@QEAAHH@Z @ 4397 NONAME
 ?DeleteItem@CTreeCtrl@@QEAAHPEAU_TREEITEM@@@Z @ 4398 NONAME
 ?DeleteKey@CSettingsStore@@UEAAHPEB_WH@Z @ 4399 NONAME
 ?DeleteMenu@CMenu@@QEAAHII@Z @ 4400 NONAME
 ?DeleteObject@CGdiObject@@QEAAHXZ @ 4401 NONAME
 ?DeleteObject@XRichEditOleCallback@CRichEditView@@UEAAJPEAUIOleObject@@@Z @ 4402 NONAME
 ?DeletePane@CPaneContainer@@UEAAXPEAVCDockablePane@@W4BC_FIND_CRITERIA@1@@Z @ 4403 NONAME
 ?DeleteProperty@CMFCPropertyGridCtrl@@QEAAHAEAPEAVCMFCPropertyGridProperty@@HH@Z @ 4404 NONAME
 ?DeleteRow@CSplitterWnd@@UEAAXH@Z @ 4405 NONAME
 ?DeleteString@CComboBox@@QEAAHI@Z @ 4406 NONAME
 ?DeleteString@CListBox@@QEAAHI@Z @ 4407 NONAME
 ?DeleteString@CMFCFontComboBox@@QEAAHI@Z @ 4408 NONAME
 ?DeleteTemp@CHandleMap@@QEAAXXZ @ 4409 NONAME
 ?DeleteTempMap@CDC@@SAXXZ @ 4410 NONAME
 ?DeleteTempMap@CGdiObject@@SAXXZ @ 4411 NONAME
 ?DeleteTempMap@CImageList@@SAXXZ @ 4412 NONAME
 ?DeleteTempMap@CMenu@@SAXXZ @ 4413 NONAME
 ?DeleteTempMap@CWnd@@SAXXZ @ 4414 NONAME
 ?DeleteToolBar@CFrameImpl@@IEAAHPEAVCMFCToolBar@@@Z @ 4415 NONAME
 ?DeleteToolTip@CTooltipManager@@SAXAEAPEAVCToolTipCtrl@@@Z @ 4416 NONAME
 ?DeleteUnmarkedItems@CRichEditDoc@@IEBAXXZ @ 4417 NONAME
 ?DeleteValue@CSettingsStore@@UEAAHPEB_W@Z @ 4418 NONAME
 ?DeleteValues@CThreadSlotData@@QEAAXPEAUCThreadData@@PEAUHINSTANCE__@@@Z @ 4419 NONAME
 ?DeleteValues@CThreadSlotData@@QEAAXPEAUHINSTANCE__@@H@Z @ 4420 NONAME
 ?DeleteView@CSplitterWnd@@UEAAXHH@Z @ 4421 NONAME
 ?DelRegTree@CWinApp@@QEAAJPEAUHKEY__@@AEBV?$CStringT@_WV?$StrTraitMFC_DLL@_WV?$ChTraitsCRT@_W@ATL@@@@@ATL@@PEAVCAtlTransactionManager@4@@Z @ 4422 NONAME
 ?DelTool@CToolTipCtrl@@QEAAXPEAVCWnd@@_K@Z @ 4423 NONAME
 ?DeselectAll@CTabCtrl@@QEAAXH@Z @ 4424 NONAME
 ?Destroy@CD2DBitmap@@UEAAXXZ @ 4425 NONAME
 ?Destroy@CD2DBitmapBrush@@UEAAXXZ @ 4426 NONAME
 ?Destroy@CD2DBrush@@UEAAXXZ @ 4427 NONAME
 ?Destroy@CD2DGeometry@@UEAAXXZ @ 4428 NONAME
 ?Destroy@CD2DGradientBrush@@MEAAXXZ @ 4429 NONAME
 ?Destroy@CD2DLayer@@UEAAXXZ @ 4430 NONAME
 ?Destroy@CD2DLinearGradientBrush@@UEAAXXZ @ 4431 NONAME
 ?Destroy@CD2DMesh@@UEAAXXZ @ 4432 NONAME
 ?Destroy@CD2DPathGeometry@@UEAAXXZ @ 4433 NONAME
 ?Destroy@CD2DRadialGradientBrush@@UEAAXXZ @ 4434 NONAME
 ?Destroy@CD2DSolidColorBrush@@UEAAXXZ @ 4435 NONAME
 ?Destroy@CMFCPreviewCtrlImpl@@UEAAXXZ @ 4436 NONAME
 ?Destroy@COleSafeArray@@QEAAXXZ @ 4437 NONAME
 ?Destroy@CRenderTarget@@QEAAHH@Z @ 4438 NONAME
 ?Destroy@CSmartDockingGroupGuide@@UEAAXXZ @ 4439 NONAME
 ?Destroy@CSmartDockingGroupGuidesManager@@UEAAXXZ @ 4440 NONAME
 ?Destroy@CSmartDockingManager@@QEAAXXZ @ 4441 NONAME
 ?Destroy@CSmartDockingStandaloneGuide@@UEAAXXZ @ 4442 NONAME
 ?DestroyControl@COleControlSite@@UEAAHXZ @ 4443 NONAME
 ?DestroyCtrl@CMFCRibbonEdit@@UEAAXXZ @ 4444 NONAME
 ?DestroyData@COleSafeArray@@QEAAXXZ @ 4445 NONAME
 ?DestroyDescriptor@COleSafeArray@@QEAAXXZ @ 4446 NONAME
 ?DestroyDockBars@CFrameWnd@@QEAAXXZ @ 4447 NONAME
 ?DestroyImages@CSmartDockingGroupGuide@@MEAAXXZ @ 4448 NONAME
 ?DestroyInPlaceFrame@COleServerDoc@@MEAAXPEAVCOleIPFrameWnd@@@Z @ 4449 NONAME
 ?DestroyInstance@CMFCVisualManager@@SAXH@Z @ 4450 NONAME
 ?DestroyMenu@CMenu@@QEAAHXZ @ 4451 NONAME
 ?DestroyModeless@CDHtmlDialog@@QEAAXXZ @ 4452 NONAME
 ?DestroySharedMenu@COleControl@@MEAAXXZ @ 4453 NONAME
 ?DestroySharedMenu@COleDocIPFrameWnd@@MEAAXXZ @ 4454 NONAME
 ?DestroySharedMenu@COleIPFrameWnd@@MEAAXXZ @ 4455 NONAME
 ?DestroyToolTipCtrl@CToolTipCtrl@@QEAAHXZ @ 4456 NONAME
 ?DestroyTracker@COleControl@@IEAAXXZ @ 4457 NONAME
 ?DestroyWindow@CControlBar@@UEAAHXZ @ 4458 NONAME
 ?DestroyWindow@CMDIChildWnd@@UEAAHXZ @ 4459 NONAME
 ?DestroyWindow@CWnd@@UEAAHXZ @ 4460 NONAME
 ?Detach@CAsyncSocket@@QEAA_KXZ @ 4461 NONAME
 ?Detach@CBitmapRenderTarget@@QEAAPEAUID2D1BitmapRenderTarget@@XZ @ 4462 NONAME
 ?Detach@CD2DBitmap@@QEAAPEAUID2D1Bitmap@@XZ @ 4463 NONAME
 ?Detach@CD2DBitmapBrush@@QEAAPEAUID2D1BitmapBrush@@XZ @ 4464 NONAME
 ?Detach@CD2DBrush@@QEAAPEAUID2D1Brush@@XZ @ 4465 NONAME
 ?Detach@CD2DGeometry@@QEAAPEAUID2D1Geometry@@XZ @ 4466 NONAME
 ?Detach@CD2DLayer@@QEAAPEAUID2D1Layer@@XZ @ 4467 NONAME
 ?Detach@CD2DLinearGradientBrush@@QEAAPEAUID2D1LinearGradientBrush@@XZ @ 4468 NONAME
 ?Detach@CD2DMesh@@QEAAPEAUID2D1Mesh@@XZ @ 4469 NONAME
 ?Detach@CD2DPathGeometry@@QEAAPEAUID2D1PathGeometry@@XZ @ 4470 NONAME
 ?Detach@CD2DRadialGradientBrush@@QEAAPEAUID2D1RadialGradientBrush@@XZ @ 4471 NONAME
 ?Detach@CD2DSolidColorBrush@@QEAAPEAUID2D1SolidColorBrush@@XZ @ 4472 NONAME
 ?Detach@CDC@@QEAAPEAUHDC__@@XZ @ 4473 NONAME
 ?Detach@CDCRenderTarget@@QEAAPEAUID2D1DCRenderTarget@@XZ @ 4474 NONAME
 ?Detach@CDialogTemplate@@QEAAPEAXXZ @ 4475 NONAME
 ?Detach@CGdiObject@@QEAAPEAXXZ @ 4476 NONAME
 ?Detach@CHwndRenderTarget@@QEAAPEAUID2D1HwndRenderTarget@@XZ @ 4477 NONAME
 ?Detach@CImageList@@QEAAPEAU_IMAGELIST@@XZ @ 4478 NONAME
 ?Detach@CMemFile@@QEAAPEAEXZ @ 4479 NONAME
 ?Detach@CMenu@@QEAAPEAUHMENU__@@XZ @ 4480 NONAME
 ?Detach@CMonikerFile@@QEAAHPEAVCFileException@@@Z @ 4481 NONAME
 ?Detach@COleDataObject@@QEAAPEAUIDataObject@@XZ @ 4482 NONAME
 ?Detach@COleSafeArray@@QEAA?AUtagVARIANT@@XZ @ 4483 NONAME
 ?Detach@COleStreamFile@@QEAAPEAUIStream@@XZ @ 4484 NONAME
 ?Detach@COleVariant@@QEAA?AUtagVARIANT@@XZ @ 4485 NONAME
 ?Detach@CRenderTarget@@QEAAPEAUID2D1RenderTarget@@XZ @ 4486 NONAME
 ?Detach@CSharedFile@@QEAAPEAXXZ @ 4487 NONAME
 ?Detach@CWindowlessDC@@QEAAPEAUHDC__@@XZ @ 4488 NONAME
 ?Detach@CWnd@@QEAAPEAUHWND__@@XZ @ 4489 NONAME
 ?DetachDispatch@COleDispatchDriver@@QEAAPEAUIDispatch@@XZ @ 4490 NONAME
 ?DetachHandle@CAsyncSocket@@SAX_KH@Z @ 4491 NONAME
 ?DetachPane@CBaseTabbedPane@@UEAAHPEAVCWnd@@H@Z @ 4492 NONAME
 ?DetachPane@CTabbedPane@@UEAAHPEAVCWnd@@H@Z @ 4493 NONAME
 ?DetachTab@CMFCBaseTabCtrl@@UEAAHW4AFX_DOCK_METHOD@@HH@Z @ 4494 NONAME
 ?DetachWindow@COleControlSite@@QEAAXXZ @ 4495 NONAME
 ?DeterminePaneAndStatus@CDockingManager@@UEAA?AW4AFX_CS_STATUS@@VCPoint@@HKPEAPEAVCBasePane@@PEBV4@2@Z @ 4496 NONAME
 ?DevModeChange@CWinApp@@QEAAXPEA_W@Z @ 4497 NONAME
 ?DHtmlEventHook@CDHtmlEventSink@@UEAAHPEAJJPEAUtagDISPPARAMS@@PEAUtagVARIANT@@PEAUtagEXCEPINFO@@PEAI@Z @ 4498 NONAME
 ?DialogMouseHookProc@CDialogImpl@@KA_JH_K_J@Z @ 4499 NONAME
 ?DidEvent@XNotifyDBEvents@COleControlSite@@UEAAJKKQEAUtagDBNOTIFYREASON@@@Z @ 4500 NONAME
 ?Difference@CMemoryState@@QEAAHAEBU1@0@Z @ 4501 NONAME
 ?Dir@CComboBox@@QEAAHIPEB_W@Z @ 4502 NONAME
 ?Dir@CComboBoxEx@@QEAAHIPEB_W@Z @ 4503 NONAME
 ?Dir@CListBox@@QEAAHIPEB_W@Z @ 4504 NONAME
 ?DisableMask@CMFCMaskedEdit@@QEAAXXZ @ 4505 NONAME
 ?DiscardUndoState@COleServerDoc@@QEAAHXZ @ 4506 NONAME
 ?DiscardUndoState@XOleIPSite@COleClientItem@@UEAAJXZ @ 4507 NONAME
 ?DiscardUndoState@XOleIPSite@COleControlSite@@UEAAJXZ @ 4508 NONAME
 ?Disconnect@COleDispatchImpl@@UEAAXXZ @ 4509 NONAME
 ?DisconnectDHtmlElementEvents@CDHtmlDialog@@IEAAXXZ @ 4510 NONAME
 ?DisconnectDHtmlEvents@CDHtmlDialog@@IEAAXXZ @ 4511 NONAME
 ?DisconnectFromConnectionPoint@CDHtmlEventSink@@QEAAXPEAUIUnknown@@AEBU_GUID@@AEAK@Z @ 4512 NONAME
 ?DisconnectSink@COleControlSite@@IEAAXAEBU_GUID@@K@Z @ 4513 NONAME
 ?DisconnectViews@CDocument@@QEAAXXZ @ 4514 NONAME
 ?DispatchThreadMessage@CWinThread@@IEAAXPEAUtagMSG@@@Z @ 4515 NONAME
 ?DispatchThreadMessageEx@CWinThread@@IEAAHPEAUtagMSG@@@Z @ 4516 NONAME
 ?DisplayBand@CRichEditCtrl@@QEAAHPEAUtagRECT@@@Z @ 4517 NONAME
 ?DisplayError@COleControl@@UEAAXJPEB_W00I@Z @ 4518 NONAME
 ?DisplayFolder@CMFCShellListCtrl@@UEAAJPEAU_AFX_SHELLITEMINFO@@@Z @ 4519 NONAME
 ?DisplayFolder@CMFCShellListCtrl@@UEAAJPEB_W@Z @ 4520 NONAME
 ?DisplayParentFolder@CMFCShellListCtrl@@UEAAJXZ @ 4521 NONAME
 ?DlgDirListComboBoxW@CWnd@@QEAAHPEA_WHHI@Z @ 4522 NONAME
 ?DlgDirListW@CWnd@@QEAAHPEA_WHHI@Z @ 4523 NONAME
 ?DlgDirSelect@CWnd@@QEAAHPEA_WH@Z @ 4524 NONAME
 ?DlgDirSelect@CWnd@@QEAAHPEA_WHH@Z @ 4525 NONAME
 ?DlgDirSelectComboBox@CWnd@@QEAAHPEA_WH@Z @ 4526 NONAME
 ?DlgDirSelectComboBox@CWnd@@QEAAHPEA_WHH@Z @ 4527 NONAME
 ?DoBeginPrinting@CDocObjectServer@@IEAAXPEAVCView@@PEAVCDC@@PEAUCPrintInfo@@@Z @ 4528 NONAME
 ?DoBulkFieldExchange@CRecordset@@UEAAXPEAVCFieldExchange@@@Z @ 4529 NONAME
 ?DoCallBack@CAsyncSocket@@SAX_K_J@Z @ 4530 NONAME
 ?DoChangeIcon@COleChangeIconDialog@@QEAAHPEAVCOleClientItem@@@Z @ 4531 NONAME
 ?Dock@CBaseTabbedPane@@MEAAHPEAVCBasePane@@PEBUtagRECT@@W4AFX_DOCK_METHOD@@@Z @ 4532 NONAME
 ?Dock@CDockablePane@@MEAAHPEAVCBasePane@@PEBUtagRECT@@W4AFX_DOCK_METHOD@@@Z @ 4533 NONAME
 ?Dock@CMFCOutlookBarPane@@UEAAHPEAVCBasePane@@PEBUtagRECT@@W4AFX_DOCK_METHOD@@@Z @ 4534 NONAME
 ?Dock@CPane@@MEAAHPEAVCBasePane@@PEBUtagRECT@@W4AFX_DOCK_METHOD@@@Z @ 4535 NONAME
 ?DockByMouse@CPane@@UEAAHPEAVCBasePane@@@Z @ 4536 NONAME
 ?DockControlBar@CDockBar@@QEAAXPEAVCControlBar@@PEBUtagRECT@@@Z @ 4537 NONAME
 ?DockControlBar@CFrameWnd@@QEAAXPEAVCControlBar@@IPEBUtagRECT@@@Z @ 4538 NONAME
 ?DockControlBar@CFrameWnd@@QEAAXPEAVCControlBar@@PEAVCDockBar@@PEBUtagRECT@@@Z @ 4539 NONAME
 ?DockFrame@CMultiPaneFrameWnd@@UEAAHPEAVCPaneFrameWnd@@W4AFX_DOCK_METHOD@@@Z @ 4540 NONAME
 ?DockPane@CAutoHideDockSite@@UEAAXPEAVCPane@@W4AFX_DOCK_METHOD@@PEBUtagRECT@@@Z @ 4541 NONAME
 ?DockPane@CDockingManager@@QEAAXPEAVCBasePane@@IPEBUtagRECT@@@Z @ 4542 NONAME
 ?DockPane@CDockSite@@UEAAXPEAVCPane@@W4AFX_DOCK_METHOD@@PEBUtagRECT@@@Z @ 4543 NONAME
 ?DockPane@CFrameWndEx@@QEAAXPEAVCBasePane@@IPEBUtagRECT@@@Z @ 4544 NONAME
 ?DockPane@CMDIChildWndEx@@QEAAXPEAVCBasePane@@IPEBUtagRECT@@@Z @ 4545 NONAME
 ?DockPane@CMDIFrameWndEx@@QEAAXPEAVCBasePane@@IPEBUtagRECT@@@Z @ 4546 NONAME
 ?DockPane@CMultiPaneFrameWnd@@UEAAHPEAVCDockablePane@@@Z @ 4547 NONAME
 ?DockPane@COleCntrFrameWndEx@@QEAAXPEAVCBasePane@@IPEBUtagRECT@@@Z @ 4548 NONAME
 ?DockPane@COleDocIPFrameWndEx@@QEAAXPEAVCBasePane@@IPEBUtagRECT@@@Z @ 4549 NONAME
 ?DockPane@COleIPFrameWndEx@@QEAAXPEAVCBasePane@@IPEBUtagRECT@@@Z @ 4550 NONAME
 ?DockPane@CPane@@UEAAHPEAVCBasePane@@PEBUtagRECT@@W4AFX_DOCK_METHOD@@@Z @ 4551 NONAME
 ?DockPane@CPaneFrameWnd@@UEAAPEAVCDockablePane@@AEAH@Z @ 4552 NONAME
 ?DockPaneContainer@CDockablePane@@UEAAHAEAVCPaneContainerManager@@KW4AFX_DOCK_METHOD@@@Z @ 4553 NONAME
 ?DockPaneLeftOf@CDockingManager@@QEAAHPEAVCPane@@0@Z @ 4554 NONAME
 ?DockPaneLeftOf@CDockSite@@UEAAHPEAVCPane@@0@Z @ 4555 NONAME
 ?DockPaneLeftOf@CFrameWndEx@@QEAAHPEAVCPane@@0@Z @ 4556 NONAME
 ?DockPaneLeftOf@CMDIChildWndEx@@QEAAHPEAVCPane@@0@Z @ 4557 NONAME
 ?DockPaneLeftOf@CMDIFrameWndEx@@QEAAHPEAVCPane@@0@Z @ 4558 NONAME
 ?DockPaneLeftOf@COleCntrFrameWndEx@@QEAAHPEAVCPane@@0@Z @ 4559 NONAME
 ?DockPaneLeftOf@COleDocIPFrameWndEx@@QEAAHPEAVCPane@@0@Z @ 4560 NONAME
 ?DockPaneLeftOf@COleIPFrameWndEx@@QEAAHPEAVCPane@@0@Z @ 4561 NONAME
 ?DockPaneStandard@CDockablePane@@UEAAPEAVCPane@@AEAH@Z @ 4562 NONAME
 ?DockPaneStandard@CMultiPaneFrameWnd@@MEAAPEAVCDockablePane@@AEAH@Z @ 4563 NONAME
 ?DockPaneStandard@CPaneFrameWnd@@MEAAPEAVCDockablePane@@AEAH@Z @ 4564 NONAME
 ?DockPaneUsingRTTI@CBasePane@@QEAAXH@Z @ 4565 NONAME
 ?DockRecentPaneToMainFrame@CMultiPaneFrameWnd@@UEAAXPEAVCDockablePane@@@Z @ 4566 NONAME
 ?DockToFrameWindow@CDockablePane@@UEAAHKPEBUtagRECT@@KPEAVCBasePane@@HH@Z @ 4567 NONAME
 ?DockToWindow@CDockablePane@@UEAAHPEAV1@KPEBUtagRECT@@@Z @ 4568 NONAME
 ?DoClick@COleControl@@QEAAXXZ @ 4569 NONAME
 ?DoContextSensitiveHelp@COleFrameHook@@QEAAHH@Z @ 4570 NONAME
 ?DoConvert@COleConvertDialog@@QEAAHPEAVCOleClientItem@@@Z @ 4571 NONAME
 ?DocumentComplete@CHtmlView@@MEAAXPEAUIDispatch@@PEAUtagVARIANT@@@Z @ 4572 NONAME
 ?DoD2DPaint@CWnd@@IEAAHXZ @ 4573 NONAME
 ?DoDataExchange@CMFCColorDialog@@MEAAXPEAVCDataExchange@@@Z @ 4574 NONAME
 ?DoDataExchange@CMFCCustomColorsPropertyPage@@MEAAXPEAVCDataExchange@@@Z @ 4575 NONAME
 ?DoDataExchange@CMFCImageEditorDialog@@MEAAXPEAVCDataExchange@@@Z @ 4576 NONAME
 ?DoDataExchange@CMFCKeyMapDialog@@MEAAXPEAVCDataExchange@@@Z @ 4577 NONAME
 ?DoDataExchange@CMFCMousePropertyPage@@MEAAXPEAVCDataExchange@@@Z @ 4578 NONAME
 ?DoDataExchange@CMFCRibbonCustomizePropertyPage@@MEAAXPEAVCDataExchange@@@Z @ 4579 NONAME
 ?DoDataExchange@CMFCRibbonKeyboardCustomizeDialog@@MEAAXPEAVCDataExchange@@@Z @ 4580 NONAME
 ?DoDataExchange@CMFCStandardColorsPropertyPage@@MEAAXPEAVCDataExchange@@@Z @ 4581 NONAME
 ?DoDataExchange@CMFCToolBarButtonCustomizeDialog@@MEAAXPEAVCDataExchange@@@Z @ 4582 NONAME
 ?DoDataExchange@CMFCToolBarNameDialog@@MEAAXPEAVCDataExchange@@@Z @ 4583 NONAME
 ?DoDataExchange@CMFCToolBarsCommandsPropertyPage@@MEAAXPEAVCDataExchange@@@Z @ 4584 NONAME
 ?DoDataExchange@CMFCToolBarsKeyboardPropertyPage@@MEAAXPEAVCDataExchange@@@Z @ 4585 NONAME
 ?DoDataExchange@CMFCToolBarsListPropertyPage@@MEAAXPEAVCDataExchange@@@Z @ 4586 NONAME
 ?DoDataExchange@CMFCToolBarsMenuPropertyPage@@MEAAXPEAVCDataExchange@@@Z @ 4587 NONAME
 ?DoDataExchange@CMFCToolBarsOptionsPropertyPage@@MEAAXPEAVCDataExchange@@@Z @ 4588 NONAME
 ?DoDataExchange@CMFCToolBarsToolsPropertyPage@@MEAAXPEAVCDataExchange@@@Z @ 4589 NONAME
 ?DoDataExchange@CMFCWindowsManagerDialog@@MEAAXPEAVCDataExchange@@@Z @ 4590 NONAME
 ?DoDataExchange@COutlookOptionsDlg@@MEAAXPEAVCDataExchange@@@Z @ 4591 NONAME
 ?DoDataExchange@CWnd@@MEAAXPEAVCDataExchange@@@Z @ 4592 NONAME
 ?DoDefault@CMFCShellListCtrl@@MEAAXH@Z @ 4593 NONAME
 ?DoDefaultPrinting@COleDocObjectItem@@SAJPEAVCView@@PEAUCPrintInfo@@@Z @ 4594 NONAME
 ?DoDragDrop@COleClientItem@@QEAAKPEBUtagRECT@@VCPoint@@HK0@Z @ 4595 NONAME
 ?DoDragDrop@COleDataSource@@QEAAKKPEBUtagRECT@@PEAVCOleDropSource@@@Z @ 4596 NONAME
 ?DoDragDrop@COleServerItem@@QEAAKPEBUtagRECT@@VCPoint@@HK0@Z @ 4597 NONAME
 ?DoDrawHeaderSortArrow@CMFCVisualManager@@QEAAXPEAVCDC@@VCRect@@HH@Z @ 4598 NONAME
 ?DoEnableModeless@COleFrameHook@@QEAAHH@Z @ 4599 NONAME
 ?DoEnableModeless@CWinApp@@SAXH@Z @ 4600 NONAME
 ?DoEndPrinting@CDocObjectServer@@IEAAXPEAVCView@@PEAVCDC@@PEAUCPrintInfo@@@Z @ 4601 NONAME
 ?DoesAllowDynInsertBefore@CPaneContainerManager@@UEBAHXZ @ 4602 NONAME
 ?DoesAllowDynInsertBefore@CPaneDivider@@UEBAHXZ @ 4603 NONAME
 ?DoesContainFloatingPane@CPaneContainerManager@@UEAAHXZ @ 4604 NONAME
 ?DoesContainFloatingPane@CPaneDivider@@UEAAHXZ @ 4605 NONAME
 ?DoFieldExchange@CRecordset@@UEAAXPEAVCFieldExchange@@@Z @ 4606 NONAME
 ?DoFileSave@CDocument@@UEAAHXZ @ 4607 NONAME
 ?DoKeyboardSplit@CSplitterWnd@@UEAAHXZ @ 4608 NONAME
 ?DoMessageBox@CWinApp@@UEAAHPEB_WII@Z @ 4609 NONAME
 ?DoModal@CColorDialog@@UEAA_JXZ @ 4610 NONAME
 ?DoModal@CDialog@@UEAA_JXZ @ 4611 NONAME
 ?DoModal@CFileDialog@@UEAA_JXZ @ 4612 NONAME
 ?DoModal@CFontDialog@@UEAA_JXZ @ 4613 NONAME
 ?DoModal@COleBusyDialog@@UEAA_JXZ @ 4614 NONAME
 ?DoModal@COleChangeIconDialog@@UEAA_JXZ @ 4615 NONAME
 ?DoModal@COleChangeSourceDialog@@UEAA_JXZ @ 4616 NONAME
 ?DoModal@COleConvertDialog@@UEAA_JXZ @ 4617 NONAME
 ?DoModal@COleInsertDialog@@QEAA_JK@Z @ 4618 NONAME
 ?DoModal@COleInsertDialog@@UEAA_JXZ @ 4619 NONAME
 ?DoModal@COleLinksDialog@@UEAA_JXZ @ 4620 NONAME
 ?DoModal@COlePasteSpecialDialog@@UEAA_JXZ @ 4621 NONAME
 ?DoModal@COlePropertiesDialog@@UEAA_JXZ @ 4622 NONAME
 ?DoModal@COleUpdateDialog@@UEAA_JXZ @ 4623 NONAME
 ?DoModal@CPageSetupDialog@@UEAA_JXZ @ 4624 NONAME
 ?DoModal@CPrintDialog@@UEAA_JXZ @ 4625 NONAME
 ?DoModal@CPrintDialogEx@@UEAA_JXZ @ 4626 NONAME
 ?DoModal@CPropertySheet@@UEAA_JXZ @ 4627 NONAME
 ?DoModal@CTaskDialog@@QEAA_JPEAUHWND__@@@Z @ 4628 NONAME
 ?DoMouseWheel@CScrollView@@QEAAHIFVCPoint@@@Z @ 4629 NONAME
 ?DoOleVerb@CCmdTarget@@QEAAHJPEAUtagMSG@@PEAUHWND__@@PEBUtagRECT@@@Z @ 4630 NONAME
 ?DoPaint@CBasePane@@MEAAXPEAVCDC@@@Z @ 4631 NONAME
 ?DoPaint@CControlBar@@UEAAXPEAVCDC@@@Z @ 4632 NONAME
 ?DoPaint@CDockBar@@UEAAXPEAVCDC@@@Z @ 4633 NONAME
 ?DoPaint@CMFCAutoHideBar@@MEAAXPEAVCDC@@@Z @ 4634 NONAME
 ?DoPaint@CMFCColorBar@@MEAAXPEAVCDC@@@Z @ 4635 NONAME
 ?DoPaint@CMFCOutlookBarPane@@MEAAXPEAVCDC@@@Z @ 4636 NONAME
 ?DoPaint@CMFCPopupMenu@@MEAAXPEAVCDC@@@Z @ 4637 NONAME
 ?DoPaint@CMFCPreviewCtrlImpl@@MEAAXPEAVCPaintDC@@@Z @ 4638 NONAME
 ?DoPaint@CMFCRibbonMainPanel@@MEAAXPEAVCDC@@@Z @ 4639 NONAME
 ?DoPaint@CMFCRibbonPanel@@MEAAXPEAVCDC@@@Z @ 4640 NONAME
 ?DoPaint@CMFCRibbonPanelMenu@@MEAAXPEAVCDC@@@Z @ 4641 NONAME
 ?DoPaint@CMFCRibbonPanelMenuBar@@UEAAXPEAVCDC@@@Z @ 4642 NONAME
 ?DoPaint@CMFCStatusBar@@MEAAXPEAVCDC@@@Z @ 4643 NONAME
 ?DoPaint@CMFCTasksPane@@MEAAXPEAVCDC@@@Z @ 4644 NONAME
 ?DoPaint@CMFCToolBar@@MEAAXPEAVCDC@@@Z @ 4645 NONAME
 ?DoPaste@CRichEditView@@QEAAXAEAVCOleDataObject@@GPEAX@Z @ 4646 NONAME
 ?DoPrepareDC@CDocObjectServer@@IEAAXPEAVCView@@PEAVCDC@@PEAUCPrintInfo@@@Z @ 4647 NONAME
 ?DoPreparePrinting@CDocObjectServer@@IEAAHPEAVCView@@PEAUCPrintInfo@@@Z @ 4648 NONAME
 ?DoPreparePrinting@CView@@QEAAHPEAUCPrintInfo@@@Z @ 4649 NONAME
 ?DoPreview@XPreviewHandler@CDocument@@UEAAJXZ @ 4650 NONAME
 ?DoPrint@CDocObjectServer@@IEAAXPEAVCView@@PEAVCDC@@PEAUCPrintInfo@@@Z @ 4651 NONAME
 ?DoPrintDialog@CWinApp@@QEAA_JPEAVCPrintDialog@@@Z @ 4652 NONAME
 ?DoPrintPreview@CView@@QEAAHIPEAV1@PEAUCRuntimeClass@@PEAUCPrintPreviewState@@@Z @ 4653 NONAME
 ?DoPromptFileName@CDocManager@@UEAAHAEAV?$CStringT@_WV?$StrTraitMFC_DLL@_WV?$ChTraitsCRT@_W@ATL@@@@@ATL@@IKHPEAVCDocTemplate@@@Z @ 4654 NONAME
 ?DoPromptFileName@CWinApp@@QEAAHAEAV?$CStringT@_WV?$StrTraitMFC_DLL@_WV?$ChTraitsCRT@_W@ATL@@@@@ATL@@IKHPEAVCDocTemplate@@@Z @ 4655 NONAME
 ?DoPropExchange@COleControl@@UEAAXPEAVCPropExchange@@@Z @ 4656 NONAME
 ?DoSave@CDocument@@UEAAHPEB_WH@Z @ 4657 NONAME
 ?DoSave@COleDocument@@UEAAHPEB_WH@Z @ 4658 NONAME
 ?DoScroll@CSplitterWnd@@UEAAHPEAVCView@@IH@Z @ 4659 NONAME
 ?DoScrollBy@CSplitterWnd@@UEAAHPEAVCView@@VCSize@@H@Z @ 4660 NONAME
 ?DoSuperclassPaint@COleControl@@QEAAXPEAVCDC@@AEBVCRect@@@Z @ 4661 NONAME
 ?DoUpdate@CCmdUI@@QEAAHPEAVCCmdTarget@@H@Z @ 4662 NONAME
 ?DoUpdate@CMFCMaskedEdit@@AEAAHHHH@Z @ 4663 NONAME
 ?DoUpdate@COleCmdUI@@UEAAHPEAVCCmdTarget@@H@Z @ 4664 NONAME
 ?DoVerb@COleClientItem@@UEAAHJPEAVCView@@PEAUtagMSG@@@Z @ 4665 NONAME
 ?DoVerb@COleControlSite@@UEAAJJPEAUtagMSG@@@Z @ 4666 NONAME
 ?DoVerb@XOleObject@CDocObjectServer@@UEAAJJPEAUtagMSG@@PEAUIOleClientSite@@JPEAUHWND__@@PEBUtagRECT@@@Z @ 4667 NONAME
 ?DoVerb@XOleObject@COleControl@@UEAAJJPEAUtagMSG@@PEAUIOleClientSite@@JPEAUHWND__@@PEBUtagRECT@@@Z @ 4668 NONAME
 ?DoVerb@XOleObject@COleServerDoc@@UEAAJJPEAUtagMSG@@PEAUIOleClientSite@@JPEAUHWND__@@PEBUtagRECT@@@Z @ 4669 NONAME
 ?DoVerb@XOleObject@COleServerItem@@UEAAJJPEAUtagMSG@@PEAUIOleClientSite@@JPEAUHWND__@@PEBUtagRECT@@@Z @ 4670 NONAME
 ?DoWaitCursor@CWinApp@@UEAAXH@Z @ 4671 NONAME
 ?DoZoom@CPreviewView@@IEAAXIVCPoint@@@Z @ 4672 NONAME
 ?DPtoHIMETRIC@CDC@@QEBAXPEAUtagSIZE@@@Z @ 4673 NONAME
 ?DPtoLP@CDC@@QEBAXPEAUtagPOINT@@H@Z @ 4674 NONAME
 ?DPtoLP@CDC@@QEBAXPEAUtagRECT@@@Z @ 4675 NONAME
 ?DPtoLP@CDC@@QEBAXPEAUtagSIZE@@@Z @ 4676 NONAME
 ?DragAcceptFiles@CWnd@@QEAAXH@Z @ 4677 NONAME
 ?DragDetect@CWnd@@QEBAHUtagPOINT@@@Z @ 4678 NONAME
 ?DragEnter@CImageList@@SAHPEAVCWnd@@VCPoint@@@Z @ 4679 NONAME
 ?DragEnter@XDropTarget@COleDropTarget@@UEAAJPEAUIDataObject@@KU_POINTL@@PEAK@Z @ 4680 NONAME
 ?Dragging@CDragListBox@@UEAAIVCPoint@@@Z @ 4681 NONAME
 ?DragLeave@CImageList@@SAHPEAVCWnd@@@Z @ 4682 NONAME
 ?DragLeave@XDropTarget@COleDropTarget@@UEAAJXZ @ 4683 NONAME
 ?DragMove@CImageList@@SAHVCPoint@@@Z @ 4684 NONAME
 ?DragMove@CReBarCtrl@@QEAAXK@Z @ 4685 NONAME
 ?DragOver@XDropTarget@COleDropTarget@@UEAAJKU_POINTL@@PEAK@Z @ 4686 NONAME
 ?DragShowNolock@CImageList@@SAHH@Z @ 4687 NONAME
 ?Draw@CImageList@@QEAAHPEAVCDC@@HUtagPOINT@@I@Z @ 4688 NONAME
 ?Draw@CMenuImages@@SAXPEAVCDC@@W4IMAGES_IDS@1@AEBVCPoint@@W4IMAGE_STATE@1@AEBVCSize@@@Z @ 4689 NONAME
 ?Draw@CMenuImages@@SAXPEAVCDC@@W4IMAGES_IDS@1@AEBVCRect@@W4IMAGE_STATE@1@AEBVCSize@@@Z @ 4690 NONAME
 ?Draw@CMFCControlRenderer@@UEAAXPEAVCDC@@VCRect@@IE@Z @ 4691 NONAME
 ?Draw@CMFCShadowRenderer@@UEAAXPEAVCDC@@VCRect@@IE@Z @ 4692 NONAME
 ?Draw@CMFCToolBarImages@@QEAAHPEAVCDC@@HHHHHHHHE@Z @ 4693 NONAME
 ?Draw@CMFCVisualManagerBitmapCacheItem@CMFCVisualManagerBitmapCache@@QEAAXPEAVCDC@@VCRect@@HE@Z @ 4694 NONAME
 ?Draw@COleClientItem@@QEAAHPEAVCDC@@PEBUtagRECT@@W4tagDVASPECT@@@Z @ 4695 NONAME
 ?Draw@CRectTracker@@QEBAXPEAVCDC@@@Z @ 4696 NONAME
 ?Draw@CSmartDockingGroupGuide@@MEAAXAEAVCDC@@H@Z @ 4697 NONAME
 ?Draw@XViewObject@COleControl@@UEAAJKJPEAXPEAUtagDVTARGETDEVICE@@PEAUHDC__@@2PEBU_RECTL@@3P6AH_K@Z4@Z @ 4698 NONAME
 ?Draw3dRect@CDC@@QEAAXHHHHKK@Z @ 4699 NONAME
 ?Draw3dRect@CDC@@QEAAXPEBUtagRECT@@KK@Z @ 4700 NONAME
 ?Draw3DTab@CMFCTabCtrl@@MEAAXPEAVCDC@@PEAVCMFCTabInfo@@H@Z @ 4701 NONAME
 ?DrawAllSplitBars@CSplitterWnd@@MEAAXPEAVCDC@@HH@Z @ 4702 NONAME
 ?DrawAlpha@CDrawingManager@@QEAAXPEAVCDC@@AEBVCRect@@01@Z @ 4703 NONAME
 ?DrawAnimatedRects@CWnd@@QEAAHHPEBUtagRECT@@0@Z @ 4704 NONAME
 ?DrawAnimation@CMFCDesktopAlertWnd@@IEAAXPEAVCDC@@@Z @ 4705 NONAME
 ?DrawApplicationButton@CMFCRibbonMainPanel@@IEAAXPEAVCDC@@PEAVCWnd@@@Z @ 4706 NONAME
 ?DrawBitmap@CRenderTarget@@QEAAXPEAVCD2DBitmap@@AEBVCD2DRectF@@MW4D2D1_BITMAP_INTERPOLATION_MODE@@PEBV3@@Z @ 4707 NONAME
 ?DrawBorder@CMFCButton@@IEAAXPEAVCDC@@AEAVCRect@@I@Z @ 4708 NONAME
 ?DrawBorders@CControlBar@@UEAAXPEAVCDC@@AEAVCRect@@@Z @ 4709 NONAME
 ?DrawBottomText@CMFCRibbonButton@@QEAA?AVCSize@@PEAVCDC@@H@Z @ 4710 NONAME
 ?DrawButton@CMFCToolBar@@MEAAHPEAVCDC@@PEAVCMFCToolBarButton@@PEAVCMFCToolBarImages@@HH@Z @ 4711 NONAME
 ?DrawCaption@CDockablePane@@MEAAXPEAVCDC@@VCRect@@@Z @ 4712 NONAME
 ?DrawCaption@CMFCTasksPane@@MEAAXPEAVCDC@@VCRect@@@Z @ 4713 NONAME
 ?DrawCaption@CWnd@@QEAAHPEAVCDC@@PEBUtagRECT@@I@Z @ 4714 NONAME
 ?DrawCentralGroupGuides@CSmartDockingGroupGuidesManager@@IEAAXAEAVCDC@@AEAVCBrush@@1VCRect@@@Z @ 4715 NONAME
 ?DrawCheckBox@CMFCBaseVisualManager@@UEAAHPEAVCDC@@VCRect@@HHHH@Z @ 4716 NONAME
 ?DrawCheckBox@CMFCCustomizeMenuButton@@MEAAXPEAVCDC@@AEBVCRect@@H@Z @ 4717 NONAME
 ?DrawComboBorder@CMFCBaseVisualManager@@UEAAHPEAVCDC@@VCRect@@HHH@Z @ 4718 NONAME
 ?DrawComboDropButton@CMFCBaseVisualManager@@UEAAHPEAVCDC@@VCRect@@HHH@Z @ 4719 NONAME
 ?DrawContent@COleControl@@IEAAXPEAVCDC@@AEAVCRect@@@Z @ 4720 NONAME
 ?DrawCursor@CMFCColorPickerCtrl@@MEAAXPEAVCDC@@AEBVCRect@@@Z @ 4721 NONAME
 ?DrawCustomizeButton@CMFCVisualManagerOffice2003@@UEAAXPEAVCDC@@VCRect@@HW4AFX_BUTTON_STATE@CMFCVisualManager@@HH@Z @ 4722 NONAME
 ?DrawDocumentIcon@CMFCToolBarMenuButton@@IEAAXPEAVCDC@@AEBVCRect@@PEAUHICON__@@@Z @ 4723 NONAME
 ?DrawDragCursor@CMFCPopupMenuBar@@MEAAXPEAVCDC@@@Z @ 4724 NONAME
 ?DrawDragCursor@CMFCToolBar@@MEAAXPEAVCDC@@@Z @ 4725 NONAME
 ?DrawDragFrame@CMFCDragFrameImpl@@IEAAXPEBUtagRECT@@0HHH@Z @ 4726 NONAME
 ?DrawDragRect@CDC@@QEAAXPEBUtagRECT@@UtagSIZE@@01PEAVCBrush@@2@Z @ 4727 NONAME
 ?DrawEdge@CDC@@QEAAHPEAUtagRECT@@II@Z @ 4728 NONAME
 ?DrawEllipse@CDrawingManager@@QEAAXAEBVCRect@@KK@Z @ 4729 NONAME
 ?DrawEllipse@CRenderTarget@@QEAAXAEBVCD2DEllipse@@PEAVCD2DBrush@@MPEAUID2D1StrokeStyle@@@Z @ 4730 NONAME
 ?DrawEscape@CDC@@QEAAHHHPEBD@Z @ 4731 NONAME
 ?DrawEx@CImageList@@QEAAHPEAVCDC@@HUtagPOINT@@UtagSIZE@@KKI@Z @ 4732 NONAME
 ?DrawEx@CMFCToolBarImages@@QEAAHPEAVCDC@@VCRect@@HW4ImageAlignHorz@1@W4ImageAlignVert@1@1E@Z @ 4733 NONAME
 ?DrawFade@CMFCPopupMenu@@MEAAXPEAVCDC@@@Z @ 4734 NONAME
 ?DrawFlatTab@CMFCTabCtrl@@MEAAXPEAVCDC@@PEAVCMFCTabInfo@@H@Z @ 4735 NONAME
 ?DrawFocusRect@CDC@@QEAAXPEBUtagRECT@@@Z @ 4736 NONAME
 ?DrawFocusRect@CDockContext@@QEAAXH@Z @ 4737 NONAME
 ?DrawFrame@CMFCControlRenderer@@UEAAXPEAVCDC@@VCRect@@IE@Z @ 4738 NONAME
 ?DrawFrame@CMFCShadowRenderer@@UEAAXPEAVCDC@@VCRect@@IE@Z @ 4739 NONAME
 ?DrawFrameControl@CDC@@QEAAHPEAUtagRECT@@II@Z @ 4740 NONAME
 ?DrawFrameTab@CMFCDragFrameImpl@@IEAAXPEAVCDockablePane@@H@Z @ 4741 NONAME
 ?DrawGeometry@CRenderTarget@@QEAAXPEAVCD2DGeometry@@PEAVCD2DBrush@@MPEAUID2D1StrokeStyle@@@Z @ 4742 NONAME
 ?DrawGlyphRun@CRenderTarget@@QEAAXAEBVCD2DPointF@@AEBUDWRITE_GLYPH_RUN@@PEAVCD2DBrush@@W4DWRITE_MEASURING_MODE@@@Z @ 4743 NONAME
 ?DrawGradientRing@CDrawingManager@@QEAAHVCRect@@KKKHHK@Z @ 4744 NONAME
 ?DrawGripper@CControlBar@@UEAAXPEAVCDC@@AEBVCRect@@@Z @ 4745 NONAME
 ?DrawHex@CMFCColorPickerCtrl@@IEAAXPEAVCDC@@@Z @ 4746 NONAME
 ?DrawIcon@CDC@@QEAAHHHPEAUHICON__@@@Z @ 4747 NONAME
 ?DrawIcon@CDC@@QEAAHUtagPOINT@@PEAUHICON__@@@Z @ 4748 NONAME
 ?DrawImage@CMFCRibbonApplicationButton@@MEAAXPEAVCDC@@W4RibbonImageType@CMFCRibbonBaseElement@@VCRect@@@Z @ 4749 NONAME
 ?DrawImage@CMFCRibbonButton@@UEAAXPEAVCDC@@W4RibbonImageType@CMFCRibbonBaseElement@@VCRect@@@Z @ 4750 NONAME
 ?DrawImage@CMFCRibbonColorButton@@MEAAXPEAVCDC@@W4RibbonImageType@CMFCRibbonBaseElement@@VCRect@@@Z @ 4751 NONAME
 ?DrawImage@CMFCRibbonDefaultPanelButton@@UEAAXPEAVCDC@@W4RibbonImageType@CMFCRibbonBaseElement@@VCRect@@@Z @ 4752 NONAME
 ?DrawIndirect@CImageList@@QEAAHPEAU_IMAGELISTDRAWPARAMS@@@Z @ 4753 NONAME
 ?DrawIndirect@CImageList@@QEAAHPEAVCDC@@HUtagPOINT@@UtagSIZE@@1IKKKKKK@Z @ 4754 NONAME
 ?DrawInsert@CDragListBox@@UEAAXH@Z @ 4755 NONAME
 ?DrawItem@CBitmapButton@@MEAAXPEAUtagDRAWITEMSTRUCT@@@Z @ 4756 NONAME
 ?DrawItem@CButton@@UEAAXPEAUtagDRAWITEMSTRUCT@@@Z @ 4757 NONAME
 ?DrawItem@CCheckListBox@@UEAAXPEAUtagDRAWITEMSTRUCT@@@Z @ 4758 NONAME
 ?DrawItem@CChevronOwnerDrawMenu@@UEAAXPEAUtagDRAWITEMSTRUCT@@@Z @ 4759 NONAME
 ?DrawItem@CComboBox@@UEAAXPEAUtagDRAWITEMSTRUCT@@@Z @ 4760 NONAME
 ?DrawItem@CHeaderCtrl@@UEAAXPEAUtagDRAWITEMSTRUCT@@@Z @ 4761 NONAME
 ?DrawItem@CListBox@@UEAAXPEAUtagDRAWITEMSTRUCT@@@Z @ 4762 NONAME
 ?DrawItem@CListCtrl@@UEAAXPEAUtagDRAWITEMSTRUCT@@@Z @ 4763 NONAME
 ?DrawItem@CListView@@UEAAXPEAUtagDRAWITEMSTRUCT@@@Z @ 4764 NONAME
 ?DrawItem@CMenu@@UEAAXPEAUtagDRAWITEMSTRUCT@@@Z @ 4765 NONAME
 ?DrawItem@CMFCButton@@UEAAXPEAUtagDRAWITEMSTRUCT@@@Z @ 4766 NONAME
 ?DrawItem@CMFCColorPickerCtrl@@MEAAXPEAUtagDRAWITEMSTRUCT@@@Z @ 4767 NONAME
 ?DrawItem@CMFCFontComboBox@@UEAAXPEAUtagDRAWITEMSTRUCT@@@Z @ 4768 NONAME
 ?DrawItem@CMFCImagePaintArea@@MEAAXPEAUtagDRAWITEMSTRUCT@@@Z @ 4769 NONAME
 ?DrawItem@CMFCPropertySheetListBox@@EEAAXPEAUtagDRAWITEMSTRUCT@@@Z @ 4770 NONAME
 ?DrawItem@CMFCRibbonCommandsListBox@@MEAAXPEAUtagDRAWITEMSTRUCT@@@Z @ 4771 NONAME
 ?DrawItem@CMFCToolBarButtonsListButton@@UEAAXPEAUtagDRAWITEMSTRUCT@@@Z @ 4772 NONAME
 ?DrawItem@CMFCToolBarsCommandsListBox@@UEAAXPEAUtagDRAWITEMSTRUCT@@@Z @ 4773 NONAME
 ?DrawItem@CStatic@@UEAAXPEAUtagDRAWITEMSTRUCT@@@Z @ 4774 NONAME
 ?DrawItem@CStatusBar@@UEAAXPEAUtagDRAWITEMSTRUCT@@@Z @ 4775 NONAME
 ?DrawItem@CStatusBarCtrl@@UEAAXPEAUtagDRAWITEMSTRUCT@@@Z @ 4776 NONAME
 ?DrawItem@CTabCtrl@@UEAAXPEAUtagDRAWITEMSTRUCT@@@Z @ 4777 NONAME
 ?DrawLine@CDrawingManager@@QEAAXHHHHK@Z @ 4778 NONAME
 ?DrawLine@CRenderTarget@@QEAAXAEBVCD2DPointF@@0PEAVCD2DBrush@@MPEAUID2D1StrokeStyle@@@Z @ 4779 NONAME
 ?DrawLineA@CDrawingManager@@QEAAXNNNNK@Z @ 4780 NONAME
 ?DrawLuminanceBar@CMFCColorPickerCtrl@@IEAAXPEAVCDC@@@Z @ 4781 NONAME
 ?DrawMenuBar@CWnd@@QEAAXXZ @ 4782 NONAME
 ?DrawMenuImage@CMFCRibbonBar@@QEAAHPEAVCDC@@PEBVCMFCToolBarMenuButton@@AEBVCRect@@@Z @ 4783 NONAME
 ?DrawMenuItem@CMFCToolBarMenuButton@@IEAAXPEAVCDC@@AEBVCRect@@PEAVCMFCToolBarImages@@HHHH@Z @ 4784 NONAME
 ?DrawMetafile@COleControl@@IEAAXPEAVCDC@@AEAVCRect@@@Z @ 4785 NONAME
 ?DrawNcArea@CMFCControlBarImpl@@IEAAXXZ @ 4786 NONAME
 ?DrawNcBtn@CMFCVisualManagerOffice2007@@IEAAXPEAVCDC@@AEBVCRect@@IW4AFX_BUTTON_STATE@CMFCVisualManager@@HHH@Z @ 4787 NONAME
 ?DrawNcBtn@CMFCVisualManagerWindows7@@UEAAXPEAVCDC@@AEBVCRect@@IW4AFX_BUTTON_STATE@CMFCVisualManager@@HHH@Z @ 4788 NONAME
 ?DrawNcCaption@CMFCVisualManagerOffice2007@@IEAAXPEAVCDC@@VCRect@@KKAEBV?$CStringT@_WV?$StrTraitMFC_DLL@_WV?$ChTraitsCRT@_W@ATL@@@@@ATL@@2PEAUHICON__@@HHHAEBVCObList@@@Z @ 4789 NONAME
 ?DrawNCGripper@CControlBar@@UEAAXPEAVCDC@@AEBVCRect@@@Z @ 4790 NONAME
 ?DrawNcText@CMFCVisualManagerOffice2007@@IEAAXPEAVCDC@@AEAVCRect@@AEBV?$CStringT@_WV?$StrTraitMFC_DLL@_WV?$ChTraitsCRT@_W@ATL@@@@@ATL@@2HHHHHHK@Z @ 4791 NONAME
 ?DrawNcText@CMFCVisualManagerWindows7@@UEAAXPEAVCDC@@AEAVCRect@@AEBV?$CStringT@_WV?$StrTraitMFC_DLL@_WV?$ChTraitsCRT@_W@ATL@@@@@ATL@@HHHHHK@Z @ 4792 NONAME
 ?DrawNewGroupRect@CMDIClientAreaWnd@@AEAAXPEBUtagRECT@@0@Z @ 4793 NONAME
 ?DrawNonThemedGripper@CControlBar@@UEAAHPEAVCDC@@AEBVCRect@@@Z @ 4794 NONAME
 ?DrawParentBackground@AFX_GLOBAL_DATA@@QEAAHPEAVCWnd@@PEAVCDC@@PEAUtagRECT@@@Z @ 4795 NONAME
 ?DrawPicker@CMFCColorPickerCtrl@@IEAAXPEAVCDC@@@Z @ 4796 NONAME
 ?DrawPixel@CMFCImagePaintArea@@IEAAXUtagPOINT@@@Z @ 4797 NONAME
 ?DrawPushButton@CMFCBaseVisualManager@@UEAAHPEAVCDC@@VCRect@@PEAVCMFCButton@@I@Z @ 4798 NONAME
 ?DrawRadioButton@CMFCBaseVisualManager@@UEAAHPEAVCDC@@VCRect@@HHHH@Z @ 4799 NONAME
 ?DrawRect@CDrawingManager@@QEAAXAEBVCRect@@KK@Z @ 4800 NONAME
 ?DrawRectangle@CRenderTarget@@QEAAXAEBVCD2DRectF@@PEAVCD2DBrush@@MPEAUID2D1StrokeStyle@@@Z @ 4801 NONAME
 ?DrawResizeDragRect@CMFCTabCtrl@@MEAAXAEAVCRect@@0@Z @ 4802 NONAME
 ?DrawRibbonText@CMFCRibbonButton@@UEAAHPEAVCDC@@AEBV?$CStringT@_WV?$StrTraitMFC_DLL@_WV?$ChTraitsCRT@_W@ATL@@@@@ATL@@VCRect@@IK@Z @ 4803 NONAME
 ?DrawRibbonText@CMFCRibbonStatusBarPane@@MEAAHPEAVCDC@@AEBV?$CStringT@_WV?$StrTraitMFC_DLL@_WV?$ChTraitsCRT@_W@ATL@@@@@ATL@@VCRect@@IK@Z @ 4804 NONAME
 ?DrawRotated@CDrawingManager@@QEAAXVCRect@@AEAVCDC@@H@Z @ 4805 NONAME
 ?DrawRoundedRectangle@CRenderTarget@@QEAAXAEBVCD2DRoundedRect@@PEAVCD2DBrush@@MPEAUID2D1StrokeStyle@@@Z @ 4806 NONAME
 ?DrawSeparator@CMFCPopupMenuBar@@MEAAXPEAVCDC@@AEBVCRect@@H@Z @ 4807 NONAME
 ?DrawSeparator@CMFCToolBar@@MEAAXPEAVCDC@@AEBVCRect@@H@Z @ 4808 NONAME
 ?DrawSeparator@CMFCVisualManagerOffice2007@@IEAAXPEAVCDC@@AEBVCRect@@AEAVCPen@@2H@Z @ 4809 NONAME
 ?DrawSeparator@CMFCVisualManagerOffice2007@@IEAAXPEAVCDC@@AEBVCRect@@H@Z @ 4810 NONAME
 ?DrawSeparator@CMFCVisualManagerWindows7@@UEAAXPEAVCDC@@AEBVCRect@@AEAVCPen@@2H@Z @ 4811 NONAME
 ?DrawShadow@CDrawingManager@@QEAAHVCRect@@HHHPEAVCBitmap@@1KH@Z @ 4812 NONAME
 ?DrawSingle@CDragListBox@@QEAAXH@Z @ 4813 NONAME
 ?DrawState@CDC@@QEAAHVCPoint@@VCSize@@P6AHPEAUHDC__@@_J_KHH@Z3IPEAUHBRUSH__@@@Z @ 4814 NONAME
 ?DrawState@CDC@@QEAAHVCPoint@@VCSize@@P6AHPEAUHDC__@@_J_KHH@Z3IPEAVCBrush@@@Z @ 4815 NONAME
 ?DrawState@CDC@@QEAAHVCPoint@@VCSize@@PEAUHBITMAP__@@IPEAUHBRUSH__@@@Z @ 4816 NONAME
 ?DrawState@CDC@@QEAAHVCPoint@@VCSize@@PEAUHICON__@@IPEAUHBRUSH__@@@Z @ 4817 NONAME
 ?DrawState@CDC@@QEAAHVCPoint@@VCSize@@PEAUHICON__@@IPEAVCBrush@@@Z @ 4818 NONAME
 ?DrawState@CDC@@QEAAHVCPoint@@VCSize@@PEAVCBitmap@@IPEAVCBrush@@@Z @ 4819 NONAME
 ?DrawState@CDC@@QEAAHVCPoint@@VCSize@@PEB_WIHHPEAUHBRUSH__@@@Z @ 4820 NONAME
 ?DrawState@CDC@@QEAAHVCPoint@@VCSize@@PEB_WIHHPEAVCBrush@@@Z @ 4821 NONAME
 ?DrawStatusBarProgress@CMFCBaseVisualManager@@UEAAHPEAVCDC@@PEAVCMFCStatusBar@@VCRect@@HHKKKH@Z @ 4822 NONAME
 ?DrawTabButton@CMFCOutlookBarTabCtrl@@IEAAXAEAVCDC@@HH@Z @ 4823 NONAME
 ?DrawText@CDC@@QEAAHAEBV?$CStringT@_WV?$StrTraitMFC_DLL@_WV?$ChTraitsCRT@_W@ATL@@@@@ATL@@PEAUtagRECT@@I@Z @ 4824 NONAME
 ?DrawText@CDC@@QEAAHPEB_WHPEAUtagRECT@@I@Z @ 4825 NONAME
 ?DrawText@CMetaFileDC@@QEAAHAEBV?$CStringT@_WV?$StrTraitMFC_DLL@_WV?$ChTraitsCRT@_W@ATL@@@@@ATL@@PEAUtagRECT@@I@Z @ 4826 NONAME
 ?DrawText@CMetaFileDC@@QEAAHPEB_WHPEAUtagRECT@@I@Z @ 4827 NONAME
 ?DrawTextEx@CDC@@QEAAHAEBV?$CStringT@_WV?$StrTraitMFC_DLL@_WV?$ChTraitsCRT@_W@ATL@@@@@ATL@@PEAUtagRECT@@IPEAUtagDRAWTEXTPARAMS@@@Z @ 4828 NONAME
 ?DrawTextEx@CDC@@QEAAHPEA_WHPEAUtagRECT@@IPEAUtagDRAWTEXTPARAMS@@@Z @ 4829 NONAME
 ?DrawTextEx@CMetaFileDC@@QEAAHAEBV?$CStringT@_WV?$StrTraitMFC_DLL@_WV?$ChTraitsCRT@_W@ATL@@@@@ATL@@PEAUtagRECT@@IPEAUtagDRAWTEXTPARAMS@@@Z @ 4830 NONAME
 ?DrawTextEx@CMetaFileDC@@QEAAHPEA_WHPEAUtagRECT@@IPEAUtagDRAWTEXTPARAMS@@@Z @ 4831 NONAME
 ?DrawTextExW@CDC@@QEAAHAEBV?$CStringT@_WV?$StrTraitMFC_DLL@_WV?$ChTraitsCRT@_W@ATL@@@@@ATL@@PEAUtagRECT@@IPEAUtagDRAWTEXTPARAMS@@@Z @ 4832 NONAME
 ?DrawTextExW@CDC@@UEAAHPEA_WHPEAUtagRECT@@IPEAUtagDRAWTEXTPARAMS@@@Z @ 4833 NONAME
 ?DrawTextExW@CMetaFileDC@@QEAAHAEBV?$CStringT@_WV?$StrTraitMFC_DLL@_WV?$ChTraitsCRT@_W@ATL@@@@@ATL@@PEAUtagRECT@@IPEAUtagDRAWTEXTPARAMS@@@Z @ 4834 NONAME
 ?DrawTextExW@CMetaFileDC@@UEAAHPEA_WHPEAUtagRECT@@IPEAUtagDRAWTEXTPARAMS@@@Z @ 4835 NONAME
 ?DrawTextExW@CPreviewDC@@UEAAHPEA_WHPEAUtagRECT@@IPEAUtagDRAWTEXTPARAMS@@@Z @ 4836 NONAME
 ?DrawTextLayout@CRenderTarget@@QEAAXAEBVCD2DPointF@@PEAVCD2DTextLayout@@PEAVCD2DBrush@@W4D2D1_DRAW_TEXT_OPTIONS@@@Z @ 4837 NONAME
 ?DrawTextOnGlass@AFX_GLOBAL_DATA@@QEAAHPEAXPEAVCDC@@HHV?$CStringT@_WV?$StrTraitMFC_DLL@_WV?$ChTraitsCRT@_W@ATL@@@@@ATL@@VCRect@@KHK@Z @ 4838 NONAME
 ?DrawTextOnGlass@CMFCVisualManager@@UEAAHPEAVCDC@@V?$CStringT@_WV?$StrTraitMFC_DLL@_WV?$ChTraitsCRT@_W@ATL@@@@@ATL@@VCRect@@KHK@Z @ 4839 NONAME
 ?DrawTextW@CDC@@QEAAHAEBV?$CStringT@_WV?$StrTraitMFC_DLL@_WV?$ChTraitsCRT@_W@ATL@@@@@ATL@@PEAUtagRECT@@I@Z @ 4840 NONAME
 ?DrawTextW@CDC@@UEAAHPEB_WHPEAUtagRECT@@I@Z @ 4841 NONAME
 ?DrawTextW@CMetaFileDC@@QEAAHAEBV?$CStringT@_WV?$StrTraitMFC_DLL@_WV?$ChTraitsCRT@_W@ATL@@@@@ATL@@PEAUtagRECT@@I@Z @ 4842 NONAME
 ?DrawTextW@CMetaFileDC@@UEAAHPEB_WHPEAUtagRECT@@I@Z @ 4843 NONAME
 ?DrawTextW@CPreviewDC@@UEAAHPEB_WHPEAUtagRECT@@I@Z @ 4844 NONAME
 ?DrawTextW@CRenderTarget@@QEAAXAEBV?$CStringT@_WV?$StrTraitMFC_DLL@_WV?$ChTraitsCRT@_W@ATL@@@@@ATL@@AEBVCD2DRectF@@PEAVCD2DBrush@@PEAVCD2DTextFormat@@W4D2D1_DRAW_TEXT_OPTIONS@@W4DWRITE_MEASURING_MODE@@@Z @ 4845 NONAME
 ?DrawThemedGripper@CControlBar@@UEAAHPEAVCDC@@AEBVCRect@@H@Z @ 4846 NONAME
 ?DrawToolIcon@CUserTool@@QEAAXPEAVCDC@@AEBVCRect@@@Z @ 4847 NONAME
 ?DrawTrackerRect@CRectTracker@@UEAAXPEBUtagRECT@@PEAVCWnd@@PEAVCDC@@1@Z @ 4848 NONAME
 ?DrawY@CMFCVisualManagerBitmapCacheItem@CMFCVisualManagerBitmapCache@@QEAAXPEAVCDC@@VCRect@@VCSize@@HE@Z @ 4849 NONAME
 ?Drop@XDropTarget@COleDropTarget@@UEAAJPEAUIDataObject@@KU_POINTL@@PEAK@Z @ 4850 NONAME
 ?DropDownList@CMFCRibbonComboBox@@MEAAXXZ @ 4851 NONAME
 ?DropDownList@CMFCRibbonFontComboBox@@MEAAXXZ @ 4852 NONAME
 ?DropDownMenu@CMFCToolBar@@IEAAHPEAVCMFCToolBarButton@@@Z @ 4853 NONAME
 ?DropDownToolbar@CMFCDropDownToolbarButton@@QEAAHPEAVCWnd@@@Z @ 4854 NONAME
 ?Dropped@CDragListBox@@UEAAXHVCPoint@@@Z @ 4855 NONAME
 ?Dump@CArchiveException@@UEBAXAEAVCDumpContext@@@Z @ 4856 NONAME
 ?Dump@CAsyncMonikerFile@@UEBAXAEAVCDumpContext@@@Z @ 4857 NONAME
 ?Dump@CAsyncSocket@@UEBAXAEAVCDumpContext@@@Z @ 4858 NONAME
 ?Dump@CBitmap@@UEBAXAEAVCDumpContext@@@Z @ 4859 NONAME
 ?Dump@CBitmapButton@@UEBAXAEAVCDumpContext@@@Z @ 4860 NONAME
 ?Dump@CBrush@@UEBAXAEAVCDumpContext@@@Z @ 4861 NONAME
 ?Dump@CByteArray@@UEBAXAEAVCDumpContext@@@Z @ 4862 NONAME
 ?Dump@CCachedDataPathProperty@@UEBAXAEAVCDumpContext@@@Z @ 4863 NONAME
 ?Dump@CClientDC@@UEBAXAEAVCDumpContext@@@Z @ 4864 NONAME
 ?Dump@CCmdTarget@@UEBAXAEAVCDumpContext@@@Z @ 4865 NONAME
 ?Dump@CColorDialog@@UEBAXAEAVCDumpContext@@@Z @ 4866 NONAME
 ?Dump@CControlBar@@UEBAXAEAVCDumpContext@@@Z @ 4867 NONAME
 ?Dump@CCtrlView@@UEBAXAEAVCDumpContext@@@Z @ 4868 NONAME
 ?Dump@CDatabase@@UEBAXAEAVCDumpContext@@@Z @ 4869 NONAME
 ?Dump@CDataPathProperty@@UEBAXAEAVCDumpContext@@@Z @ 4870 NONAME
 ?Dump@CDC@@UEBAXAEAVCDumpContext@@@Z @ 4871 NONAME
 ?Dump@CDialog@@UEBAXAEAVCDumpContext@@@Z @ 4872 NONAME
 ?Dump@CDocItem@@UEBAXAEAVCDumpContext@@@Z @ 4873 NONAME
 ?Dump@CDockBar@@UEBAXAEAVCDumpContext@@@Z @ 4874 NONAME
 ?Dump@CDocManager@@UEBAXAEAVCDumpContext@@@Z @ 4875 NONAME
 ?Dump@CDocObjectServer@@MEBAXAEAVCDumpContext@@@Z @ 4876 NONAME
 ?Dump@CDocObjectServerItem@@UEBAXAEAVCDumpContext@@@Z @ 4877 NONAME
 ?Dump@CDocTemplate@@UEBAXAEAVCDumpContext@@@Z @ 4878 NONAME
 ?Dump@CDocument@@UEBAXAEAVCDumpContext@@@Z @ 4879 NONAME
 ?Dump@CDWordArray@@UEBAXAEAVCDumpContext@@@Z @ 4880 NONAME
 ?Dump@CDynLinkLibrary@@UEBAXAEAVCDumpContext@@@Z @ 4881 NONAME
 ?Dump@CEditView@@UEBAXAEAVCDumpContext@@@Z @ 4882 NONAME
 ?Dump@CFile@@UEBAXAEAVCDumpContext@@@Z @ 4883 NONAME
 ?Dump@CFileDialog@@UEBAXAEAVCDumpContext@@@Z @ 4884 NONAME
 ?Dump@CFileException@@UEBAXAEAVCDumpContext@@@Z @ 4885 NONAME
 ?Dump@CFileFind@@MEBAXAEAVCDumpContext@@@Z @ 4886 NONAME
 ?Dump@CFileStatus@@QEBAXAEAVCDumpContext@@@Z @ 4887 NONAME
 ?Dump@CFindReplaceDialog@@UEBAXAEAVCDumpContext@@@Z @ 4888 NONAME
 ?Dump@CFont@@UEBAXAEAVCDumpContext@@@Z @ 4889 NONAME
 ?Dump@CFontDialog@@UEBAXAEAVCDumpContext@@@Z @ 4890 NONAME
 ?Dump@CFormView@@UEBAXAEAVCDumpContext@@@Z @ 4891 NONAME
 ?Dump@CFrameWnd@@UEBAXAEAVCDumpContext@@@Z @ 4892 NONAME
 ?Dump@CFtpConnection@@UEBAXAEAVCDumpContext@@@Z @ 4893 NONAME
 ?Dump@CFtpFileFind@@UEBAXAEAVCDumpContext@@@Z @ 4894 NONAME
 ?Dump@CGdiObject@@UEBAXAEAVCDumpContext@@@Z @ 4895 NONAME
 ?Dump@CGestureConfig@@UEBAXAEAVCDumpContext@@@Z @ 4896 NONAME
 ?Dump@CGopherConnection@@UEBAXAEAVCDumpContext@@@Z @ 4897 NONAME
 ?Dump@CGopherFile@@UEBAXAEAVCDumpContext@@@Z @ 4898 NONAME
 ?Dump@CGopherFileFind@@UEBAXAEAVCDumpContext@@@Z @ 4899 NONAME
 ?Dump@CHtmlEditDoc@@UEBAXAEAVCDumpContext@@@Z @ 4900 NONAME
 ?Dump@CHtmlEditView@@MEBAXAEAVCDumpContext@@@Z @ 4901 NONAME
 ?Dump@CHtmlView@@UEBAXAEAVCDumpContext@@@Z @ 4902 NONAME
 ?Dump@CHttpConnection@@UEBAXAEAVCDumpContext@@@Z @ 4903 NONAME
 ?Dump@CHttpFile@@MEBAXAEAVCDumpContext@@@Z @ 4904 NONAME
 ?Dump@CImageList@@UEBAXAEAVCDumpContext@@@Z @ 4905 NONAME
 ?Dump@CInternetConnection@@UEBAXAEAVCDumpContext@@@Z @ 4906 NONAME
 ?Dump@CInternetException@@UEBAXAEAVCDumpContext@@@Z @ 4907 NONAME
 ?Dump@CInternetFile@@MEBAXAEAVCDumpContext@@@Z @ 4908 NONAME
 ?Dump@CInternetSession@@UEBAXAEAVCDumpContext@@@Z @ 4909 NONAME
 ?Dump@CLongBinary@@UEBAXAEAVCDumpContext@@@Z @ 4910 NONAME
 ?Dump@CMapPtrToPtr@@UEBAXAEAVCDumpContext@@@Z @ 4911 NONAME
 ?Dump@CMapPtrToWord@@UEBAXAEAVCDumpContext@@@Z @ 4912 NONAME
 ?Dump@CMapStringToOb@@UEBAXAEAVCDumpContext@@@Z @ 4913 NONAME
 ?Dump@CMapStringToPtr@@UEBAXAEAVCDumpContext@@@Z @ 4914 NONAME
 ?Dump@CMapStringToString@@UEBAXAEAVCDumpContext@@@Z @ 4915 NONAME
 ?Dump@CMapWordToOb@@UEBAXAEAVCDumpContext@@@Z @ 4916 NONAME
 ?Dump@CMapWordToPtr@@UEBAXAEAVCDumpContext@@@Z @ 4917 NONAME
 ?Dump@CMDIChildWnd@@UEBAXAEAVCDumpContext@@@Z @ 4918 NONAME
 ?Dump@CMDIFrameWnd@@UEBAXAEAVCDumpContext@@@Z @ 4919 NONAME
 ?Dump@CMemFile@@UEBAXAEAVCDumpContext@@@Z @ 4920 NONAME
 ?Dump@CMenu@@UEBAXAEAVCDumpContext@@@Z @ 4921 NONAME
 ?Dump@CMFCDropDownToolbarButton@@UEBAXAEAVCDumpContext@@@Z @ 4922 NONAME
 ?Dump@CMFCStatusBar@@UEBAXAEAVCDumpContext@@@Z @ 4923 NONAME
 ?Dump@CMFCToolBar@@UEBAXAEAVCDumpContext@@@Z @ 4924 NONAME
 ?Dump@CMFCToolBarButton@@UEBAXAEAVCDumpContext@@@Z @ 4925 NONAME
 ?Dump@CMFCToolBarImages@@MEBAXAEAVCDumpContext@@@Z @ 4926 NONAME
 ?Dump@CMFCToolBarMenuButton@@UEBAXAEAVCDumpContext@@@Z @ 4927 NONAME
 ?Dump@CMonikerFile@@UEBAXAEAVCDumpContext@@@Z @ 4928 NONAME
 ?Dump@CMultiDocTemplate@@UEBAXAEAVCDumpContext@@@Z @ 4929 NONAME
 ?Dump@CObArray@@UEBAXAEAVCDumpContext@@@Z @ 4930 NONAME
 ?Dump@CObject@@UEBAXAEAVCDumpContext@@@Z @ 4931 NONAME
 ?Dump@CObList@@UEBAXAEAVCDumpContext@@@Z @ 4932 NONAME
 ?Dump@COleBusyDialog@@UEBAXAEAVCDumpContext@@@Z @ 4933 NONAME
 ?Dump@COleChangeIconDialog@@UEBAXAEAVCDumpContext@@@Z @ 4934 NONAME
 ?Dump@COleChangeSourceDialog@@UEBAXAEAVCDumpContext@@@Z @ 4935 NONAME
 ?Dump@COleClientItem@@UEBAXAEAVCDumpContext@@@Z @ 4936 NONAME
 ?Dump@COleControl@@UEBAXAEAVCDumpContext@@@Z @ 4937 NONAME
 ?Dump@COleConvertDialog@@UEBAXAEAVCDumpContext@@@Z @ 4938 NONAME
 ?Dump@COleDataSource@@UEBAXAEAVCDumpContext@@@Z @ 4939 NONAME
 ?Dump@COleDialog@@UEBAXAEAVCDumpContext@@@Z @ 4940 NONAME
 ?Dump@COleDocIPFrameWnd@@UEBAXAEAVCDumpContext@@@Z @ 4941 NONAME
 ?Dump@COleDocument@@UEBAXAEAVCDumpContext@@@Z @ 4942 NONAME
 ?Dump@COleDropSource@@UEBAXAEAVCDumpContext@@@Z @ 4943 NONAME
 ?Dump@COleDropTarget@@UEBAXAEAVCDumpContext@@@Z @ 4944 NONAME
 ?Dump@COleInsertDialog@@UEBAXAEAVCDumpContext@@@Z @ 4945 NONAME
 ?Dump@COleIPFrameWnd@@UEBAXAEAVCDumpContext@@@Z @ 4946 NONAME
 ?Dump@COleLinkingDoc@@UEBAXAEAVCDumpContext@@@Z @ 4947 NONAME
 ?Dump@COleLinksDialog@@UEBAXAEAVCDumpContext@@@Z @ 4948 NONAME
 ?Dump@COleMessageFilter@@UEBAXAEAVCDumpContext@@@Z @ 4949 NONAME
 ?Dump@COleObjectFactory@@UEBAXAEAVCDumpContext@@@Z @ 4950 NONAME
 ?Dump@COlePasteSpecialDialog@@UEBAXAEAVCDumpContext@@@Z @ 4951 NONAME
 ?Dump@COlePropertiesDialog@@UEBAXAEAVCDumpContext@@@Z @ 4952 NONAME
 ?Dump@COleServerDoc@@UEBAXAEAVCDumpContext@@@Z @ 4953 NONAME
 ?Dump@COleServerDocEx@@UEBAXAEAVCDumpContext@@@Z @ 4954 NONAME
 ?Dump@COleServerItem@@UEBAXAEAVCDumpContext@@@Z @ 4955 NONAME
 ?Dump@COleStreamFile@@UEBAXAEAVCDumpContext@@@Z @ 4956 NONAME
 ?Dump@COleUpdateDialog@@UEBAXAEAVCDumpContext@@@Z @ 4957 NONAME
 ?Dump@CPageSetupDialog@@UEBAXAEAVCDumpContext@@@Z @ 4958 NONAME
 ?Dump@CPaintDC@@UEBAXAEAVCDumpContext@@@Z @ 4959 NONAME
 ?Dump@CPen@@UEBAXAEAVCDumpContext@@@Z @ 4960 NONAME
 ?Dump@CPreviewDC@@UEBAXAEAVCDumpContext@@@Z @ 4961 NONAME
 ?Dump@CPreviewView@@UEBAXAEAVCDumpContext@@@Z @ 4962 NONAME
 ?Dump@CPrintDialog@@UEBAXAEAVCDumpContext@@@Z @ 4963 NONAME
 ?Dump@CPrintDialogEx@@UEBAXAEAVCDumpContext@@@Z @ 4964 NONAME
 ?Dump@CPropertyPage@@UEBAXAEAVCDumpContext@@@Z @ 4965 NONAME
 ?Dump@CPropertySheet@@UEBAXAEAVCDumpContext@@@Z @ 4966 NONAME
 ?Dump@CPtrArray@@UEBAXAEAVCDumpContext@@@Z @ 4967 NONAME
 ?Dump@CPtrList@@UEBAXAEAVCDumpContext@@@Z @ 4968 NONAME
 ?Dump@CRecordset@@UEBAXAEAVCDumpContext@@@Z @ 4969 NONAME
 ?Dump@CRecordView@@UEBAXAEAVCDumpContext@@@Z @ 4970 NONAME
 ?Dump@CRichEditCntrItem@@UEBAXAEAVCDumpContext@@@Z @ 4971 NONAME
 ?Dump@CRichEditDoc@@UEBAXAEAVCDumpContext@@@Z @ 4972 NONAME
 ?Dump@CRichEditView@@UEBAXAEAVCDumpContext@@@Z @ 4973 NONAME
 ?Dump@CScrollView@@UEBAXAEAVCDumpContext@@@Z @ 4974 NONAME
 ?Dump@CSingleDocTemplate@@UEBAXAEAVCDumpContext@@@Z @ 4975 NONAME
 ?Dump@CSocket@@MEBAXAEAVCDumpContext@@@Z @ 4976 NONAME
 ?Dump@CSocketFile@@UEBAXAEAVCDumpContext@@@Z @ 4977 NONAME
 ?Dump@CSplitterWnd@@UEBAXAEAVCDumpContext@@@Z @ 4978 NONAME
 ?Dump@CStatusBar@@UEBAXAEAVCDumpContext@@@Z @ 4979 NONAME
 ?Dump@CStdioFile@@UEBAXAEAVCDumpContext@@@Z @ 4980 NONAME
 ?Dump@CStringArray@@UEBAXAEAVCDumpContext@@@Z @ 4981 NONAME
 ?Dump@CStringList@@UEBAXAEAVCDumpContext@@@Z @ 4982 NONAME
 ?Dump@CSyncObject@@UEBAXAEAVCDumpContext@@@Z @ 4983 NONAME
 ?Dump@CTabView@@MEBAXAEAVCDumpContext@@@Z @ 4984 NONAME
 ?Dump@CToolBar@@UEBAXAEAVCDumpContext@@@Z @ 4985 NONAME
 ?Dump@CUIntArray@@UEBAXAEAVCDumpContext@@@Z @ 4986 NONAME
 ?Dump@CView@@UEBAXAEAVCDumpContext@@@Z @ 4987 NONAME
 ?Dump@CWinApp@@UEBAXAEAVCDumpContext@@@Z @ 4988 NONAME
 ?Dump@CWindowDC@@UEBAXAEAVCDumpContext@@@Z @ 4989 NONAME
 ?Dump@CWinThread@@UEBAXAEAVCDumpContext@@@Z @ 4990 NONAME
 ?Dump@CWnd@@UEBAXAEAVCDumpContext@@@Z @ 4991 NONAME
 ?Dump@CWordArray@@UEBAXAEAVCDumpContext@@@Z @ 4992 NONAME
 ?DumpAllObjectsSince@CMemoryState@@QEBAXXZ @ 4993 NONAME
 ?DumpAsHex@CDumpContext@@QEAAAEAV1@_J@Z @ 4994 NONAME
 ?DumpAsHex@CDumpContext@@QEAAAEAV1@_K@Z @ 4995 NONAME
 ?DumpAsHex@CDumpContext@@QEAAAEAV1@E@Z @ 4996 NONAME
 ?DumpAsHex@CDumpContext@@QEAAAEAV1@G@Z @ 4997 NONAME
 ?DumpAsHex@CDumpContext@@QEAAAEAV1@H@Z @ 4998 NONAME
 ?DumpAsHex@CDumpContext@@QEAAAEAV1@I@Z @ 4999 NONAME
 ?DumpAsHex@CDumpContext@@QEAAAEAV1@J@Z @ 5000 NONAME
 ?DumpAsHex@CDumpContext@@QEAAAEAV1@K@Z @ 5001 NONAME
 ?DumpFields@CRecordset@@QEBAXAEAVCDumpContext@@@Z @ 5002 NONAME
 ?DumpStatistics@CMemoryState@@QEBAXXZ @ 5003 NONAME
 ?DUnadvise@XDataObject@COleControl@@UEAAJK@Z @ 5004 NONAME
 ?DUnadvise@XDataObject@COleDataSource@@UEAAJK@Z @ 5005 NONAME
 ?DUnadvise@XDataObject@COleServerDoc@@UEAAJK@Z @ 5006 NONAME
 ?DUnadvise@XDataObject@COleServerItem@@UEAAJK@Z @ 5007 NONAME
 ?Duplicate@CFile@@UEBAPEAV1@XZ @ 5008 NONAME
 ?Duplicate@CInternetFile@@UEBAPEAVCFile@@XZ @ 5009 NONAME
 ?Duplicate@CMemFile@@UEBAPEAVCFile@@XZ @ 5010 NONAME
 ?Duplicate@COleStreamFile@@UEBAPEAVCFile@@XZ @ 5011 NONAME
 ?Duplicate@CSocketFile@@UEBAPEAVCFile@@XZ @ 5012 NONAME
 ?Duplicate@CStdioFile@@UEBAPEAVCFile@@XZ @ 5013 NONAME
 ?DWMCompositionChanged@CMFCRibbonBar@@UEAAXXZ @ 5014 NONAME
 ?dwStyleDefault@CEditView@@2KB @ 5015 NONAME DATA
 ?Edit@CRecordset@@UEAAXXZ @ 5016 NONAME
 ?EditFilter@CHeaderCtrl@@QEAAHHH@Z @ 5017 NONAME
 ?EditItem@CMFCPropertyGridCtrl@@UEAAHPEAVCMFCPropertyGridProperty@@PEAUtagPOINT@@@Z @ 5018 NONAME
 ?EditItem@CVSListBox@@UEAAHH@Z @ 5019 NONAME
 ?EditLabel@CListCtrl@@QEAAPEAVCEdit@@H@Z @ 5020 NONAME
 ?EditLabel@CTreeCtrl@@QEAAPEAVCEdit@@PEAU_TREEITEM@@@Z @ 5021 NONAME
 ?EditProperty@XPropertyPage@COlePropertyPage@@UEAAJJ@Z @ 5022 NONAME
 ?EditStreamCallBack@CRichEditView@@SAK_KPEAEJPEAJ@Z @ 5023 NONAME
 ?ElementAt@CByteArray@@QEAAAEAE_J@Z @ 5024 NONAME
 ?ElementAt@CDWordArray@@QEAAAEAK_J@Z @ 5025 NONAME
 ?ElementAt@CObArray@@QEAAAEAPEAVCObject@@_J@Z @ 5026 NONAME
 ?ElementAt@CPtrArray@@QEAAAEAPEAX_J@Z @ 5027 NONAME
 ?ElementAt@CStringArray@@QEAAAEAV?$CStringT@_WV?$StrTraitMFC_DLL@_WV?$ChTraitsCRT@_W@ATL@@@@@ATL@@_J@Z @ 5028 NONAME
 ?ElementAt@CUIntArray@@QEAAAEAI_J@Z @ 5029 NONAME
 ?ElementAt@CWordArray@@QEAAAEAG_J@Z @ 5030 NONAME
 ?ElementNameFromType@CMFCRibbonInfo@@SAPEB_WW4XElementType@1@@Z @ 5031 NONAME
 ?ElementTypeFromName@CMFCRibbonInfo@@SA?AW4XElementType@1@AEBV?$CStringT@_WV?$StrTraitMFC_DLL@_WV?$ChTraitsCRT@_W@ATL@@@@@ATL@@@Z @ 5032 NONAME
 ?Ellipse@CDC@@QEAAHHHHH@Z @ 5033 NONAME
 ?Ellipse@CDC@@QEAAHPEBUtagRECT@@@Z @ 5034 NONAME
 ?Empty@?$CSimpleStringT@_W$00@ATL@@QEAAXXZ @ 5035 NONAME
 ?Empty@?$CSimpleStringT@D$00@ATL@@QEAAXXZ @ 5036 NONAME
 ?Empty@CDBException@@QEAAXXZ @ 5037 NONAME
 ?Empty@CMFCZoomKernel@@QEAAXXZ @ 5038 NONAME
 ?Empty@COleDataSource@@QEAAXXZ @ 5039 NONAME
 ?Empty@XInfoError@CMFCRibbonInfo@@QEAAXXZ @ 5040 NONAME
 ?EmptyUndoBuffer@CEdit@@QEAAXXZ @ 5041 NONAME
 ?EmptyUndoBuffer@CRichEditCtrl@@QEAAXXZ @ 5042 NONAME
 ?Enable@CCheckListBox@@QEAAXHH@Z @ 5043 NONAME
 ?Enable@CCmdUI@@UEAAXH@Z @ 5044 NONAME
 ?Enable@CMFCColorBarCmdUI@@UEAAXH@Z @ 5045 NONAME
 ?Enable@CMFCPropertyGridProperty@@QEAAXH@Z @ 5046 NONAME
 ?Enable@CMFCRibbonCmdUI@@UEAAXH@Z @ 5047 NONAME
 ?Enable@CMFCStatusBarCmdUI@@UEAAXH@Z @ 5048 NONAME
 ?Enable@CMFCTasksPaneToolBarCmdUI@@UEAAXH@Z @ 5049 NONAME
 ?Enable@CMFCToolBarCmdUI@@UEAAXH@Z @ 5050 NONAME
 ?Enable@COleCmdUI@@UEAAXH@Z @ 5051 NONAME
 ?Enable@CStatusCmdUI@@UEAAXH@Z @ 5052 NONAME
 ?Enable@CTestCmdUI@@UEAAXH@Z @ 5053 NONAME
 ?Enable@CToolCmdUI@@UEAAXH@Z @ 5054 NONAME
 ?Enable3dControls@CWinApp@@IEAAHXZ @ 5055 NONAME
 ?EnableAccessibilitySupport@AFX_GLOBAL_DATA@@QEAAXH@Z @ 5056 NONAME
 ?EnableActiveAccessibility@CWnd@@QEAAXXZ @ 5057 NONAME
 ?EnableActiveTabCloseButton@CMFCTabCtrl@@QEAAXH@Z @ 5058 NONAME
 ?EnableAggregation@CCmdTarget@@QEAAXXZ @ 5059 NONAME
 ?EnableAnimation@CMFCOutlookBarTabCtrl@@SAXH@Z @ 5060 NONAME
 ?EnableAnimationManagerEvent@CAnimationController@@UEAAHH@Z @ 5061 NONAME
 ?EnableAnimationTimerEventHandler@CAnimationController@@UEAAHHW4__MIDL___MIDL_itf_UIAnimation_0000_0012_0001@@@Z @ 5062 NONAME
 ?EnableAutoColor@CMFCBaseTabCtrl@@QEAAXH@Z @ 5063 NONAME
 ?EnableAutoHidePanes@CDockingManager@@QEAAHK@Z @ 5064 NONAME
 ?EnableAutoHidePanes@CFrameWndEx@@QEAAHK@Z @ 5065 NONAME
 ?EnableAutoHidePanes@CMDIChildWndEx@@QEAAHK@Z @ 5066 NONAME
 ?EnableAutoHidePanes@CMDIFrameWndEx@@QEAAHK@Z @ 5067 NONAME
 ?EnableAutoHidePanes@COleCntrFrameWndEx@@QEAAHK@Z @ 5068 NONAME
 ?EnableAutoHidePanes@COleDocIPFrameWndEx@@QEAAHK@Z @ 5069 NONAME
 ?EnableAutoHidePanes@COleIPFrameWndEx@@QEAAHK@Z @ 5070 NONAME
 ?EnableAutomaticButton@CMFCColorBar@@QEAAXPEB_WKH@Z @ 5071 NONAME
 ?EnableAutomaticButton@CMFCColorButton@@QEAAXPEB_WKH@Z @ 5072 NONAME
 ?EnableAutomaticButton@CMFCColorMenuButton@@QEAAXPEB_WKH@Z @ 5073 NONAME
 ?EnableAutomaticButton@CMFCPropertyGridColorProperty@@QEAAXPEB_WKH@Z @ 5074 NONAME
 ?EnableAutomaticButton@CMFCRibbonColorButton@@QEAAXPEB_WKH0HH@Z @ 5075 NONAME
 ?EnableAutomation@CCmdTarget@@QEAAXXZ @ 5076 NONAME
 ?EnableBookmarks@CRecordset@@IEAAXXZ @ 5077 NONAME
 ?EnableBrowseButton@CMFCEditBrowseCtrl@@QEAAXH@Z @ 5078 NONAME
 ?EnableBrowseButton@CVSListBoxBase@@QEAAXH@Z @ 5079 NONAME
 ?EnableBusyDialog@COleMessageFilter@@QEAAXH@Z @ 5080 NONAME
 ?EnableButton@CDockablePane@@IEAAXIH@Z @ 5081 NONAME
 ?EnableButton@CMFCCaptionBar@@QEAAXH@Z @ 5082 NONAME
 ?EnableButton@CToolBarCtrl@@QEAAHHH@Z @ 5083 NONAME
 ?EnableButton@CVSListBoxBase@@QEAAHHH@Z @ 5084 NONAME
 ?EnableCheck@CMFCToolBarsListCheckBox@@QEAAXHH@Z @ 5085 NONAME
 ?EnableCompoundFile@COleDocument@@QEAAXH@Z @ 5086 NONAME
 ?EnableConnections@CCmdTarget@@QEAAXXZ @ 5087 NONAME
 ?EnableContextMenuItems@CMFCOutlookBarPane@@MEAAHPEAVCMFCToolBarButton@@PEAVCMenu@@@Z @ 5088 NONAME
 ?EnableContextMenuItems@CMFCPopupMenuBar@@MEAAHPEAVCMFCToolBarButton@@PEAVCMenu@@@Z @ 5089 NONAME
 ?EnableContextMenuItems@CMFCToolBar@@MEAAHPEAVCMFCToolBarButton@@PEAVCMenu@@@Z @ 5090 NONAME
 ?EnableControls@CMFCToolBarButtonCustomizeDialog@@IEAAXXZ @ 5091 NONAME
 ?EnableControls@CMFCToolBarsToolsPropertyPage@@IEAAXXZ @ 5092 NONAME
 ?EnableCustomizeButton@CMFCToolBar@@QEAAXHHAEBV?$CStringT@_WV?$StrTraitMFC_DLL@_WV?$ChTraitsCRT@_W@ATL@@@@@ATL@@H@Z @ 5093 NONAME
 ?EnableCustomizeButton@CMFCToolBar@@QEAAXHHIH@Z @ 5094 NONAME
 ?EnableCustomToolTips@CMFCBaseTabCtrl@@QEAAHH@Z @ 5095 NONAME
 ?EnableD2DSupport@CWinApp@@QEAAHW4D2D1_FACTORY_TYPE@@W4DWRITE_FACTORY_TYPE@@@Z @ 5096 NONAME
 ?EnableDblClkControls@CMFCMousePropertyPage@@IEAAXH@Z @ 5098 NONAME
 ?EnableDescriptionArea@CMFCPropertyGridCtrl@@QEAAXH@Z @ 5099 NONAME
 ?EnableDocking@CControlBar@@QEAAXK@Z @ 5100 NONAME
 ?EnableDocking@CDockingManager@@QEAAHK@Z @ 5101 NONAME
 ?EnableDocking@CFrameWnd@@QEAAXK@Z @ 5102 NONAME
 ?EnableDocking@CFrameWndEx@@QEAAHK@Z @ 5103 NONAME
 ?EnableDocking@CMDIChildWndEx@@QEAAHK@Z @ 5104 NONAME
 ?EnableDocking@CMDIFrameWndEx@@QEAAHK@Z @ 5105 NONAME
 ?EnableDocking@CMFCReBar@@UEAAXK@Z @ 5106 NONAME
 ?EnableDocking@CMFCToolBar@@UEAAXK@Z @ 5107 NONAME
 ?EnableDocking@COleCntrFrameWndEx@@QEAAHK@Z @ 5108 NONAME
 ?EnableDocking@COleDocIPFrameWndEx@@QEAAHK@Z @ 5109 NONAME
 ?EnableDocking@COleIPFrameWndEx@@QEAAHK@Z @ 5110 NONAME
 ?EnableDocking@CReBar@@QEAAXK@Z @ 5111 NONAME
 ?EnableDocking@CStatusBar@@QEAAXK@Z @ 5112 NONAME
 ?EnableDocumentColors@CMFCColorMenuButton@@QEAAXPEB_WH@Z @ 5113 NONAME
 ?EnableDSC@COleControlSite@@UEAAXXZ @ 5114 NONAME
 ?EnableFolderBrowseButton@CMFCEditBrowseCtrl@@QEAAXPEB_WI@Z @ 5116 NONAME
 ?EnableFullTextTooltip@CMFCButton@@QEAAXH@Z @ 5117 NONAME
 ?EnableGripper@CDockablePane@@UEAAXH@Z @ 5118 NONAME
 ?EnableGrippers@CPaneContainerManager@@UEAAXH@Z @ 5119 NONAME
 ?EnableHeaderCtrl@CMFCPropertyGridCtrl@@QEAAXHPEB_W0@Z @ 5120 NONAME
 ?EnableHelpCombobox@CMFCMenuBar@@QEAAXIPEB_WH@Z @ 5121 NONAME
 ?EnableHistoryMenuButtons@CMFCTasksPane@@QEAAXH@Z @ 5122 NONAME
 ?EnableHtmlHelp@CWinApp@@QEAAXXZ @ 5123 NONAME
 ?EnableInPlaceEdit@CMFCTabCtrl@@UEAAXH@Z @ 5124 NONAME
 ?EnableIntegerValueChangedEvent@CAnimationBaseObject@@UEAAXPEAVCAnimationController@@H@Z @ 5125 NONAME
 ?EnableIntegerValueChangedEvent@CAnimationVariable@@QEAAXPEAVCAnimationController@@H@Z @ 5126 NONAME
 ?EnableKeyTips@CMFCRibbonBar@@QEAAXH@Z @ 5127 NONAME
 ?EnableLargeIcons@CMFCToolBar@@QEAAXH@Z @ 5128 NONAME
 ?EnableLaunchButton@CMFCRibbonPanel@@QEAAXIHPEB_W@Z @ 5129 NONAME
 ?EnableMarkSortedColumn@CMFCListCtrl@@QEAAXHH@Z @ 5130 NONAME
 ?EnableMask@CMFCMaskedEdit@@QEAAXPEB_W0_W0@Z @ 5131 NONAME
 ?EnableMDITabbedGroups@CMDIClientAreaWnd@@QEAAXHAEBVCMDITabInfo@@@Z @ 5132 NONAME
 ?EnableMDITabbedGroups@CMDIFrameWndEx@@QEAAXHAEBVCMDITabInfo@@@Z @ 5133 NONAME
 ?EnableMDITabs@CMDIClientAreaWnd@@QEAAXHAEBVCMDITabInfo@@@Z @ 5134 NONAME
 ?EnableMDITabs@CMDIFrameWndEx@@QEAAXHHW4Location@CMFCBaseTabCtrl@@HW4Style@CMFCTabCtrl@@HH@Z @ 5135 NONAME
 ?EnableMDITabsLastActiveActivation@CMDIClientAreaWnd@@QEAAXH@Z @ 5136 NONAME
 ?EnableMenuFont@CMFCButton@@QEAAXHH@Z @ 5137 NONAME
 ?EnableMenuItem@CMenu@@QEAAIII@Z @ 5138 NONAME
 ?EnableMenuItemImage@CCommandManager@@QEAAXIHH@Z @ 5139 NONAME
 ?EnableMenuLogo@CMFCPopupMenu@@QEAAXHW4LOGO_LOCATION@1@@Z @ 5140 NONAME
 ?EnableModeless@CBrowserControlSite@@MEAAJH@Z @ 5141 NONAME
 ?EnableModeless@CDHtmlDialog@@UEAAJH@Z @ 5142 NONAME
 ?EnableModeless@CWinApp@@QEAAXH@Z @ 5143 NONAME
 ?EnableModeless@XDocHostUIHandler@CHtmlControlSite@@UEAAJH@Z @ 5144 NONAME
 ?EnableModeless@XOleInPlaceActiveObject@COleControl@@UEAAJH@Z @ 5145 NONAME
 ?EnableModeless@XOleInPlaceActiveObject@COleServerDoc@@UEAAJH@Z @ 5146 NONAME
 ?EnableModeless@XOleInPlaceFrame@COleFrameHook@@UEAAJH@Z @ 5147 NONAME
 ?EnableModeless@XOleIPFrame@COleControlContainer@@UEAAJH@Z @ 5148 NONAME
 ?EnableMultipleSort@CMFCHeaderCtrl@@QEAAXH@Z @ 5149 NONAME
 ?EnableMultipleSort@CMFCListCtrl@@QEAAXH@Z @ 5150 NONAME
 ?EnableNavigationToolbar@CMFCTasksPane@@QEAAXHIVCSize@@0@Z @ 5151 NONAME
 ?EnableNotRespondingDialog@COleMessageFilter@@QEAAXH@Z @ 5152 NONAME
 ?EnableOpenDropDown@CFileDialog@@QEAAJK@Z @ 5153 NONAME
 ?EnableOtherButton@CMFCColorBar@@QEAAXPEB_WHH@Z @ 5154 NONAME
 ?EnableOtherButton@CMFCColorButton@@QEAAXPEB_WHH@Z @ 5155 NONAME
 ?EnableOtherButton@CMFCColorMenuButton@@QEAAXPEB_WHH@Z @ 5156 NONAME
 ?EnableOtherButton@CMFCPropertyGridColorProperty@@QEAAXPEB_WHH@Z @ 5157 NONAME
 ?EnableOtherButton@CMFCRibbonColorButton@@QEAAXPEB_W0@Z @ 5158 NONAME
 ?EnablePageHeader@CMFCPropertySheet@@QEAAXH@Z @ 5159 NONAME
 ?EnablePan@CGestureConfig@@QEAAXHK@Z @ 5160 NONAME
 ?EnablePaneContextMenu@CDockingManager@@QEAAXHIAEBV?$CStringT@_WV?$StrTraitMFC_DLL@_WV?$ChTraitsCRT@_W@ATL@@@@@ATL@@H@Z @ 5161 NONAME
 ?EnablePaneDoubleClick@CMFCStatusBar@@QEAAXH@Z @ 5162 NONAME
 ?EnablePaneProgressBar@CMFCStatusBar@@QEAAXHJHKKK@Z @ 5163 NONAME
 ?EnablePressAndTap@CGestureConfig@@QEAAXH@Z @ 5164 NONAME
 ?EnablePrintPreview@CMFCRibbonBar@@QEAAXH@Z @ 5165 NONAME
 ?EnablePriorityComparisonHandler@CAnimationController@@UEAAH_K@Z @ 5166 NONAME
 ?EnableResize@CMFCPopupMenu@@QEAAXVCSize@@@Z @ 5167 NONAME
 ?EnableRotate@CGestureConfig@@QEAAXH@Z @ 5168 NONAME
 ?EnableRTL@CMFCToolBarImages@@SAXH@Z @ 5169 NONAME
 ?EnableScrollBar@CScrollBar@@QEAAHI@Z @ 5170 NONAME
 ?EnableScrollBar@CWnd@@QEAAHHI@Z @ 5171 NONAME
 ?EnableScrollBarCtrl@CWnd@@QEAAXHH@Z @ 5172 NONAME
 ?EnableScrollButtons@CMFCOutlookBarTabCtrl@@QEAAXHHH@Z @ 5173 NONAME
 ?EnableShellContextMenu@CMFCShellListCtrl@@QEAAXH@Z @ 5174 NONAME
 ?EnableShellContextMenu@CMFCShellTreeCtrl@@QEAAXH@Z @ 5175 NONAME
 ?EnableShellOpen@CWinApp@@IEAAXXZ @ 5176 NONAME
 ?EnableSimpleFrame@COleControl@@QEAAXXZ @ 5177 NONAME
 ?EnableSpinButtons@CMFCRibbonEdit@@QEAAXHH@Z @ 5178 NONAME
 ?EnableSpinControl@CMFCPropertyGridProperty@@QEAAXHHH@Z @ 5179 NONAME
 ?EnableStackedTabs@CPropertySheet@@QEAAXH@Z @ 5180 NONAME
 ?EnableStatusCallback@CInternetSession@@QEAAHH@Z @ 5181 NONAME
 ?EnableStoryboardEventHandler@CAnimationController@@UEAAHIH@Z @ 5182 NONAME
 ?EnableTabAutoColor@CTabbedPane@@SAXH@Z @ 5183 NONAME
 ?EnableTabDetach@CMFCBaseTabCtrl@@UEAAHHH@Z @ 5184 NONAME
 ?EnableTabDocumentsMenu@CMFCTabCtrl@@QEAAXH@Z @ 5185 NONAME
 ?EnableTaskbarInteraction@CWinApp@@QEAAHH@Z @ 5186 NONAME
 ?EnableTaskbarThumbnailClipRect@CMDIChildWndEx@@QEAAXH@Z @ 5187 NONAME
 ?EnableTearOff@CMFCColorMenuButton@@QEAAXIHH@Z @ 5188 NONAME
 ?EnableTearOffMenus@CWinAppEx@@QEAAHPEB_WII@Z @ 5189 NONAME
 ?EnableTextLabels@CMFCToolBar@@QEAAXH@Z @ 5190 NONAME
 ?EnableTooltipInfoShortcut@CMFCRibbonBaseElement@@QEAAXH@Z @ 5191 NONAME
 ?EnableToolTips@CMFCRibbonBar@@QEAAXHH@Z @ 5192 NONAME
 ?EnableToolTips@CWnd@@QEAAHH@Z @ 5193 NONAME
 ?EnableTrackingToolTips@CWnd@@QEAAHH@Z @ 5194 NONAME
 ?EnableTwoFingerTap@CGestureConfig@@QEAAXH@Z @ 5195 NONAME
 ?EnableTypeLib@CCmdTarget@@QEAAXXZ @ 5196 NONAME
 ?EnableUpdateTooltipInfo@CMFCRibbonBaseElement@@QEAAXH@Z @ 5197 NONAME
 ?EnableUserDefinedToolbars@CMFCToolBarsCustomizeDialog@@QEAAXH@Z @ 5198 NONAME
 ?EnableUserTools@CWinAppEx@@QEAAHIIIPEAUCRuntimeClass@@II@Z @ 5199 NONAME
 ?EnableValueChangedEvent@CAnimationBaseObject@@UEAAXPEAVCAnimationController@@H@Z @ 5200 NONAME
 ?EnableValueChangedEvent@CAnimationVariable@@QEAAXPEAVCAnimationController@@H@Z @ 5201 NONAME
 ?EnableVertResize@CMFCPopupMenu@@QEAAXH@Z @ 5202 NONAME
 ?EnableWindow@COleControlSite@@UEAAHH@Z @ 5203 NONAME
 ?EnableWindow@CWnd@@QEAAHH@Z @ 5204 NONAME
 ?EnableWindowsDialog@CMDIFrameWndEx@@QEAAXIIHH@Z @ 5205 NONAME
 ?EnableWindowsDialog@CMDIFrameWndEx@@QEAAXIPEB_WHH@Z @ 5206 NONAME
 ?EnableWindowsTheming@CMFCButton@@SAXH@Z @ 5207 NONAME
 ?EnableZoom@CGestureConfig@@QEAAXH@Z @ 5208 NONAME
 ?EndBusyState@COleMessageFilter@@UEAAXXZ @ 5209 NONAME
 ?EndCallbacks@CAsyncMonikerFile@@IEAAXXZ @ 5210 NONAME
 ?EndDeferErrors@COleLinkingDoc@@QEAAJJ@Z @ 5211 NONAME
 ?EndDialog@CDialog@@QEAAXH@Z @ 5212 NONAME
 ?EndDialog@CPropertyPage@@QEAAXH@Z @ 5213 NONAME
 ?EndDialog@CPropertySheet@@QEAAXH@Z @ 5214 NONAME
 ?EndDoc@CDC@@QEAAHXZ @ 5215 NONAME
 ?EndDrag@CDockContext@@QEAAXXZ @ 5216 NONAME
 ?EndDrag@CImageList@@SAXXZ @ 5217 NONAME
 ?EndDrag@CReBarCtrl@@QEAAXXZ @ 5218 NONAME
 ?EndDraw@CRenderTarget@@QEAAJXZ @ 5219 NONAME
 ?EndDrawDragFrame@CMFCDragFrameImpl@@QEAAXH@Z @ 5220 NONAME
 ?EndDrawImage@CMFCToolBarImages@@QEAAXAEAUtagAFXDrawState@@@Z @ 5221 NONAME
 ?EndEditItem@CMFCPropertyGridCtrl@@UEAAHH@Z @ 5222 NONAME
 ?EndEditLabelNow@CTreeCtrl@@QEAAHH@Z @ 5223 NONAME
 ?EndFigure@CD2DGeometrySink@@QEAAXW4D2D1_FIGURE_END@@@Z @ 5224 NONAME
 ?EndModalLoop@CWnd@@UEAAXH@Z @ 5225 NONAME
 ?EndModalState@CFrameWnd@@UEAAXXZ @ 5226 NONAME
 ?EndModalState@CWnd@@UEAAXXZ @ 5227 NONAME
 ?EndPage@CDC@@QEAAHXZ @ 5228 NONAME
 ?EndPaint@CWnd@@QEAAXPEAUtagPAINTSTRUCT@@@Z @ 5229 NONAME
 ?EndPath@CDC@@QEAAHXZ @ 5230 NONAME
 ?EndRequest@CHttpFile@@QEAAHKPEAU_INTERNET_BUFFERSW@@_K@Z @ 5231 NONAME
 ?EndResize@CDockContext@@QEAAXXZ @ 5232 NONAME
 ?EndVisualGroup@CFileDialog@@QEAAJXZ @ 5233 NONAME
 ?EndWaitCursor@CCmdTarget@@QEAAXXZ @ 5234 NONAME
 ?EnsureClipboardObject@COleDataObject@@QEAAXXZ @ 5235 NONAME
 ?EnsureParentFrame@CWnd@@QEBAPEAVCFrameWnd@@XZ @ 5236 NONAME
 ?EnsureRead@CArchive@@QEAAXPEAXI@Z @ 5237 NONAME
 ?EnsureSchemaMapExists@CArchive@@QEAAXPEAPEAV?$CArray@W4LoadArrayObjType@CArchive@@AEBW412@@@@Z @ 5238 NONAME
 ?EnsureStdObj@CWnd@@UEAAJXZ @ 5239 NONAME
 ?EnsureTopLevelParent@CWnd@@QEBAPEAV1@XZ @ 5240 NONAME
 ?EnsureVisible@CListCtrl@@QEAAHHH@Z @ 5241 NONAME
 ?EnsureVisible@CMFCOutlookBarPaneList@@AEAAXH@Z @ 5242 NONAME
 ?EnsureVisible@CMFCPropertyGridCtrl@@QEAAXPEAVCMFCPropertyGridProperty@@H@Z @ 5243 NONAME
 ?EnsureVisible@CMFCRibbonCategory@@IEAAXPEAVCMFCRibbonButton@@@Z @ 5244 NONAME
 ?EnsureVisible@CMFCTabCtrl@@UEAAHH@Z @ 5245 NONAME
 ?EnsureVisible@CTreeCtrl@@QEAAHPEAU_TREEITEM@@@Z @ 5246 NONAME
 ?EnterDragMode@CDockablePane@@MEAAXH@Z @ 5247 NONAME
 ?EnterDragMode@CMFCBaseTabCtrl@@QEAAXXZ @ 5248 NONAME
 ?EnterDragMode@CPane@@MEAAXH@Z @ 5249 NONAME
 ?EnterDragMode@CPaneFrameWnd@@MEAAXPEAUHWND__@@@Z @ 5250 NONAME
 ?EnumAdvise@XOleObject@CDocObjectServer@@UEAAJPEAPEAUIEnumSTATDATA@@@Z @ 5251 NONAME
 ?EnumAdvise@XOleObject@COleControl@@UEAAJPEAPEAUIEnumSTATDATA@@@Z @ 5252 NONAME
 ?EnumAdvise@XOleObject@COleServerDoc@@UEAAJPEAPEAUIEnumSTATDATA@@@Z @ 5253 NONAME
 ?EnumAdvise@XOleObject@COleServerItem@@UEAAJPEAPEAUIEnumSTATDATA@@@Z @ 5254 NONAME
 ?EnumCache@XOleCache@COleControl@@UEAAJPEAPEAUIEnumSTATDATA@@@Z @ 5255 NONAME
 ?EnumChildProc@COlePropertyPage@@KAHPEAUHWND__@@_J@Z @ 5256 NONAME
 ?EnumConnectionPoints@COleConnPtContainer@@UEAAJPEAPEAUIEnumConnectionPoints@@@Z @ 5257 NONAME
 ?EnumConnections@XConnPt@CConnectionPoint@@UEAAJPEAPEAUIEnumConnections@@@Z @ 5258 NONAME
 ?EnumControls@COlePropertyPage@@KAHPEAUHWND__@@_J@Z @ 5259 NONAME
 ?EnumDAdvise@XDataObject@COleControl@@UEAAJPEAPEAUIEnumSTATDATA@@@Z @ 5260 NONAME
 ?EnumDAdvise@XDataObject@COleDataSource@@UEAAJPEAPEAUIEnumSTATDATA@@@Z @ 5261 NONAME
 ?EnumDAdvise@XDataObject@COleServerDoc@@UEAAJPEAPEAUIEnumSTATDATA@@@Z @ 5262 NONAME
 ?EnumDAdvise@XDataObject@COleServerItem@@UEAAJPEAPEAUIEnumSTATDATA@@@Z @ 5263 NONAME
 ?EnumFamPrinterCallBackEx@CMFCToolBarFontComboBox@@KAHPEAUtagENUMLOGFONTEXW@@PEAUtagNEWTEXTMETRICEXW@@HPEAX@Z @ 5264 NONAME
 ?EnumFamScreenCallBackEx@CMFCToolBarFontComboBox@@KAHPEAUtagENUMLOGFONTEXW@@PEAUtagNEWTEXTMETRICEXW@@HPEAX@Z @ 5265 NONAME
 ?EnumFormatEtc@XDataObject@COleControl@@UEAAJKPEAPEAUIEnumFORMATETC@@@Z @ 5266 NONAME
 ?EnumFormatEtc@XDataObject@COleDataSource@@UEAAJKPEAPEAUIEnumFORMATETC@@@Z @ 5267 NONAME
 ?EnumFormatEtc@XDataObject@COleServerDoc@@UEAAJKPEAPEAUIEnumFORMATETC@@@Z @ 5268 NONAME
 ?EnumFormatEtc@XDataObject@COleServerItem@@UEAAJKPEAPEAUIEnumFORMATETC@@@Z @ 5269 NONAME
 ?EnumObjects@CDC@@QEAAHHP6AHPEAX_J@Z1@Z @ 5270 NONAME
 ?EnumObjects@CMFCShellListCtrl@@MEAAJPEAUIShellFolder@@PEFAU_ITEMIDLIST@@@Z @ 5271 NONAME
 ?EnumObjects@CMFCShellTreeCtrl@@MEAAJPEAU_TREEITEM@@PEAUIShellFolder@@PEFAU_ITEMIDLIST@@@Z @ 5272 NONAME
 ?EnumObjects@XOleContainer@COleControlContainer@@UEAAJKPEAPEAUIEnumUnknown@@@Z @ 5273 NONAME
 ?EnumObjects@XOleItemContainer@COleLinkingDoc@@UEAAJKPEAPEAUIEnumUnknown@@@Z @ 5274 NONAME
 ?EnumOleVerbs@CCmdTarget@@QEAAHPEAPEAUIEnumOLEVERB@@@Z @ 5275 NONAME
 ?EnumSizeCallBack@CMFCToolBarFontSizeComboBox@@KAHPEAUtagLOGFONTW@@PEAUtagNEWTEXTMETRICW@@HPEAX@Z @ 5276 NONAME
 ?EnumVerbs@XOleObject@CDocObjectServer@@UEAAJPEAPEAUIEnumOLEVERB@@@Z @ 5277 NONAME
 ?EnumVerbs@XOleObject@COleControl@@UEAAJPEAPEAUIEnumOLEVERB@@@Z @ 5278 NONAME
 ?EnumVerbs@XOleObject@COleServerDoc@@UEAAJPEAPEAUIEnumOLEVERB@@@Z @ 5279 NONAME
 ?EnumVerbs@XOleObject@COleServerItem@@UEAAJPEAPEAUIEnumOLEVERB@@@Z @ 5280 NONAME
 ?EnumViews@XOleDocument@CDocObjectServer@@UEAAJPEAPEAUIEnumOleDocumentViews@@PEAPEAUIOleDocumentView@@@Z @ 5281 NONAME
 ?EqualRgn@CRgn@@QEBAHPEBV1@@Z @ 5282 NONAME
 ?EraseNonClient@CControlBar@@QEAAXXZ @ 5283 NONAME
 ?ErrnoToException@CFileException@@SAHH@Z @ 5284 NONAME
 ?ErrorDlg@CHttpFile@@QEAAKPEAVCWnd@@KKPEAPEAX@Z @ 5285 NONAME
 ?Escape@CDC@@QEAAHHHPEBDHPEAD@Z @ 5286 NONAME
 ?Escape@CDC@@UEAAHHHPEBDPEAX@Z @ 5287 NONAME
 ?Escape@CMetaFileDC@@UEAAHHHPEBDPEAX@Z @ 5288 NONAME
 ?Escape@CPreviewDC@@UEAAHHHPEBDPEAX@Z @ 5289 NONAME
 ?ExchangeBlobProp@CArchivePropExchange@@UEAAHPEB_WPEAPEAXPEAX@Z @ 5290 NONAME
 ?ExchangeBlobProp@CAsyncPropExchange@@UEAAHPEB_WPEAPEAXPEAX@Z @ 5291 NONAME
 ?ExchangeBlobProp@CPropbagPropExchange@@UEAAHPEB_WPEAPEAXPEAX@Z @ 5292 NONAME
 ?ExchangeBlobProp@CPropsetPropExchange@@UEAAHPEB_WPEAPEAXPEAX@Z @ 5293 NONAME
 ?ExchangeBlobProp@CResetPropExchange@@UEAAHPEB_WPEAPEAXPEAX@Z @ 5294 NONAME
 ?ExchangeExtent@COleControl@@QEAAHPEAVCPropExchange@@@Z @ 5295 NONAME
 ?ExchangeFontProp@CArchivePropExchange@@UEAAHPEB_WAEAVCFontHolder@@PEBUtagFONTDESC@@PEAUIFontDisp@@@Z @ 5296 NONAME
 ?ExchangeFontProp@CAsyncPropExchange@@UEAAHPEB_WAEAVCFontHolder@@PEBUtagFONTDESC@@PEAUIFontDisp@@@Z @ 5297 NONAME
 ?ExchangeFontProp@CPropbagPropExchange@@UEAAHPEB_WAEAVCFontHolder@@PEBUtagFONTDESC@@PEAUIFontDisp@@@Z @ 5298 NONAME
 ?ExchangeFontProp@CPropsetPropExchange@@UEAAHPEB_WAEAVCFontHolder@@PEBUtagFONTDESC@@PEAUIFontDisp@@@Z @ 5299 NONAME
 ?ExchangeFontProp@CResetPropExchange@@UEAAHPEB_WAEAVCFontHolder@@PEBUtagFONTDESC@@PEAUIFontDisp@@@Z @ 5300 NONAME
 ?ExchangePersistentProp@CArchivePropExchange@@UEAAHPEB_WPEAPEAUIUnknown@@AEBU_GUID@@PEAU2@@Z @ 5301 NONAME
 ?ExchangePersistentProp@CAsyncPropExchange@@UEAAHPEB_WPEAPEAUIUnknown@@AEBU_GUID@@PEAU2@@Z @ 5302 NONAME
 ?ExchangePersistentProp@CPropbagPropExchange@@UEAAHPEB_WPEAPEAUIUnknown@@AEBU_GUID@@PEAU2@@Z @ 5303 NONAME
 ?ExchangePersistentProp@CPropsetPropExchange@@UEAAHPEB_WPEAPEAUIUnknown@@AEBU_GUID@@PEAU2@@Z @ 5304 NONAME
 ?ExchangePersistentProp@CResetPropExchange@@UEAAHPEB_WPEAPEAUIUnknown@@AEBU_GUID@@PEAU2@@Z @ 5305 NONAME
 ?ExchangeProp@CArchivePropExchange@@UEAAHPEB_WGPEAXPEBX@Z @ 5306 NONAME
 ?ExchangeProp@CAsyncPropExchange@@UEAAHPEB_WGPEAXPEBX@Z @ 5307 NONAME
 ?ExchangeProp@CPropbagPropExchange@@UEAAHPEB_WGPEAXPEBX@Z @ 5308 NONAME
 ?ExchangeProp@CPropsetPropExchange@@UEAAHPEB_WGPEAXPEBX@Z @ 5309 NONAME
 ?ExchangeProp@CResetPropExchange@@UEAAHPEB_WGPEAXPEBX@Z @ 5310 NONAME
 ?ExchangeStockProps@COleControl@@QEAAXPEAVCPropExchange@@@Z @ 5311 NONAME
 ?ExchangeVersion@CAsyncPropExchange@@UEAAHAEAKKH@Z @ 5312 NONAME
 ?ExchangeVersion@COleControl@@QEAAHPEAVCPropExchange@@KH@Z @ 5313 NONAME
 ?ExchangeVersion@CPropExchange@@UEAAHAEAKKH@Z @ 5314 NONAME
 ?ExcludeClipRect@CDC@@QEAAHHHHH@Z @ 5315 NONAME
 ?ExcludeClipRect@CDC@@QEAAHPEBUtagRECT@@@Z @ 5316 NONAME
 ?ExcludeTag@AFX_GLOBAL_DATA@@QEAAHAEAV?$CStringT@_WV?$StrTraitMFC_DLL@_WV?$ChTraitsCRT@_W@ATL@@@@@ATL@@PEB_W0H@Z @ 5317 NONAME
 ?ExcludeTag@CTagManager@@QEAAHPEB_WAEAV?$CStringT@_WV?$StrTraitMFC_DLL@_WV?$ChTraitsCRT@_W@ATL@@@@@ATL@@H@Z @ 5318 NONAME
 ?ExcludeUpdateRgn@CDC@@QEAAHPEAVCWnd@@@Z @ 5319 NONAME
 ?Exec@XOleCommandTarget@CDocObjectServer@@UEAAJPEBU_GUID@@KKPEAUtagVARIANT@@1@Z @ 5320 NONAME
 ?Exec@XOleCommandTarget@COleFrameHook@@UEAAJPEBU_GUID@@KKPEAUtagVARIANT@@1@Z @ 5321 NONAME
 ?ExecCommand@COleDocObjectItem@@QEAAJKKPEBU_GUID@@@Z @ 5322 NONAME
 ?ExecFormsCommand@CHtmlView@@QEAAJKPEAUtagVARIANT@@0@Z @ 5323 NONAME
 ?ExecHandler@CHtmlEditView@@UEAAHI@Z @ 5324 NONAME
 ?ExecuteDlgInit@CWnd@@QEAAHPEAX@Z @ 5325 NONAME
 ?ExecuteDlgInit@CWnd@@QEAAHPEB_W@Z @ 5326 NONAME
 ?ExecuteSetPosUpdate@CRecordset@@IEAAXXZ @ 5327 NONAME
 ?ExecuteSQL@CDatabase@@QEAAXPEB_W@Z @ 5328 NONAME
 ?ExecuteUpdateSQL@CRecordset@@IEAAXXZ @ 5329 NONAME
 ?ExecWB@CHtmlView@@QEAAXW4OLECMDID@@W4OLECMDEXECOPT@@PEAUtagVARIANT@@2@Z @ 5330 NONAME
 ?ExitHelpMode@CFrameWnd@@UEAAXXZ @ 5331 NONAME
 ?ExitInstance@COleControlModule@@UEAAHXZ @ 5332 NONAME
 ?ExitInstance@CWinApp@@UEAAHXZ @ 5333 NONAME
 ?ExitInstance@CWinAppEx@@UEAAHXZ @ 5334 NONAME
 ?ExitInstance@CWinThread@@UEAAHXZ @ 5335 NONAME
 ?Expand@CMFCPropertyGridProperty@@QEAAXH@Z @ 5336 NONAME
 ?Expand@CTreeCtrl@@QEAAHPEAU_TREEITEM@@I@Z @ 5337 NONAME
 ?ExpandAll@CMFCPropertyGridCtrl@@QEAAXH@Z @ 5338 NONAME
 ?ExpandDeep@CMFCPropertyGridProperty@@IEAAXH@Z @ 5339 NONAME
 ?ExpandStretchedPanes@CDockingPanesRow@@QEAAXXZ @ 5340 NONAME
 ?ExpandStretchedPanesRect@CDockingPanesRow@@QEAAXXZ @ 5341 NONAME
 ?ExportToMenu@CMFCPopupMenuBar@@UEBAPEAUHMENU__@@XZ @ 5342 NONAME
 ?ExportToMenuButton@CMFCDropDownToolbarButton@@UEBAHAEAVCMFCToolBarMenuButton@@@Z @ 5343 NONAME
 ?ExportToMenuButton@CMFCToolBarButton@@UEBAHAEAVCMFCToolBarMenuButton@@@Z @ 5344 NONAME
 ?ExportToMenuButton@CMFCToolBarComboBoxButton@@UEBAHAEAVCMFCToolBarMenuButton@@@Z @ 5345 NONAME
 ?ExportToMenuButton@CMFCToolBarDateTimeCtrl@@UEBAHAEAVCMFCToolBarMenuButton@@@Z @ 5346 NONAME
 ?ExtendMenuButton@CMFCVisualManagerOfficeXP@@MEAAXPEAVCMFCToolBarMenuButton@@AEAVCRect@@@Z @ 5347 NONAME
 ?ExternalAddRef@CCmdTarget@@QEAAKXZ @ 5348 NONAME
 ?ExternalDisconnect@CCmdTarget@@QEAAXXZ @ 5349 NONAME
 ?ExternalQueryInterface@CCmdTarget@@QEAAKPEBXPEAPEAX@Z @ 5350 NONAME
 ?ExternalRelease@CCmdTarget@@QEAAKXZ @ 5351 NONAME
 ?ExtFloodFill@CDC@@QEAAHHHKI@Z @ 5352 NONAME
 ?ExtractIconW@CImageList@@QEAAPEAUHICON__@@H@Z @ 5353 NONAME
 ?ExtractIconW@CMFCToolBarImages@@QEAAPEAUHICON__@@H@Z @ 5354 NONAME
 ?ExtTextOutW@CDC@@QEAAHHHIPEBUtagRECT@@AEBV?$CStringT@_WV?$StrTraitMFC_DLL@_WV?$ChTraitsCRT@_W@ATL@@@@@ATL@@PEAH@Z @ 5355 NONAME
 ?ExtTextOutW@CDC@@UEAAHHHIPEBUtagRECT@@PEB_WIPEAH@Z @ 5356 NONAME
 ?ExtTextOutW@CMetaFileDC@@QEAAHHHIPEBUtagRECT@@AEBV?$CStringT@_WV?$StrTraitMFC_DLL@_WV?$ChTraitsCRT@_W@ATL@@@@@ATL@@PEAH@Z @ 5357 NONAME
 ?ExtTextOutW@CMetaFileDC@@UEAAHHHIPEBUtagRECT@@PEB_WIPEAH@Z @ 5358 NONAME
 ?ExtTextOutW@CPreviewDC@@UEAAHHHIPEBUtagRECT@@PEB_WIPEAH@Z @ 5359 NONAME
 ?Fail@CDataExchange@@QEAAXXZ @ 5360 NONAME
 ?FailedToDo@XNotifyDBEvents@COleControlSite@@UEAAJKKQEAUtagDBNOTIFYREASON@@@Z @ 5361 NONAME
 ?FetchData@CRecordset@@QEAAFGJPEA_K@Z @ 5362 NONAME
 ?Fill4ColorsGradient@CDrawingManager@@QEAAXVCRect@@KKKKHH@Z @ 5363 NONAME
 ?FillAllCommandsList@CMFCToolBarsCustomizeDialog@@UEBAXAEAVCListBox@@@Z @ 5364 NONAME
 ?FillAlpha@CDrawingManager@@QEAAXAEBVCRect@@E@Z @ 5365 NONAME
 ?FillBuffer@CArchive@@QEAAXI@Z @ 5366 NONAME
 ?FillCategoriesComboBox@CMFCToolBarsCustomizeDialog@@QEBAXAEAVCComboBox@@H@Z @ 5367 NONAME
 ?FillCategoriesListBox@CMFCToolBarsCustomizeDialog@@QEBAXAEAVCListBox@@H@Z @ 5368 NONAME
 ?FillContainsPoint@CD2DGeometry@@QEBAHVCD2DPointF@@AEBUD2D_MATRIX_3X2_F@@PEAHM@Z @ 5369 NONAME
 ?FillDefaultTabsOrderArray@CBaseTabbedPane@@QEAAXXZ @ 5370 NONAME
 ?FillDitheredRect@CMFCToolBarImages@@SAXPEAVCDC@@AEBVCRect@@@Z @ 5371 NONAME
 ?FillEllipse@CRenderTarget@@QEAAXAEBVCD2DEllipse@@PEAVCD2DBrush@@@Z @ 5372 NONAME
 ?FillFromArray@CMFCRibbonCommandsListBox@@QEAAXAEBV?$CArray@PEAVCMFCRibbonBaseElement@@PEAV1@@@HH@Z @ 5373 NONAME
 ?FillFromCategory@CMFCRibbonCommandsListBox@@QEAAXPEAVCMFCRibbonCategory@@@Z @ 5374 NONAME
 ?FillFromIDs@CMFCRibbonCommandsListBox@@QEAAXAEBV?$CList@II@@H@Z @ 5375 NONAME
 ?FillGeometry@CRenderTarget@@QEAAXPEAVCD2DGeometry@@PEAVCD2DBrush@@1@Z @ 5376 NONAME
 ?FillGradient@CDrawingManager@@QEAAXVCRect@@KKHHH@Z @ 5377 NONAME
 ?FillGradient2@CDrawingManager@@QEAAXVCRect@@KKH@Z @ 5378 NONAME
 ?FillInLogFont@CFontDialog@@QEAAKAEBU_charformatw@@@Z @ 5379 NONAME
 ?FillInterior@CMFCControlRenderer@@UEAAXPEAVCDC@@VCRect@@IE@Z @ 5380 NONAME
 ?FillInterior@CMFCControlRenderer@@UEAAXPEAVCDC@@VCRect@@W4ImageAlignHorz@CMFCToolBarImages@@W4ImageAlignVert@5@IE@Z @ 5381 NONAME
 ?FillInterior@CMFCToolBarButton@@IEAAXPEAVCDC@@AEBVCRect@@HH@Z @ 5382 NONAME
 ?FillInToolInfo@CToolTipCtrl@@QEBAXAEAUtagTOOLINFOW@@PEAVCWnd@@_K@Z @ 5383 NONAME
 ?FillList@CMFCRibbonRecentFilesList@@QEAAXXZ @ 5384 NONAME
 ?FillListSitesOrWnds@COleControlContainer@@UEAAHPEAU_AFX_OCC_DIALOG_INFO@@@Z @ 5385 NONAME
 ?FillMesh@CRenderTarget@@QEAAXPEAVCD2DMesh@@PEAVCD2DBrush@@@Z @ 5386 NONAME
 ?FillOpacityMask@CRenderTarget@@QEAAXPEAVCD2DBitmap@@PEAVCD2DBrush@@W4D2D1_OPACITY_MASK_CONTENT@@AEBVCD2DRectF@@3@Z @ 5387 NONAME
 ?FillOutsideRect@CScrollView@@QEAAXPEAVCDC@@PEAVCBrush@@@Z @ 5388 NONAME
 ?FillPath@CDC@@QEAAHXZ @ 5389 NONAME
 ?FillReBarPane@CMFCBaseVisualManager@@UEAAXPEAVCDC@@PEAVCBasePane@@VCRect@@@Z @ 5390 NONAME
 ?FillRect@CDC@@QEAAXPEBUtagRECT@@PEAVCBrush@@@Z @ 5391 NONAME
 ?FillRectangle@CRenderTarget@@QEAAXAEBVCD2DRectF@@PEAVCD2DBrush@@@Z @ 5392 NONAME
 ?FillRgn@CDC@@QEAAHPEAVCRgn@@PEAVCBrush@@@Z @ 5393 NONAME
 ?FillRoundedRectangle@CRenderTarget@@QEAAXAEBVCD2DRoundedRect@@PEAVCD2DBrush@@@Z @ 5394 NONAME
 ?FillSolidRect@CDC@@QEAAXHHHHK@Z @ 5395 NONAME
 ?FillSolidRect@CDC@@QEAAXPEBUtagRECT@@K@Z @ 5396 NONAME
 ?FillStruct@CTaskDialog@@AEAAXAEAU_TASKDIALOGCONFIG@@@Z @ 5397 NONAME
 ?FillWindowList@CMFCRibbonButton@@IEAAXXZ @ 5398 NONAME
 ?FillWindowList@CMFCWindowsManagerDialog@@IEAAXXZ @ 5399 NONAME
 ?Filter@CMFCZoomKernel@@SANW4XFilterType@1@N@Z @ 5400 NONAME
 ?FilterDataObject@CBrowserControlSite@@MEAAJPEAUIDataObject@@PEAPEAU2@@Z @ 5401 NONAME
 ?FilterDataObject@CDHtmlDialog@@UEAAJPEAUIDataObject@@PEAPEAU2@@Z @ 5402 NONAME
 ?FilterDataObject@XDocHostUIHandler@CHtmlControlSite@@UEAAJPEAUIDataObject@@PEAPEAU3@@Z @ 5403 NONAME
 ?FilterProc@CMFCZoomKernel@@SAP6ANN@ZW4XFilterType@1@@Z @ 5404 NONAME
 ?FilterToolTipMessage@CWnd@@QEAAXPEAUtagMSG@@@Z @ 5405 NONAME
 ?FilterWidth@CMFCZoomKernel@@SANW4XFilterType@1@@Z @ 5406 NONAME
 ?Find@?$CStringT@_WV?$StrTraitMFC_DLL@_WV?$ChTraitsCRT@_W@ATL@@@@@ATL@@QEBAH_WH@Z @ 5407 NONAME
 ?Find@?$CStringT@_WV?$StrTraitMFC_DLL@_WV?$ChTraitsCRT@_W@ATL@@@@@ATL@@QEBAHPEB_WH@Z @ 5408 NONAME
 ?Find@?$CStringT@DV?$StrTraitMFC_DLL@DV?$ChTraitsCRT@D@ATL@@@@@ATL@@QEBAHDH@Z @ 5409 NONAME
 ?Find@?$CStringT@DV?$StrTraitMFC_DLL@DV?$ChTraitsCRT@D@ATL@@@@@ATL@@QEBAHPEBDH@Z @ 5410 NONAME
 ?Find@CMFCRibbonBaseElement@@UEAAPEAV1@PEBV1@@Z @ 5411 NONAME
 ?Find@CMFCRibbonButtonsGroup@@MEAAPEAVCMFCRibbonBaseElement@@PEBV2@@Z @ 5412 NONAME
 ?Find@CObList@@QEBAPEAU__POSITION@@PEAVCObject@@PEAU2@@Z @ 5413 NONAME
 ?Find@CPtrList@@QEBAPEAU__POSITION@@PEAXPEAU2@@Z @ 5414 NONAME
 ?Find@CStringList@@QEBAPEAU__POSITION@@PEB_WPEAU2@@Z @ 5415 NONAME
 ?FindActiveTabWnd@CMDIClientAreaWnd@@QEAAPEAVCMFCTabCtrl@@XZ @ 5416 NONAME
 ?FindActiveTabWndByActiveChild@CMDIClientAreaWnd@@QEAAPEAVCMFCTabCtrl@@XZ @ 5417 NONAME
 ?FindAndSelect@CRichEditView@@QEAAJKAEAU_findtextexw@@@Z @ 5418 NONAME
 ?FindAnimationGroup@CAnimationController@@QEAAPEAVCAnimationGroup@@I@Z @ 5419 NONAME
 ?FindAnimationGroup@CAnimationController@@QEAAPEAVCAnimationGroup@@PEAUIUIAnimationStoryboard@@@Z @ 5420 NONAME
 ?FindAnimationObject@CAnimationController@@QEAAHPEAUIUIAnimationVariable@@PEAPEAVCAnimationBaseObject@@PEAPEAVCAnimationGroup@@@Z @ 5421 NONAME
 ?FindAnimationObject@CAnimationGroup@@QEAAPEAVCAnimationBaseObject@@PEAUIUIAnimationVariable@@@Z @ 5422 NONAME
 ?FindAvailablePageID@CMFCOutlookBar@@IEAAIXZ @ 5423 NONAME
 ?FindBar@CDockBar@@QEAAHPEAVCControlBar@@H@Z @ 5424 NONAME
 ?FindBarByTabNumber@CBaseTabbedPane@@UEAAPEAVCWnd@@HH@Z @ 5425 NONAME
 ?FindButton@CDockablePane@@IEBAPEAVCMFCCaptionButton@@VCPoint@@@Z @ 5426 NONAME
 ?FindButton@CPaneFrameWnd@@IEBAPEAVCMFCCaptionButton@@I@Z @ 5427 NONAME
 ?FindButton@CPaneFrameWnd@@IEBAPEAVCMFCCaptionButton@@VCPoint@@@Z @ 5428 NONAME
 ?FindButtonByHit@CDockablePane@@IEBAPEAVCMFCCaptionButton@@I@Z @ 5429 NONAME
 ?FindByData@CMFCRibbonBar@@QEBAPEAVCMFCRibbonBaseElement@@_KH@Z @ 5430 NONAME
 ?FindByData@CMFCRibbonBaseElement@@UEAAPEAV1@_K@Z @ 5431 NONAME
 ?FindByData@CMFCRibbonButton@@MEAAPEAVCMFCRibbonBaseElement@@_K@Z @ 5432 NONAME
 ?FindByData@CMFCRibbonButtonsGroup@@MEAAPEAVCMFCRibbonBaseElement@@_K@Z @ 5433 NONAME
 ?FindByData@CMFCRibbonCategory@@QEBAPEAVCMFCRibbonBaseElement@@_KH@Z @ 5434 NONAME
 ?FindByData@CMFCRibbonPanel@@QEBAPEAVCMFCRibbonBaseElement@@_K@Z @ 5435 NONAME
 ?FindByID@CMFCRibbonBar@@QEBAPEAVCMFCRibbonBaseElement@@IHH@Z @ 5436 NONAME
 ?FindByID@CMFCRibbonBaseElement@@UEAAPEAV1@I@Z @ 5437 NONAME
 ?FindByID@CMFCRibbonButton@@MEAAPEAVCMFCRibbonBaseElement@@I@Z @ 5438 NONAME
 ?FindByID@CMFCRibbonButtonsGroup@@MEAAPEAVCMFCRibbonBaseElement@@I@Z @ 5439 NONAME
 ?FindByID@CMFCRibbonCategory@@QEBAPEAVCMFCRibbonBaseElement@@IH@Z @ 5440 NONAME
 ?FindByID@CMFCRibbonPanel@@QEBAPEAVCMFCRibbonBaseElement@@I@Z @ 5441 NONAME
 ?FindByOrigin@CMFCRibbonPanelMenuBar@@QEBAPEAVCMFCRibbonBaseElement@@PEAV2@@Z @ 5442 NONAME
 ?FindByOriginal@CMFCRibbonBaseElement@@UEAAPEAV1@PEAV1@@Z @ 5443 NONAME
 ?FindByOriginal@CMFCRibbonButtonsGroup@@MEAAPEAVCMFCRibbonBaseElement@@PEAV2@@Z @ 5444 NONAME
 ?FindCategoryIndexByData@CMFCRibbonBar@@QEBAHK@Z @ 5445 NONAME
 ?FindChunk@CDocument@@UEAAPEAU__POSITION@@AEBU_GUID@@K@Z @ 5446 NONAME
 ?FindConnectionPoint@COleConnPtContainer@@UEAAJAEBU_GUID@@PEAPEAUIConnectionPoint@@@Z @ 5447 NONAME
 ?FindContextCaption@CMFCRibbonBar@@IEBAPEAVCMFCRibbonContextCaption@@I@Z @ 5448 NONAME
 ?FindDefaultAccelerator@CKeyboardManager@@SAHIAEAV?$CStringT@_WV?$StrTraitMFC_DLL@_WV?$ChTraitsCRT@_W@ATL@@@@@ATL@@PEAVCFrameWnd@@H@Z @ 5449 NONAME
 ?FindDestintationToolBar@CMFCPopupMenuBar@@QEAAPEAVCMFCToolBar@@VCPoint@@@Z @ 5450 NONAME
 ?FindDHtmlEventEntry@CDHtmlEventSink@@QEAAHPEBUDHtmlEventMapEntry@@JPEAPEAUIHTMLElement@@@Z @ 5451 NONAME
 ?FindDockSite@CDockingManager@@UEAAPEAVCDockSite@@KH@Z @ 5452 NONAME
 ?FindDockSiteByPane@CDockingManager@@UEAAPEAVCDockSite@@PEAVCPane@@@Z @ 5453 NONAME
 ?FindDropIndex@CMFCMenuBar@@MEBAHVCPoint@@AEAVCRect@@@Z @ 5454 NONAME
 ?FindDropIndex@CMFCPopupMenuBar@@MEBAHVCPoint@@AEAVCRect@@@Z @ 5455 NONAME
 ?FindDropIndex@CMFCToolBar@@MEBAHVCPoint@@AEAVCRect@@@Z @ 5456 NONAME
 ?FindElement@CMFCRibbonStatusBar@@QEAAPEAVCMFCRibbonBaseElement@@I@Z @ 5457 NONAME
 ?FindFile@CFileFind@@UEAAHPEB_WK@Z @ 5458 NONAME
 ?FindFile@CFtpFileFind@@UEAAHPEB_WK@Z @ 5459 NONAME
 ?FindFile@CGopherFileFind@@UEAAHAEAVCGopherLocator@@PEB_WK@Z @ 5460 NONAME
 ?FindFile@CGopherFileFind@@UEAAHPEB_WK@Z @ 5461 NONAME
 ?FindFirstVisiblePane@CDockingPanesRow@@IEAAPEAVCPane@@H@Z @ 5462 NONAME
 ?FindFloatingPaneByID@CPaneFrameWnd@@SAPEAVCBasePane@@I@Z @ 5463 NONAME
 ?FindIndex@CMFCVisualManagerBitmapCache@@QEBAHAEBVCSize@@@Z @ 5464 NONAME
 ?FindIndex@CObList@@QEBAPEAU__POSITION@@_J@Z @ 5465 NONAME
 ?FindIndex@CPtrList@@QEBAPEAU__POSITION@@_J@Z @ 5466 NONAME
 ?FindIndex@CStringList@@QEBAPEAU__POSITION@@_J@Z @ 5467 NONAME
 ?FindItem@CListCtrl@@QEBAHPEAUtagLVFINDINFOW@@H@Z @ 5468 NONAME
 ?FindItem@CMFCRibbonComboBox@@QEBAHPEB_W@Z @ 5469 NONAME
 ?FindItem@CMFCToolBarComboBoxButton@@QEBAHPEB_W@Z @ 5470 NONAME
 ?FindItem@COleControlContainer@@UEBAPEAVCOleControlSite@@I@Z @ 5471 NONAME
 ?FindItemByData@CMFCPropertyGridCtrl@@QEBAPEAVCMFCPropertyGridProperty@@_KH@Z @ 5472 NONAME
 ?FindMenuItemText@CMFCMenuBar@@KAHPEAUHMENU__@@IAEAV?$CStringT@_WV?$StrTraitMFC_DLL@_WV?$ChTraitsCRT@_W@ATL@@@@@ATL@@@Z @ 5473 NONAME
 ?FindMenuWithConnectedFloaty@CMFCPopupMenu@@KAPEAV1@XZ @ 5474 NONAME
 ?FindNearest@CMFCRibbonBar@@KAPEAVCMFCRibbonBaseElement@@VCPoint@@AEBV?$CArray@PEAVCMFCRibbonBaseElement@@PEAV1@@@@Z @ 5475 NONAME
 ?FindNext@CFindReplaceDialog@@QEBAHXZ @ 5476 NONAME
 ?FindNextFileW@CFileFind@@UEAAHXZ @ 5477 NONAME
 ?FindNextFileW@CFtpFileFind@@UEAAHXZ @ 5478 NONAME
 ?FindNextFileW@CGopherFileFind@@UEAAHXZ @ 5479 NONAME
 ?FindNextFocusedElement@CMFCRibbonBar@@KAPEAVCMFCRibbonBaseElement@@HAEBV?$CArray@PEAVCMFCRibbonBaseElement@@PEAV1@@@VCRect@@PEAV2@HHAEAH@Z @ 5480 NONAME
 ?FindNextRegisteredWithTaskbarMDIChild@CMDIClientAreaWnd@@QEAAPEAVCMDIChildWndEx@@PEAV2@@Z @ 5481 NONAME
 ?FindNextRegisteredWithTaskbarMDIChild@CMDIClientAreaWnd@@QEAAPEAVCMDIChildWndEx@@PEAVCMFCTabCtrl@@H@Z @ 5482 NONAME
 ?FindNextVisibleRow@CDockSite@@IEAAPEAVCDockingPanesRow@@AEAPEAU__POSITION@@H@Z @ 5483 NONAME
 ?FindOneOf@?$CStringT@_WV?$StrTraitMFC_DLL@_WV?$ChTraitsCRT@_W@ATL@@@@@ATL@@QEBAHPEB_W@Z @ 5484 NONAME
 ?FindOneOf@?$CStringT@DV?$StrTraitMFC_DLL@DV?$ChTraitsCRT@D@ATL@@@@@ATL@@QEBAHPEBD@Z @ 5485 NONAME
 ?FindPageIndexInList@CMFCPropertySheet@@IEAAHPEAVCPropertyPage@@@Z @ 5486 NONAME
 ?FindPageRect@CPreviewView@@IEAAHAEAVCPoint@@AEAI@Z @ 5487 NONAME
 ?FindPane@CPaneContainerManager@@IEAAIVCPoint@@PEAPEAVCPane@@AEAPEAU__POSITION@@@Z @ 5488 NONAME
 ?FindPane@CPaneContainerManager@@IEAAIVCRect@@PEAPEAVCPane@@AEAPEAU__POSITION@@@Z @ 5489 NONAME
 ?FindPaneByID@CBaseTabbedPane@@UEAAPEAVCWnd@@I@Z @ 5490 NONAME
 ?FindPaneByID@CDockingManager@@UEAAPEAVCBasePane@@IH@Z @ 5491 NONAME
 ?FindPaneByID@CDockSite@@QEAAPEAVCPane@@I@Z @ 5492 NONAME
 ?FindPaneContainer@CPaneContainerManager@@UEAAPEAVCPaneContainer@@PEAVCDockablePane@@AEAH@Z @ 5493 NONAME
 ?FindPaneContainer@CPaneDivider@@QEAAPEAVCPaneContainer@@PEAVCDockablePane@@AEAH@Z @ 5494 NONAME
 ?FindPanelWithElem@CMFCRibbonCategory@@QEAAPEAVCMFCRibbonPanel@@PEBVCMFCRibbonBaseElement@@@Z @ 5495 NONAME
 ?FindRowByRect@CDockSite@@IEAAPEAVCDockingPanesRow@@VCRect@@@Z @ 5496 NONAME
 ?FindRowIndex@CDockSite@@QEAAHPEAVCDockingPanesRow@@@Z @ 5497 NONAME
 ?FindSinkForObject@CDHtmlDialog@@IEAAHPEB_W@Z @ 5498 NONAME
 ?FindSiteOrWnd@CWnd@@QEBAPEAU__POSITION@@PEBUCOleControlSiteOrWnd@@@Z @ 5499 NONAME
 ?FindSiteOrWndWithFocus@CWnd@@QEBAPEAU__POSITION@@XZ @ 5500 NONAME
 ?FindSQLToken@CRecordset@@SAPEB_WPEB_W0@Z @ 5501 NONAME
 ?FindString@CComboBox@@QEBAHHPEB_W@Z @ 5502 NONAME
 ?FindString@CComboBoxEx@@QEBAHHPEB_W@Z @ 5503 NONAME
 ?FindString@CListBox@@QEBAHHPEB_W@Z @ 5504 NONAME
 ?FindStringExact@CComboBox@@QEBAHHPEB_W@Z @ 5505 NONAME
 ?FindStringExact@CListBox@@QEBAHHPEB_W@Z @ 5506 NONAME
 ?FindSubItemByCommand@CMFCPopupMenu@@QEBAPEAVCMFCToolBarMenuButton@@I@Z @ 5507 NONAME
 ?FindSubItemByData@CMFCPropertyGridProperty@@IEBAPEAV1@_K@Z @ 5508 NONAME
 ?FindSubItemIndexByID@CMFCRibbonButton@@QEBAHI@Z @ 5509 NONAME
 ?FindSubPaneContainer@CPaneContainer@@QEAAPEAV1@PEBVCObject@@W4BC_FIND_CRITERIA@1@@Z @ 5510 NONAME
 ?FindTab@CTabView@@QEBAHPEAUHWND__@@@Z @ 5511 NONAME
 ?FindTabbedPane@CPaneContainer@@QEAAPEAVCDockablePane@@I@Z @ 5512 NONAME
 ?FindTabbedPane@CPaneContainerManager@@QEAAPEAVCDockablePane@@I@Z @ 5513 NONAME
 ?FindTabbedPane@CPaneDivider@@QEAAPEAVCDockablePane@@I@Z @ 5514 NONAME
 ?FindTabInfo@CMFCBaseTabCtrl@@IEAAHHPEAPEAVCMFCTabInfo@@@Z @ 5515 NONAME
 ?FindTabWndByChild@CMDIClientAreaWnd@@QEAAPEAVCMFCTabCtrl@@PEAUHWND__@@AEAH@Z @ 5516 NONAME
 ?FindTargetWnd@CMFCOutlookBarTabCtrl@@UEAAPEAVCWnd@@AEBVCPoint@@@Z @ 5517 NONAME
 ?FindTargetWnd@CMFCTabCtrl@@MEAAPEAVCWnd@@AEBVCPoint@@@Z @ 5518 NONAME
 ?FindTextSimple@CRichEditView@@QEAAHPEAV_AFX_RICHEDIT_STATE@@@Z @ 5519 NONAME
 ?FindTextSimple@CRichEditView@@QEAAHPEB_WHHH@Z @ 5520 NONAME
 ?FindTextW@CEditView@@QEAAHPEB_WHH@Z @ 5521 NONAME
 ?FindTextW@CRichEditCtrl@@QEBAJKPEAU_findtextexw@@@Z @ 5522 NONAME
 ?FindTextW@CRichEditView@@QEAAHPEAV_AFX_RICHEDIT_STATE@@@Z @ 5523 NONAME
 ?FindTextW@CRichEditView@@QEAAHPEB_WHHH@Z @ 5524 NONAME
 ?FindTool@CUserToolsManager@@QEBAPEAVCUserTool@@I@Z @ 5525 NONAME
 ?FindWindowExW@CWnd@@SAPEAV1@PEAUHWND__@@0PEB_W1@Z @ 5526 NONAME
 ?FindWindowW@CWnd@@SAPEAV1@PEB_W0@Z @ 5527 NONAME
 ?FindWordBreak@CRichEditCtrl@@QEBAKIK@Z @ 5528 NONAME
 ?FinishCreate@COleClientItem@@MEAAHJ@Z @ 5529 NONAME
 ?FireChangeActiveTab@CMFCBaseTabCtrl@@UEAAXH@Z @ 5530 NONAME
 ?FireChangingActiveTab@CMFCBaseTabCtrl@@UEAAHH@Z @ 5531 NONAME
 ?FireClick@COleControl@@QEAAXXZ @ 5532 NONAME
 ?FireDblClick@COleControl@@QEAAXXZ @ 5533 NONAME
 ?FireError@COleControl@@QEAAXJPEB_WI@Z @ 5534 NONAME
 ?FireEvent@COleControl@@QEAAXJPEAEZZ @ 5535 NONAME
 ?FireEvent@XNotifyDBEvents@COleControlSite@@QEAAJKKQEAUtagDBNOTIFYREASON@@W4DSCSTATE@@@Z @ 5536 NONAME
 ?FireEventV@COleControl@@IEAAXJPEAEPEAD@Z @ 5537 NONAME
 ?FireKeyDown@COleControl@@QEAAXPEAGF@Z @ 5538 NONAME
 ?FireKeyPress@COleControl@@QEAAXPEAG@Z @ 5539 NONAME
 ?FireKeyUp@COleControl@@QEAAXPEAGF@Z @ 5540 NONAME
 ?FireMouseDown@COleControl@@QEAAXFFJJ@Z @ 5541 NONAME
 ?FireMouseMove@COleControl@@QEAAXFFJJ@Z @ 5542 NONAME
 ?FireMouseUp@COleControl@@QEAAXFFJJ@Z @ 5543 NONAME
 ?FireReadyStateChange@COleControl@@QEAAXXZ @ 5544 NONAME
 ?Fixups@CRecordset@@QEAAXXZ @ 5545 NONAME
 ?FixupVirtualRects@CDockingManager@@UEAAXXZ @ 5546 NONAME
 ?FixupVirtualRects@CDockingPanesRow@@QEAAX_NPEAVCPane@@@Z @ 5547 NONAME
 ?FixupVirtualRects@CDockSite@@UEAAXXZ @ 5548 NONAME
 ?FlashWindow@CWnd@@QEAAHH@Z @ 5549 NONAME
 ?FlattenPath@CDC@@QEAAHXZ @ 5550 NONAME
 ?FlipRect@CGlobalUtils@@QEAAXAEAVCRect@@H@Z @ 5551 NONAME
 ?FloatControlBar@CFrameWnd@@QEAAXPEAVCControlBar@@VCPoint@@K@Z @ 5552 NONAME
 ?FloatPane@CBaseTabbedPane@@MEAAHVCRect@@W4AFX_DOCK_METHOD@@_N@Z @ 5553 NONAME
 ?FloatPane@CPane@@UEAAHVCRect@@W4AFX_DOCK_METHOD@@_N@Z @ 5554 NONAME
 ?FloatTab@CBaseTabbedPane@@UEAAHPEAVCWnd@@HW4AFX_DOCK_METHOD@@H@Z @ 5555 NONAME
 ?FloatTab@CMFCOutlookBar@@UEAAHPEAVCWnd@@HW4AFX_DOCK_METHOD@@H@Z @ 5556 NONAME
 ?FloatTab@CTabbedPane@@UEAAHPEAVCWnd@@HW4AFX_DOCK_METHOD@@H@Z @ 5557 NONAME
 ?FloodFill@CDC@@QEAAHHHK@Z @ 5558 NONAME
 ?FloodFill@CMFCImagePaintArea@@IEAAXAEBVCPoint@@@Z @ 5559 NONAME
 ?Flush@CArchive@@QEAAXXZ @ 5560 NONAME
 ?Flush@CDumpContext@@QEAAXXZ @ 5561 NONAME
 ?Flush@CFile@@UEAAXXZ @ 5562 NONAME
 ?Flush@CInternetFile@@UEAAXXZ @ 5563 NONAME
 ?Flush@CMemFile@@UEAAXXZ @ 5564 NONAME
 ?Flush@CMonikerFile@@UEAAXXZ @ 5565 NONAME
 ?Flush@COleStreamFile@@UEAAXXZ @ 5566 NONAME
 ?Flush@CRenderTarget@@QEAAXPEA_K0@Z @ 5567 NONAME
 ?Flush@CSocketFile@@UEAAXXZ @ 5568 NONAME
 ?Flush@CStdioFile@@UEAAXXZ @ 5569 NONAME
 ?FlushClipboard@COleDataSource@@SAXXZ @ 5570 NONAME
 ?FlushResultSet@CRecordset@@QEAAHXZ @ 5571 NONAME
 ?FmtLines@CEdit@@QEAAHH@Z @ 5572 NONAME
 ?Focus@CMFCPreviewCtrlImpl@@UEAAXXZ @ 5573 NONAME
 ?ForceAdjustLayout@CGlobalUtils@@QEAAXPEAVCDockingManager@@HH@Z @ 5574 NONAME
 ?ForceRecalcLayout@CMFCRibbonBar@@QEAAXXZ @ 5575 NONAME
 ?Fork@?$CSimpleStringT@_W$00@ATL@@AEAAXH@Z @ 5576 NONAME
 ?Fork@?$CSimpleStringT@D$00@ATL@@AEAAXH@Z @ 5577 NONAME
 ?Format@?$CStringT@_WV?$StrTraitMFC_DLL@_WV?$ChTraitsCRT@_W@ATL@@@@@ATL@@QEAAXIZZ @ 5578 NONAME
 ?Format@?$CStringT@_WV?$StrTraitMFC_DLL@_WV?$ChTraitsCRT@_W@ATL@@@@@ATL@@QEAAXPEB_WZZ @ 5579 NONAME
 ?Format@?$CStringT@DV?$StrTraitMFC_DLL@DV?$ChTraitsCRT@D@ATL@@@@@ATL@@QEAAXIZZ @ 5580 NONAME
 ?Format@?$CStringT@DV?$StrTraitMFC_DLL@DV?$ChTraitsCRT@D@ATL@@@@@ATL@@QEAAXPEBDZZ @ 5581 NONAME
 ?Format@CMFCAcceleratorKey@@QEBAXAEAV?$CStringT@_WV?$StrTraitMFC_DLL@_WV?$ChTraitsCRT@_W@ATL@@@@@ATL@@@Z @ 5582 NONAME
 ?Format@COleCurrency@@QEBA?AV?$CStringT@_WV?$StrTraitMFC_DLL@_WV?$ChTraitsCRT@_W@ATL@@@@@ATL@@KK@Z @ 5583 NONAME
 ?FormatItem@CMFCKeyMapDialog@@MEBA?AV?$CStringT@_WV?$StrTraitMFC_DLL@_WV?$ChTraitsCRT@_W@ATL@@@@@ATL@@H@Z @ 5584 NONAME
 ?FormatMessage@?$CStringT@_WV?$StrTraitMFC_DLL@_WV?$ChTraitsCRT@_W@ATL@@@@@ATL@@QEAAXIZZ @ 5585 NONAME
 ?FormatMessage@?$CStringT@_WV?$StrTraitMFC_DLL@_WV?$ChTraitsCRT@_W@ATL@@@@@ATL@@QEAAXPEB_WZZ @ 5586 NONAME
 ?FormatMessage@?$CStringT@DV?$StrTraitMFC_DLL@DV?$ChTraitsCRT@D@ATL@@@@@ATL@@QEAAXIZZ @ 5587 NONAME
 ?FormatMessage@?$CStringT@DV?$StrTraitMFC_DLL@DV?$ChTraitsCRT@D@ATL@@@@@ATL@@QEAAXPEBDZZ @ 5588 NONAME
 ?FormatMessageV@?$CStringT@_WV?$StrTraitMFC_DLL@_WV?$ChTraitsCRT@_W@ATL@@@@@ATL@@QEAAXPEB_WPEAPEAD@Z @ 5589 NONAME
 ?FormatMessageV@?$CStringT@DV?$StrTraitMFC_DLL@DV?$ChTraitsCRT@D@ATL@@@@@ATL@@QEAAXPEBDPEAPEAD@Z @ 5590 NONAME
 ?FormatMessageW@?$CStringT@_WV?$StrTraitMFC_DLL@_WV?$ChTraitsCRT@_W@ATL@@@@@ATL@@QEAAXIZZ @ 5591 NONAME
 ?FormatMessageW@?$CStringT@_WV?$StrTraitMFC_DLL@_WV?$ChTraitsCRT@_W@ATL@@@@@ATL@@QEAAXPEB_WZZ @ 5592 NONAME
 ?FormatMessageW@?$CStringT@DV?$StrTraitMFC_DLL@DV?$ChTraitsCRT@D@ATL@@@@@ATL@@QEAAXIZZ @ 5593 NONAME
 ?FormatMessageW@?$CStringT@DV?$StrTraitMFC_DLL@DV?$ChTraitsCRT@D@ATL@@@@@ATL@@QEAAXPEBDZZ @ 5594 NONAME
 ?FormatProperty@CMFCPropertyGridColorProperty@@UEAA?AV?$CStringT@_WV?$StrTraitMFC_DLL@_WV?$ChTraitsCRT@_W@ATL@@@@@ATL@@XZ @ 5595 NONAME
 ?FormatProperty@CMFCPropertyGridFontProperty@@UEAA?AV?$CStringT@_WV?$StrTraitMFC_DLL@_WV?$ChTraitsCRT@_W@ATL@@@@@ATL@@XZ @ 5596 NONAME
 ?FormatProperty@CMFCPropertyGridProperty@@UEAA?AV?$CStringT@_WV?$StrTraitMFC_DLL@_WV?$ChTraitsCRT@_W@ATL@@@@@ATL@@XZ @ 5597 NONAME
 ?FormatRange@CRichEditCtrl@@QEAAJPEAU_formatrange@@H@Z @ 5598 NONAME
 ?FormatV@?$CStringT@_WV?$StrTraitMFC_DLL@_WV?$ChTraitsCRT@_W@ATL@@@@@ATL@@QEAAXPEB_WPEAD@Z @ 5599 NONAME
 ?FormatV@?$CStringT@DV?$StrTraitMFC_DLL@DV?$ChTraitsCRT@D@ATL@@@@@ATL@@QEAAXPEBDPEAD@Z @ 5600 NONAME
 ?ForwardActivationMsg@COleControl@@IEAAXPEAUtagMSG@@@Z @ 5601 NONAME
 ?FrameFromPoint@CDockingManager@@UEBAPEAVCPaneFrameWnd@@VCPoint@@PEAV2@H@Z @ 5602 NONAME
 ?FrameFromPoint@CPaneFrameWnd@@SAPEAV1@VCPoint@@HPEAV1@H@Z @ 5603 NONAME
 ?FrameRect@CDC@@QEAAXPEBUtagRECT@@PEAVCBrush@@@Z @ 5604 NONAME
 ?FrameRgn@CDC@@QEAAHPEAVCRgn@@PEAVCBrush@@HH@Z @ 5605 NONAME
 ?Free@CAfxStringMgr@@UEAAXPEAUCStringData@ATL@@@Z @ 5606 NONAME
 ?Free@CDatabase@@IEAAXXZ @ 5607 NONAME
 ?Free@CFixedAlloc@@QEAAXPEAX@Z @ 5608 NONAME
 ?Free@CFixedAllocNoSync@@QEAAXPEAX@Z @ 5609 NONAME
 ?Free@CMemFile@@MEAAXPEAE@Z @ 5610 NONAME
 ?Free@CSharedFile@@MEAAXPEAE@Z @ 5611 NONAME
 ?FreeAll@CFixedAlloc@@QEAAXXZ @ 5612 NONAME
 ?FreeAll@CFixedAllocNoSync@@QEAAXXZ @ 5613 NONAME
 ?FreeAssoc@CMapPtrToPtr@@IEAAXPEAUCAssoc@1@@Z @ 5614 NONAME
 ?FreeAssoc@CMapPtrToWord@@IEAAXPEAUCAssoc@1@@Z @ 5615 NONAME
 ?FreeAssoc@CMapStringToOb@@IEAAXPEAUCAssoc@1@@Z @ 5616 NONAME
 ?FreeAssoc@CMapStringToPtr@@IEAAXPEAUCAssoc@1@@Z @ 5617 NONAME
 ?FreeAssoc@CMapStringToString@@IEAAXPEAVCAssoc@1@@Z @ 5618 NONAME
 ?FreeAssoc@CMapWordToOb@@IEAAXPEAUCAssoc@1@@Z @ 5619 NONAME
 ?FreeAssoc@CMapWordToPtr@@IEAAXPEAUCAssoc@1@@Z @ 5620 NONAME
 ?FreeDataCache@CRecordset@@QEAAXXZ @ 5621 NONAME
 ?FreeDataChain@CPlex@@QEAAXXZ @ 5622 NONAME
 ?FreeExtra@?$CSimpleStringT@_W$00@ATL@@QEAAXXZ @ 5623 NONAME
 ?FreeExtra@?$CSimpleStringT@D$00@ATL@@QEAAXXZ @ 5624 NONAME
 ?FreeExtra@CByteArray@@QEAAXXZ @ 5625 NONAME
 ?FreeExtra@CDWordArray@@QEAAXXZ @ 5626 NONAME
 ?FreeExtra@CObArray@@QEAAXXZ @ 5627 NONAME
 ?FreeExtra@CPtrArray@@QEAAXXZ @ 5628 NONAME
 ?FreeExtra@CStringArray@@QEAAXXZ @ 5629 NONAME
 ?FreeExtra@CUIntArray@@QEAAXXZ @ 5630 NONAME
 ?FreeExtra@CWordArray@@QEAAXXZ @ 5631 NONAME
 ?FreeItem@CShellManager@@QEAAXPEFAU_ITEMIDLIST@@@Z @ 5632 NONAME
 ?FreeNode@CObList@@IEAAXPEAUCNode@1@@Z @ 5633 NONAME
 ?FreeNode@CPtrList@@IEAAXPEAUCNode@1@@Z @ 5634 NONAME
 ?FreeNode@CStringList@@IEAAXPEAUCNode@1@@Z @ 5635 NONAME
 ?FreeReleasedPaneContainer@CPaneContainer@@IEAAXXZ @ 5636 NONAME
 ?FreeRowset@CRecordset@@IEAAXXZ @ 5637 NONAME
 ?FreeSlot@CThreadSlotData@@QEAAXH@Z @ 5638 NONAME
 ?FreeStruct@CTaskDialog@@AEAAXAEAU_TASKDIALOGCONFIG@@@Z @ 5639 NONAME
 ?FreeSubclassedControls@CMFCControlContainer@@QEAAXXZ @ 5640 NONAME
 ?FreeValue@CProperty@@AEAAXXZ @ 5641 NONAME
 ?Freeze@XViewObject@COleControl@@UEAAJKJPEAXPEAK@Z @ 5642 NONAME
 ?FreezeAllEvents@COleControlContainer@@QEAAXH@Z @ 5643 NONAME
 ?FreezeEvents@COleControlSite@@QEAAXH@Z @ 5644 NONAME
 ?FreezeEvents@XOleControl@COleControl@@UEAAJH@Z @ 5645 NONAME
 ?FreezeLink@COleClientItem@@UEAAHXZ @ 5646 NONAME
 ?FromHandle@CAsyncSocket@@SAPEAV1@_K@Z @ 5647 NONAME
 ?FromHandle@CBitmap@@SAPEAV1@PEAUHBITMAP__@@@Z @ 5648 NONAME
 ?FromHandle@CBrush@@SAPEAV1@PEAUHBRUSH__@@@Z @ 5649 NONAME
 ?FromHandle@CDC@@SAPEAV1@PEAUHDC__@@@Z @ 5650 NONAME
 ?FromHandle@CFont@@SAPEAV1@PEAUHFONT__@@@Z @ 5651 NONAME
 ?FromHandle@CGdiObject@@SAPEAV1@PEAX@Z @ 5652 NONAME
 ?FromHandle@CHandleMap@@QEAAPEAVCObject@@PEAX@Z @ 5653 NONAME
 ?FromHandle@CImageList@@SAPEAV1@PEAU_IMAGELIST@@@Z @ 5654 NONAME
 ?FromHandle@CMenu@@SAPEAV1@PEAUHMENU__@@@Z @ 5655 NONAME
 ?FromHandle@CPalette@@SAPEAV1@PEAUHPALETTE__@@@Z @ 5656 NONAME
 ?FromHandle@CPen@@SAPEAV1@PEAUHPEN__@@@Z @ 5657 NONAME
 ?FromHandle@CRgn@@SAPEAV1@PEAUHRGN__@@@Z @ 5658 NONAME
 ?FromHandle@CSocket@@SAPEAV1@_K@Z @ 5659 NONAME
 ?FromHandle@CWnd@@SAPEAV1@PEAUHWND__@@@Z @ 5660 NONAME
 ?FromHandlePermanent@CImageList@@SAPEAV1@PEAU_IMAGELIST@@@Z @ 5661 NONAME
 ?FromHandlePermanent@CMenu@@SAPEAV1@PEAUHMENU__@@@Z @ 5662 NONAME
 ?FromHandlePermanent@CMFCToolBar@@SAPEAV1@PEAUHWND__@@@Z @ 5663 NONAME
 ?FromHandlePermanent@CWnd@@SAPEAV1@PEAUHWND__@@@Z @ 5664 NONAME
 ?FromIDispatch@CCmdTarget@@SAPEAV1@PEAUIDispatch@@@Z @ 5665 NONAME
 ?FromName@CRuntimeClass@@SAPEAU1@PEB_W@Z @ 5666 NONAME
 ?FromName@CRuntimeClass@@SAPEAU1@PEBD@Z @ 5667 NONAME
 ?g_pTopLevelFrame@@3PEAVCFrameWnd@@EA @ 5668 NONAME DATA
 ?GenerateAutosaveFileName@CDataRecoveryHandler@@UEBA?AV?$CStringT@_WV?$StrTraitMFC_DLL@_WV?$ChTraitsCRT@_W@ATL@@@@@ATL@@AEBV23@@Z @ 5669 NONAME
 ?Get@CGestureConfig@@QEBAKKH@Z @ 5670 NONAME
 ?Get@CMFCVisualManagerBitmapCache@@QEAAPEAVCMFCVisualManagerBitmapCacheItem@1@AEBVCSize@@@Z @ 5671 NONAME
 ?Get@CMFCVisualManagerBitmapCache@@QEAAPEAVCMFCVisualManagerBitmapCacheItem@1@H@Z @ 5672 NONAME
 ?Get@CProperty@@QEAAPEAXPEAK@Z @ 5673 NONAME
 ?Get@CProperty@@QEAAPEAXXZ @ 5674 NONAME
 ?Get@CPropertySection@@QEAAPEAXK@Z @ 5675 NONAME
 ?Get@CPropertySection@@QEAAPEAXKPEAK@Z @ 5676 NONAME
 ?Get@CPropertySet@@QEAAPEAXU_GUID@@K@Z @ 5677 NONAME
 ?Get@CPropertySet@@QEAAPEAXU_GUID@@KPEAK@Z @ 5678 NONAME
 ?get_accChild@CBasePane@@UEAAJUtagVARIANT@@PEAPEAUIDispatch@@@Z @ 5679 NONAME
 ?get_accChild@CMFCBaseAccessibleObject@@UEAAJUtagVARIANT@@PEAPEAUIDispatch@@@Z @ 5680 NONAME
 ?get_accChild@CMFCPopupMenu@@MEAAJUtagVARIANT@@PEAPEAUIDispatch@@@Z @ 5681 NONAME
 ?get_accChild@CMFCPropertyGridCtrl@@UEAAJUtagVARIANT@@PEAPEAUIDispatch@@@Z @ 5682 NONAME
 ?get_accChild@CMFCRibbonBar@@UEAAJUtagVARIANT@@PEAPEAUIDispatch@@@Z @ 5683 NONAME
 ?get_accChild@CMFCRibbonCategory@@UEAAJUtagVARIANT@@PEAPEAUIDispatch@@@Z @ 5684 NONAME
 ?get_accChild@CMFCToolBar@@MEAAJUtagVARIANT@@PEAPEAUIDispatch@@@Z @ 5685 NONAME
 ?get_accChild@CWnd@@UEAAJUtagVARIANT@@PEAPEAUIDispatch@@@Z @ 5686 NONAME
 ?get_accChild@XAccessible@CMFCBaseAccessibleObject@@UEAAJUtagVARIANT@@PEAPEAUIDispatch@@@Z @ 5687 NONAME
 ?get_accChild@XAccessible@CWnd@@UEAAJUtagVARIANT@@PEAPEAUIDispatch@@@Z @ 5688 NONAME
 ?get_accChildCount@CBasePane@@UEAAJPEAJ@Z @ 5689 NONAME
 ?get_accChildCount@CMFCBaseAccessibleObject@@UEAAJPEAJ@Z @ 5690 NONAME
 ?get_accChildCount@CMFCPopupMenu@@MEAAJPEAJ@Z @ 5691 NONAME
 ?get_accChildCount@CMFCPropertyGridCtrl@@UEAAJPEAJ@Z @ 5692 NONAME
 ?get_accChildCount@CMFCRibbonBar@@UEAAJPEAJ@Z @ 5693 NONAME
 ?get_accChildCount@CMFCRibbonCategory@@UEAAJPEAJ@Z @ 5694 NONAME
 ?get_accChildCount@CMFCRibbonContextCaption@@MEAAJPEAJ@Z @ 5695 NONAME
 ?get_accChildCount@CMFCRibbonPanel@@MEAAJPEAJ@Z @ 5696 NONAME
 ?get_accChildCount@CMFCRibbonQuickAccessToolBar@@MEAAJPEAJ@Z @ 5697 NONAME
 ?get_accChildCount@CMFCRibbonStatusBar@@MEAAJPEAJ@Z @ 5698 NONAME
 ?get_accChildCount@CMFCRibbonTabsGroup@@MEAAJPEAJ@Z @ 5699 NONAME
 ?get_accChildCount@CMFCToolBar@@MEAAJPEAJ@Z @ 5700 NONAME
 ?get_accChildCount@CWnd@@UEAAJPEAJ@Z @ 5701 NONAME
 ?get_accChildCount@XAccessible@CMFCBaseAccessibleObject@@UEAAJPEAJ@Z @ 5702 NONAME
 ?get_accChildCount@XAccessible@CWnd@@UEAAJPEAJ@Z @ 5703 NONAME
 ?get_accDefaultAction@CBasePane@@UEAAJUtagVARIANT@@PEAPEA_W@Z @ 5704 NONAME
 ?get_accDefaultAction@CCheckListBox@@MEAAJUtagVARIANT@@PEAPEA_W@Z @ 5705 NONAME
 ?get_accDefaultAction@CMFCBaseAccessibleObject@@UEAAJUtagVARIANT@@PEAPEA_W@Z @ 5706 NONAME
 ?get_accDefaultAction@CMFCPropertyGridCtrl@@UEAAJUtagVARIANT@@PEAPEA_W@Z @ 5707 NONAME
 ?get_accDefaultAction@CMFCRibbonTab@@UEAAJUtagVARIANT@@PEAPEA_W@Z @ 5708 NONAME
 ?get_accDefaultAction@CMFCRibbonTabsGroup@@MEAAJUtagVARIANT@@PEAPEA_W@Z @ 5709 NONAME
 ?get_accDefaultAction@CWnd@@UEAAJUtagVARIANT@@PEAPEA_W@Z @ 5710 NONAME
 ?get_accDefaultAction@XAccessible@CMFCBaseAccessibleObject@@UEAAJUtagVARIANT@@PEAPEA_W@Z @ 5711 NONAME
 ?get_accDefaultAction@XAccessible@CWnd@@UEAAJUtagVARIANT@@PEAPEA_W@Z @ 5712 NONAME
 ?get_accDescription@CBasePane@@UEAAJUtagVARIANT@@PEAPEA_W@Z @ 5713 NONAME
 ?get_accDescription@CMFCBaseAccessibleObject@@UEAAJUtagVARIANT@@PEAPEA_W@Z @ 5714 NONAME
 ?get_accDescription@CMFCPropertyGridCtrl@@UEAAJUtagVARIANT@@PEAPEA_W@Z @ 5715 NONAME
 ?get_accDescription@CWnd@@UEAAJUtagVARIANT@@PEAPEA_W@Z @ 5716 NONAME
 ?get_accDescription@XAccessible@CMFCBaseAccessibleObject@@UEAAJUtagVARIANT@@PEAPEA_W@Z @ 5717 NONAME
 ?get_accDescription@XAccessible@CWnd@@UEAAJUtagVARIANT@@PEAPEA_W@Z @ 5718 NONAME
 ?get_accFocus@CBasePane@@UEAAJPEAUtagVARIANT@@@Z @ 5719 NONAME
 ?get_accFocus@CMFCBaseAccessibleObject@@UEAAJPEAUtagVARIANT@@@Z @ 5720 NONAME
 ?get_accFocus@CMFCPropertyGridCtrl@@UEAAJPEAUtagVARIANT@@@Z @ 5721 NONAME
 ?get_accFocus@CWnd@@UEAAJPEAUtagVARIANT@@@Z @ 5722 NONAME
 ?get_accFocus@XAccessible@CMFCBaseAccessibleObject@@UEAAJPEAUtagVARIANT@@@Z @ 5723 NONAME
 ?get_accFocus@XAccessible@CWnd@@UEAAJPEAUtagVARIANT@@@Z @ 5724 NONAME
 ?get_accHelp@CBasePane@@UEAAJUtagVARIANT@@PEAPEA_W@Z @ 5725 NONAME
 ?get_accHelp@CMFCBaseAccessibleObject@@UEAAJUtagVARIANT@@PEAPEA_W@Z @ 5726 NONAME
 ?get_accHelp@CMFCPropertyGridCtrl@@UEAAJUtagVARIANT@@PEAPEA_W@Z @ 5727 NONAME
 ?get_accHelp@CWnd@@UEAAJUtagVARIANT@@PEAPEA_W@Z @ 5728 NONAME
 ?get_accHelp@XAccessible@CMFCBaseAccessibleObject@@UEAAJUtagVARIANT@@PEAPEA_W@Z @ 5729 NONAME
 ?get_accHelp@XAccessible@CWnd@@UEAAJUtagVARIANT@@PEAPEA_W@Z @ 5730 NONAME
 ?get_accHelpTopic@CBasePane@@UEAAJPEAPEA_WUtagVARIANT@@PEAJ@Z @ 5731 NONAME
 ?get_accHelpTopic@CMFCBaseAccessibleObject@@UEAAJPEAPEA_WUtagVARIANT@@PEAJ@Z @ 5732 NONAME
 ?get_accHelpTopic@CMFCPropertyGridCtrl@@UEAAJPEAPEA_WUtagVARIANT@@PEAJ@Z @ 5733 NONAME
 ?get_accHelpTopic@CWnd@@UEAAJPEAPEA_WUtagVARIANT@@PEAJ@Z @ 5734 NONAME
 ?get_accHelpTopic@XAccessible@CMFCBaseAccessibleObject@@UEAAJPEAPEA_WUtagVARIANT@@PEAJ@Z @ 5735 NONAME
 ?get_accHelpTopic@XAccessible@CWnd@@UEAAJPEAPEA_WUtagVARIANT@@PEAJ@Z @ 5736 NONAME
 ?get_accKeyboardShortcut@CBasePane@@UEAAJUtagVARIANT@@PEAPEA_W@Z @ 5737 NONAME
 ?get_accKeyboardShortcut@CMFCBaseAccessibleObject@@UEAAJUtagVARIANT@@PEAPEA_W@Z @ 5738 NONAME
 ?get_accKeyboardShortcut@CMFCPropertyGridCtrl@@UEAAJUtagVARIANT@@PEAPEA_W@Z @ 5739 NONAME
 ?get_accKeyboardShortcut@CWnd@@UEAAJUtagVARIANT@@PEAPEA_W@Z @ 5740 NONAME
 ?get_accKeyboardShortcut@XAccessible@CMFCBaseAccessibleObject@@UEAAJUtagVARIANT@@PEAPEA_W@Z @ 5741 NONAME
 ?get_accKeyboardShortcut@XAccessible@CWnd@@UEAAJUtagVARIANT@@PEAPEA_W@Z @ 5742 NONAME
 ?get_accName@CBasePane@@UEAAJUtagVARIANT@@PEAPEA_W@Z @ 5743 NONAME
 ?get_accName@CMFCBaseAccessibleObject@@UEAAJUtagVARIANT@@PEAPEA_W@Z @ 5744 NONAME
 ?get_accName@CMFCPopupMenu@@MEAAJUtagVARIANT@@PEAPEA_W@Z @ 5745 NONAME
 ?get_accName@CMFCPropertyGridCtrl@@UEAAJUtagVARIANT@@PEAPEA_W@Z @ 5746 NONAME
 ?get_accName@CToolBar@@UEAAJUtagVARIANT@@PEAPEA_W@Z @ 5747 NONAME
 ?get_accName@CWnd@@UEAAJUtagVARIANT@@PEAPEA_W@Z @ 5748 NONAME
 ?get_accName@XAccessible@CMFCBaseAccessibleObject@@UEAAJUtagVARIANT@@PEAPEA_W@Z @ 5749 NONAME
 ?get_accName@XAccessible@CWnd@@UEAAJUtagVARIANT@@PEAPEA_W@Z @ 5750 NONAME
 ?get_accParent@CBasePane@@UEAAJPEAPEAUIDispatch@@@Z @ 5751 NONAME
 ?get_accParent@CMFCBaseAccessibleObject@@UEAAJPEAPEAUIDispatch@@@Z @ 5752 NONAME
 ?get_accParent@CMFCPopupMenu@@MEAAJPEAPEAUIDispatch@@@Z @ 5753 NONAME
 ?get_accParent@CMFCRibbonApplicationButton@@MEAAJPEAPEAUIDispatch@@@Z @ 5754 NONAME
 ?get_accParent@CMFCRibbonBaseElement@@UEAAJPEAPEAUIDispatch@@@Z @ 5755 NONAME
 ?get_accParent@CMFCRibbonCategory@@UEAAJPEAPEAUIDispatch@@@Z @ 5756 NONAME
 ?get_accParent@CMFCRibbonContextCaption@@MEAAJPEAPEAUIDispatch@@@Z @ 5757 NONAME
 ?get_accParent@CMFCRibbonPanel@@MEAAJPEAPEAUIDispatch@@@Z @ 5758 NONAME
 ?get_accParent@CMFCRibbonQuickAccessToolBar@@MEAAJPEAPEAUIDispatch@@@Z @ 5759 NONAME
 ?get_accParent@CMFCRibbonTab@@UEAAJPEAPEAUIDispatch@@@Z @ 5760 NONAME
 ?get_accParent@CMFCRibbonTabsGroup@@MEAAJPEAPEAUIDispatch@@@Z @ 5761 NONAME
 ?get_accParent@CWnd@@UEAAJPEAPEAUIDispatch@@@Z @ 5762 NONAME
 ?get_accParent@XAccessible@CMFCBaseAccessibleObject@@UEAAJPEAPEAUIDispatch@@@Z @ 5763 NONAME
 ?get_accParent@XAccessible@CWnd@@UEAAJPEAPEAUIDispatch@@@Z @ 5764 NONAME
 ?get_accRole@CBasePane@@UEAAJUtagVARIANT@@PEAU2@@Z @ 5765 NONAME
 ?get_accRole@CCheckListBox@@MEAAJUtagVARIANT@@PEAU2@@Z @ 5766 NONAME
 ?get_accRole@CMFCBaseAccessibleObject@@UEAAJUtagVARIANT@@PEAU2@@Z @ 5767 NONAME
 ?get_accRole@CMFCPopupMenu@@MEAAJUtagVARIANT@@PEAU2@@Z @ 5768 NONAME
 ?get_accRole@CMFCPopupMenuBar@@UEAAJUtagVARIANT@@PEAU2@@Z @ 5769 NONAME
 ?get_accRole@CMFCPropertyGridCtrl@@UEAAJUtagVARIANT@@PEAU2@@Z @ 5770 NONAME
 ?get_accRole@CWnd@@UEAAJUtagVARIANT@@PEAU2@@Z @ 5771 NONAME
 ?get_accRole@XAccessible@CMFCBaseAccessibleObject@@UEAAJUtagVARIANT@@PEAU3@@Z @ 5772 NONAME
 ?get_accRole@XAccessible@CWnd@@UEAAJUtagVARIANT@@PEAU3@@Z @ 5773 NONAME
 ?get_accSelection@CBasePane@@UEAAJPEAUtagVARIANT@@@Z @ 5774 NONAME
 ?get_accSelection@CMFCBaseAccessibleObject@@UEAAJPEAUtagVARIANT@@@Z @ 5775 NONAME
 ?get_accSelection@CMFCPropertyGridCtrl@@UEAAJPEAUtagVARIANT@@@Z @ 5776 NONAME
 ?get_accSelection@CWnd@@UEAAJPEAUtagVARIANT@@@Z @ 5777 NONAME
 ?get_accSelection@XAccessible@CMFCBaseAccessibleObject@@UEAAJPEAUtagVARIANT@@@Z @ 5778 NONAME
 ?get_accSelection@XAccessible@CWnd@@UEAAJPEAUtagVARIANT@@@Z @ 5779 NONAME
 ?get_accState@CBasePane@@UEAAJUtagVARIANT@@PEAU2@@Z @ 5780 NONAME
 ?get_accState@CCheckListBox@@MEAAJUtagVARIANT@@PEAU2@@Z @ 5781 NONAME
 ?get_accState@CMFCBaseAccessibleObject@@UEAAJUtagVARIANT@@PEAU2@@Z @ 5782 NONAME
 ?get_accState@CMFCButton@@UEAAJUtagVARIANT@@PEAU2@@Z @ 5783 NONAME
 ?get_accState@CMFCPopupMenu@@MEAAJUtagVARIANT@@PEAU2@@Z @ 5784 NONAME
 ?get_accState@CMFCPopupMenuBar@@UEAAJUtagVARIANT@@PEAU2@@Z @ 5785 NONAME
 ?get_accState@CMFCPropertyGridCtrl@@UEAAJUtagVARIANT@@PEAU2@@Z @ 5786 NONAME
 ?get_accState@CWnd@@UEAAJUtagVARIANT@@PEAU2@@Z @ 5787 NONAME
 ?get_accState@XAccessible@CMFCBaseAccessibleObject@@UEAAJUtagVARIANT@@PEAU3@@Z @ 5788 NONAME
 ?get_accState@XAccessible@CWnd@@UEAAJUtagVARIANT@@PEAU3@@Z @ 5789 NONAME
 ?get_accValue@CBasePane@@UEAAJUtagVARIANT@@PEAPEA_W@Z @ 5790 NONAME
 ?get_accValue@CMFCBaseAccessibleObject@@UEAAJUtagVARIANT@@PEAPEA_W@Z @ 5791 NONAME
 ?get_accValue@CMFCPropertyGridCtrl@@UEAAJUtagVARIANT@@PEAPEA_W@Z @ 5792 NONAME
 ?get_accValue@CWnd@@UEAAJUtagVARIANT@@PEAPEA_W@Z @ 5793 NONAME
 ?get_accValue@XAccessible@CMFCBaseAccessibleObject@@UEAAJUtagVARIANT@@PEAPEA_W@Z @ 5794 NONAME
 ?get_accValue@XAccessible@CWnd@@UEAAJUtagVARIANT@@PEAPEA_W@Z @ 5795 NONAME
 ?GetAccCount@CMFCToolBarButton@@UEAAHXZ @ 5796 NONAME
 ?GetAccel@CSpinButtonCtrl@@QEBAIHPEAU_UDACCEL@@@Z @ 5797 NONAME
 ?GetAccessibilityHitTest@CWnd@@QEAAJJJPEAUtagVARIANT@@@Z @ 5798 NONAME
 ?GetAccessibilityLocation@CWnd@@QEAAJUtagVARIANT@@PEAJ111@Z @ 5799 NONAME
 ?GetAccessibleChild@CWnd@@QEAAJUtagVARIANT@@PEAPEAUIDispatch@@@Z @ 5800 NONAME
 ?GetAccessibleChildCount@CWnd@@QEAAJXZ @ 5801 NONAME
 ?GetAccessibleDispatch@CMFCRibbonBar@@QEAAPEAUIDispatch@@XZ @ 5802 NONAME
 ?GetAccessibleName@CWnd@@QEAAJUtagVARIANT@@PEAPEA_W@Z @ 5803 NONAME
 ?GetAccObjectCount@CMFCRibbonBar@@QEAAHXZ @ 5804 NONAME
 ?GetActivationPolicy@COleControl@@UEAAKXZ @ 5805 NONAME
 ?GetActivationPolicy@XPointerInactive@COleControl@@UEAAJPEAK@Z @ 5806 NONAME
 ?GetActiveDocument@CFrameWnd@@UEAAPEAVCDocument@@XZ @ 5807 NONAME
 ?GetActiveFrame@CFrameWnd@@UEAAPEAV1@XZ @ 5808 NONAME
 ?GetActiveFrame@CMDIFrameWnd@@UEAAPEAVCFrameWnd@@XZ @ 5809 NONAME
 ?GetActiveIndex@CPropertySheet@@QEBAHXZ @ 5810 NONAME
 ?GetActivePage@CPropertySheet@@QEBAPEAVCPropertyPage@@XZ @ 5811 NONAME
 ?GetActivePane@CSplitterWnd@@IEAAPEAVCWnd@@AEAH0@Z @ 5812 NONAME
 ?GetActivePane@CSplitterWnd@@UEAAPEAVCWnd@@PEAH0@Z @ 5813 NONAME
 ?GetActiveView@CFrameWnd@@QEBAPEAVCView@@XZ @ 5814 NONAME
 ?GetActiveView@COleClientItem@@QEBAPEAVCView@@XZ @ 5815 NONAME
 ?GetActiveView@COleDocObjectItem@@QEBAPEAUIOleDocumentView@@XZ @ 5816 NONAME
 ?GetActiveView@CRichEditCntrItem@@QEAAPEAVCRichEditView@@XZ @ 5817 NONAME
 ?GetActiveView@CTabView@@QEBAPEAVCView@@XZ @ 5818 NONAME
 ?GetActiveWindow@CWnd@@SAPEAV1@XZ @ 5819 NONAME
 ?GetActiveWnd@CMFCBaseTabCtrl@@UEBAPEAVCWnd@@XZ @ 5820 NONAME
 ?GetActualWidth@CMFCRibbonQuickAccessToolBar@@IEBAHXZ @ 5821 NONAME
 ?GetAddress@CIPAddressCtrl@@QEBAHAEAE000@Z @ 5822 NONAME
 ?GetAddress@CIPAddressCtrl@@QEBAHAEAK@Z @ 5823 NONAME
 ?GetAddressBar@CHtmlView@@QEBAHXZ @ 5824 NONAME
 ?GetAdvise@XViewObject@COleControl@@UEAAJPEAK0PEAPEAUIAdviseSink@@@Z @ 5825 NONAME
 ?GetAlignment@CMFCCaptionBar@@QEAA?AW4BarElementAlignment@1@W4BarElement@1@@Z @ 5826 NONAME
 ?GetAlignRect@CAutoHideDockSite@@QEBAXAEAVCRect@@@Z @ 5827 NONAME
 ?GetAllocLength@?$CSimpleStringT@_W$00@ATL@@QEBAHXZ @ 5828 NONAME
 ?GetAllocLength@?$CSimpleStringT@D$00@ATL@@QEBAHXZ @ 5829 NONAME
 ?GetAllToolbars@CMFCToolBar@@SAAEBVCObList@@XZ @ 5830 NONAME
 ?GetAmbientDispatchDriver@COleControl@@IEAAPEAVCOleDispatchDriver@@XZ @ 5831 NONAME
 ?GetAmbientProp@COleControlContainer@@UEAAHPEAVCOleControlSite@@JPEAUtagVARIANT@@@Z @ 5832 NONAME
 ?GetAmbientProperty@COleControl@@QEAAHJGPEAX@Z @ 5833 NONAME
 ?GetAnchorHighlight@CToolBarCtrl@@QEBAHXZ @ 5834 NONAME
 ?GetAnchorIndex@CListBox@@QEBAHXZ @ 5835 NONAME
 ?GetAngleFromPoint@CMFCColorPickerCtrl@@IEAAHHH@Z @ 5836 NONAME
 ?GetAnimationVariableList@CAnimationColor@@MEAAXAEAV?$CList@PEAVCAnimationVariable@@PEAV1@@@@Z @ 5837 NONAME
 ?GetAnimationVariableList@CAnimationPoint@@MEAAXAEAV?$CList@PEAVCAnimationVariable@@PEAV1@@@@Z @ 5838 NONAME
 ?GetAnimationVariableList@CAnimationRect@@MEAAXAEAV?$CList@PEAVCAnimationVariable@@PEAV1@@@@Z @ 5839 NONAME
 ?GetAnimationVariableList@CAnimationSize@@MEAAXAEAV?$CList@PEAVCAnimationVariable@@PEAV1@@@@Z @ 5840 NONAME
 ?GetAnimationVariableList@CAnimationValue@@MEAAXAEAV?$CList@PEAVCAnimationVariable@@PEAV1@@@@Z @ 5841 NONAME
 ?GetAntialiasMode@CRenderTarget@@QEBA?AW4D2D1_ANTIALIAS_MODE@@XZ @ 5842 NONAME
 ?GetAppearance@COleControl@@QEAAFXZ @ 5843 NONAME
 ?GetApplication@CHtmlView@@QEBAPEAUIDispatch@@XZ @ 5844 NONAME
 ?GetAppRegistryKey@CWinApp@@QEAAPEAUHKEY__@@PEAVCAtlTransactionManager@ATL@@@Z @ 5845 NONAME
 ?GetArcDirection@CDC@@QEBAHXZ @ 5846 NONAME
 ?GetArrayImages@CMFCRibbonInfo@@QEAAXAEAV?$CArray@PEAVXImage@CMFCRibbonInfo@@PEAV12@@@@Z @ 5847 NONAME
 ?GetAspectRatioFilter@CDC@@QEBA?AVCSize@@XZ @ 5848 NONAME
 ?GetAssocAt@CMapPtrToPtr@@IEBAPEAUCAssoc@1@PEAXAEAI1@Z @ 5849 NONAME
 ?GetAssocAt@CMapPtrToWord@@IEBAPEAUCAssoc@1@PEAXAEAI1@Z @ 5850 NONAME
 ?GetAssocAt@CMapStringToOb@@IEBAPEAUCAssoc@1@PEB_WAEAI1@Z @ 5851 NONAME
 ?GetAssocAt@CMapStringToPtr@@IEBAPEAUCAssoc@1@PEB_WAEAI1@Z @ 5852 NONAME
 ?GetAssocAt@CMapStringToString@@IEBAPEAVCAssoc@1@PEB_WAEAI1@Z @ 5853 NONAME
 ?GetAssocAt@CMapWordToOb@@IEBAPEAUCAssoc@1@GAEAI0@Z @ 5854 NONAME
 ?GetAssocAt@CMapWordToPtr@@IEBAPEAUCAssoc@1@GAEAI0@Z @ 5855 NONAME
 ?GetAssociatedSiblingPaneIDs@CPaneContainer@@QEAAPEAV?$CList@II@@PEAVCDockablePane@@@Z @ 5856 NONAME
 ?GetAt@?$CSimpleStringT@_W$00@ATL@@QEBA_WH@Z @ 5857 NONAME
 ?GetAt@?$CSimpleStringT@D$00@ATL@@QEBADH@Z @ 5858 NONAME
 ?GetAt@CByteArray@@QEBAE_J@Z @ 5859 NONAME
 ?GetAt@CDWordArray@@QEBAK_J@Z @ 5860 NONAME
 ?GetAt@CObArray@@QEBAPEAVCObject@@_J@Z @ 5861 NONAME
 ?GetAt@CObList@@QEAAAEAPEAVCObject@@PEAU__POSITION@@@Z @ 5862 NONAME
 ?GetAt@CObList@@QEBAPEBVCObject@@PEAU__POSITION@@@Z @ 5863 NONAME
 ?GetAt@CPtrArray@@QEBAPEAX_J@Z @ 5864 NONAME
 ?GetAt@CPtrList@@QEAAAEAPEAXPEAU__POSITION@@@Z @ 5865 NONAME
 ?GetAt@CPtrList@@QEBAPEBXPEAU__POSITION@@@Z @ 5866 NONAME
 ?GetAt@CStringArray@@QEBAAEBV?$CStringT@_WV?$StrTraitMFC_DLL@_WV?$ChTraitsCRT@_W@ATL@@@@@ATL@@_J@Z @ 5867 NONAME
 ?GetAt@CStringList@@QEAAAEAV?$CStringT@_WV?$StrTraitMFC_DLL@_WV?$ChTraitsCRT@_W@ATL@@@@@ATL@@PEAU__POSITION@@@Z @ 5868 NONAME
 ?GetAt@CStringList@@QEBAAEBV?$CStringT@_WV?$StrTraitMFC_DLL@_WV?$ChTraitsCRT@_W@ATL@@@@@ATL@@PEAU__POSITION@@@Z @ 5869 NONAME
 ?GetAt@CUIntArray@@QEBAI_J@Z @ 5870 NONAME
 ?GetAt@CWordArray@@QEBAG_J@Z @ 5871 NONAME
 ?GetAttribute@CGopherConnection@@QEAAHAEAVCGopherLocator@@V?$CStringT@_WV?$StrTraitMFC_DLL@_WV?$ChTraitsCRT@_W@ATL@@@@@ATL@@AEAV34@@Z @ 5872 NONAME
 ?GetAutoHideButtonTextColor@CMFCVisualManager@@UEAAKPEAVCMFCAutoHideButton@@@Z @ 5873 NONAME
 ?GetAutoHideButtonTextColor@CMFCVisualManagerOfficeXP@@MEAAKPEAVCMFCAutoHideButton@@@Z @ 5874 NONAME
 ?GetAvailableExpandSize@CPane@@UEBAHXZ @ 5875 NONAME
 ?GetAvailableLength@CDockingPanesRow@@UEBAHH@Z @ 5876 NONAME
 ?GetAvailableLengthRect@CDockingPanesRow@@IEAAHXZ @ 5877 NONAME
 ?GetAvailableSpace@CDockingPanesRow@@UEAAXAEAVCRect@@@Z @ 5878 NONAME
 ?GetAvailableSpace@CPaneContainerManager@@UEBAXAEAVCRect@@@Z @ 5879 NONAME
 ?GetAvailableStretchSize@CPane@@UEBAHXZ @ 5880 NONAME
 ?GetBackColor@COleControl@@QEAAKXZ @ 5881 NONAME
 ?GetBackgroundFromParent@CMFCControlBarImpl@@IEAAHPEAVCDC@@@Z @ 5882 NONAME
 ?GetBandBorders@CReBarCtrl@@QEBAXIPEAUtagRECT@@@Z @ 5883 NONAME
 ?GetBandCount@CReBarCtrl@@QEBAIXZ @ 5884 NONAME
 ?GetBandInfo@CReBarCtrl@@QEBAHIPEAUtagREBARBANDINFOW@@@Z @ 5885 NONAME
 ?GetBarColor@CProgressCtrl@@QEBAKXZ @ 5886 NONAME
 ?GetBarHeight@CReBarCtrl@@QEBAIXZ @ 5887 NONAME
 ?GetBarInfo@CControlBar@@QEAAXPEAVCControlBarInfo@@@Z @ 5888 NONAME
 ?GetBarInfo@CDockBar@@QEAAXPEAVCControlBarInfo@@@Z @ 5889 NONAME
 ?GetBarInfo@CReBarCtrl@@QEBAHPEAUtagREBARINFO@@@Z @ 5890 NONAME
 ?GetBarStyle@CControlBar@@QEAAKXZ @ 5891 NONAME
 ?GetBase@CSpinButtonCtrl@@QEBAIXZ @ 5892 NONAME
 ?GetBaseThemeColor@CMFCVisualManagerOffice2003@@UEAAKXZ @ 5893 NONAME
 ?GetBestTemplate@CDocManager@@UEAAPEAVCDocTemplate@@PEB_W@Z @ 5894 NONAME
 ?GetBinary@CWinAppEx@@QEAAHPEB_WPEAPEAEPEAI@Z @ 5895 NONAME
 ?GetBindInfo@CAsyncMonikerFile@@MEBAKXZ @ 5896 NONAME
 ?GetBinding@CAsyncMonikerFile@@QEBAPEAUIBinding@@XZ @ 5897 NONAME
 ?GetBitmap@CBitmap@@QEAAHPEAUtagBITMAP@@@Z @ 5898 NONAME
 ?GetBitmap@CBitmapRenderTarget@@QEAAHAEAVCD2DBitmap@@@Z @ 5899 NONAME
 ?GetBitmap@CButton@@QEBAPEAUHBITMAP__@@XZ @ 5900 NONAME
 ?GetBitmap@CStatic@@QEBAPEAUHBITMAP__@@XZ @ 5901 NONAME
 ?GetBitmap@CToolBarCtrl@@QEBAHH@Z @ 5902 NONAME
 ?GetBitmapBits@CBitmap@@QEBAKKPEAX@Z @ 5903 NONAME
 ?GetBitmapDimension@CBitmap@@QEBA?AVCSize@@XZ @ 5904 NONAME
 ?GetBitmapFlags@CToolBarCtrl@@QEBAIXZ @ 5905 NONAME
 ?GetBitmapMargin@CHeaderCtrl@@QEBAHXZ @ 5906 NONAME
 ?GetBkColor@CDC@@QEBAKXZ @ 5907 NONAME
 ?GetBkColor@CImageList@@QEBAKXZ @ 5908 NONAME
 ?GetBkColor@CListCtrl@@QEBAKXZ @ 5909 NONAME
 ?GetBkColor@CProgressCtrl@@QEBAKXZ @ 5910 NONAME
 ?GetBkColor@CReBarCtrl@@QEBAKXZ @ 5911 NONAME
 ?GetBkColor@CTreeCtrl@@QEBAKXZ @ 5912 NONAME
 ?GetBkImage@CListCtrl@@QEBAHPEAUtagLVBKIMAGEW@@@Z @ 5913 NONAME
 ?GetBkMode@CDC@@QEBAHXZ @ 5914 NONAME
 ?GetBlob@CBlobProperty@@QEAAPEAXXZ @ 5915 NONAME
 ?GetBookmark@CRecordset@@QEAAXAEAVCDBVariant@@@Z @ 5916 NONAME
 ?GetBookmarkPersistence@CDatabase@@QEBAKXZ @ 5917 NONAME
 ?GetBorder@XOleInPlaceFrame@COleFrameHook@@UEAAJPEAUtagRECT@@@Z @ 5918 NONAME
 ?GetBorder@XOleIPFrame@COleControlContainer@@UEAAJPEAUtagRECT@@@Z @ 5919 NONAME
 ?GetBorders@CControlBar@@QEBA?AVCRect@@XZ @ 5920 NONAME
 ?GetBorders@CPane@@QEBA?AVCRect@@XZ @ 5921 NONAME
 ?GetBorders@CStatusBarCtrl@@QEBAHAEAH00@Z @ 5922 NONAME
 ?GetBorders@CStatusBarCtrl@@QEBAHPEAH@Z @ 5923 NONAME
 ?GetBorderSize@CMFCPopupMenu@@MEBAHXZ @ 5924 NONAME
 ?GetBorderSize@CMFCRibbonPanelMenu@@MEBAHXZ @ 5925 NONAME
 ?GetBorderStyle@COleControl@@QEAAFXZ @ 5926 NONAME
 ?GetBoundClientRow@CDataSourceControl@@QEAAJXZ @ 5927 NONAME
 ?GetBoundFieldIndex@CRecordset@@QEAAHPEAX@Z @ 5928 NONAME
 ?GetBoundParamIndex@CRecordset@@QEAAHPEAX@Z @ 5929 NONAME
 ?GetBounds@CD2DGeometry@@QEBAHAEBUD2D_MATRIX_3X2_F@@AEAVCD2DRectF@@@Z @ 5930 NONAME
 ?GetBoundsRect@CDC@@QEAAIPEAUtagRECT@@I@Z @ 5931 NONAME
 ?GetBrushOrg@CDC@@QEBA?AVCPoint@@XZ @ 5932 NONAME
 ?GetBubbleSize@CToolTipCtrl@@QEBA?AVCSize@@PEAUtagTOOLINFOW@@@Z @ 5933 NONAME
 ?GetBuddy@CSliderCtrl@@QEBAPEAVCWnd@@H@Z @ 5934 NONAME
 ?GetBuddy@CSpinButtonCtrl@@QEBAPEAVCWnd@@XZ @ 5935 NONAME
 ?GetBuffer@?$CSimpleStringT@_W$00@ATL@@QEAAPEA_WH@Z @ 5936 NONAME
 ?GetBuffer@?$CSimpleStringT@_W$00@ATL@@QEAAPEA_WXZ @ 5937 NONAME
 ?GetBuffer@?$CSimpleStringT@D$00@ATL@@QEAAPEADH@Z @ 5938 NONAME
 ?GetBuffer@?$CSimpleStringT@D$00@ATL@@QEAAPEADXZ @ 5939 NONAME
 ?GetBufferLength@CEditView@@QEBAIXZ @ 5940 NONAME
 ?GetBufferPtr@CFile@@UEAAIIIPEAPEAX0@Z @ 5941 NONAME
 ?GetBufferPtr@CMemFile@@UEAAIIIPEAPEAX0@Z @ 5942 NONAME
 ?GetBufferPtr@CSocketFile@@UEAAIIIPEAPEAX0@Z @ 5943 NONAME
 ?GetBufferSetLength@?$CSimpleStringT@_W$00@ATL@@QEAAPEA_WH@Z @ 5944 NONAME
 ?GetBufferSetLength@?$CSimpleStringT@D$00@ATL@@QEAAPEADH@Z @ 5945 NONAME
 ?GetBusy@CHtmlView@@QEBAHXZ @ 5946 NONAME
 ?GetButton@CMFCToolBar@@QEBAPEAVCMFCToolBarButton@@H@Z @ 5947 NONAME
 ?GetButton@CToolBarCtrl@@QEBAHHPEAU_TBBUTTON@@@Z @ 5948 NONAME
 ?GetButtonCount@CToolBarCtrl@@QEBAHXZ @ 5949 NONAME
 ?GetButtonData@CTaskDialog@@AEBAPEAU_TASKDIALOG_BUTTON@@AEBV?$CArray@U_CTaskDialogButton@CTaskDialog@@AEBU12@@@@Z @ 5950 NONAME
 ?GetButtonExtraBorder@CMFCVisualManagerWindows@@UEBA?AVCSize@@XZ @ 5951 NONAME
 ?GetButtonID@CVSListBoxBase@@QEBAIH@Z @ 5952 NONAME
 ?GetButtonIndex@CMFCRibbonButtonsGroup@@QEBAHPEBVCMFCRibbonBaseElement@@@Z @ 5953 NONAME
 ?GetButtonIndex@CTaskDialog@@AEBA_JHAEBV?$CArray@U_CTaskDialogButton@CTaskDialog@@AEBU12@@@@Z @ 5954 NONAME
 ?GetButtonInfo@CMFCToolBar@@QEBAXHAEAI0AEAH@Z @ 5955 NONAME
 ?GetButtonInfo@CToolBar@@QEBAXHAEAI0AEAH@Z @ 5956 NONAME
 ?GetButtonInfo@CToolBarCtrl@@QEBAHHPEAUTBBUTTONINFOW@@@Z @ 5957 NONAME
 ?GetButtonNum@CVSListBoxBase@@QEBAHI@Z @ 5958 NONAME
 ?GetButtonSize@CToolBarCtrl@@QEBAKXZ @ 5959 NONAME
 ?GetButtonStyle@CButton@@QEBAIXZ @ 5960 NONAME
 ?GetButtonStyle@CMFCToolBar@@QEBAIH@Z @ 5961 NONAME
 ?GetButtonStyle@CToolBar@@QEBAIH@Z @ 5962 NONAME
 ?GetButtonText@CMFCToolBar@@QEBA?AV?$CStringT@_WV?$StrTraitMFC_DLL@_WV?$ChTraitsCRT@_W@ATL@@@@@ATL@@H@Z @ 5963 NONAME
 ?GetButtonText@CMFCToolBar@@QEBAXHAEAV?$CStringT@_WV?$StrTraitMFC_DLL@_WV?$ChTraitsCRT@_W@ATL@@@@@ATL@@@Z @ 5964 NONAME
 ?GetButtonText@CToolBar@@QEBA?AV?$CStringT@_WV?$StrTraitMFC_DLL@_WV?$ChTraitsCRT@_W@ATL@@@@@ATL@@H@Z @ 5965 NONAME
 ?GetButtonText@CToolBar@@QEBAXHAEAV?$CStringT@_WV?$StrTraitMFC_DLL@_WV?$ChTraitsCRT@_W@ATL@@@@@ATL@@@Z @ 5966 NONAME
 ?GetByCmd@CMFCToolBarComboBoxButton@@SAPEAV1@IH@Z @ 5967 NONAME
 ?GetByCmd@CMFCToolBarDateTimeCtrl@@SAPEAV1@I@Z @ 5968 NONAME
 ?GetByCmd@CMFCToolBarEditBoxButton@@SAPEAV1@I@Z @ 5969 NONAME
 ?GetByteArray@COleSafeArray@@QEAAXAEAVCByteArray@@@Z @ 5970 NONAME
 ?GetByteArrayFromVariantArray@COleVariant@@QEAAXAEAVCByteArray@@@Z @ 5971 NONAME
 ?GetByteOrder@CPropertySet@@QEAAGXZ @ 5972 NONAME
 ?GetCachedExtent@COleClientItem@@QEAAHPEAUtagSIZE@@W4tagDVASPECT@@@Z @ 5973 NONAME
 ?GetCacheEntry@COleDataSource@@IEAAPEAUAFX_DATACACHE_ENTRY@@PEAUtagFORMATETC@@W4tagDATADIR@@@Z @ 5974 NONAME
 ?GetCalendarBorder@CMonthCalCtrl@@QEBAHXZ @ 5975 NONAME
 ?GetCalendarCount@CMonthCalCtrl@@QEBAHXZ @ 5976 NONAME
 ?GetCalendarGridInfo@CMonthCalCtrl@@QEBAHPEAUtagMCGRIDINFO@@@Z @ 5977 NONAME
 ?GetCalID@CMonthCalCtrl@@QEBAKXZ @ 5978 NONAME
 ?GetCallbackMask@CListCtrl@@QEBAIXZ @ 5979 NONAME
 ?GetCanonicalFormatEtc@XDataObject@COleControl@@UEAAJPEAUtagFORMATETC@@0@Z @ 5980 NONAME
 ?GetCanonicalFormatEtc@XDataObject@COleDataSource@@UEAAJPEAUtagFORMATETC@@0@Z @ 5981 NONAME
 ?GetCanonicalFormatEtc@XDataObject@COleServerDoc@@UEAAJPEAUtagFORMATETC@@0@Z @ 5982 NONAME
 ?GetCanonicalFormatEtc@XDataObject@COleServerItem@@UEAAJPEAUtagFORMATETC@@0@Z @ 5983 NONAME
 ?GetCaptionBarTextColor@CMFCVisualManager@@UEAAKPEAVCMFCCaptionBar@@@Z @ 5984 NONAME
 ?GetCaptionBarTextColor@CMFCVisualManagerOffice2007@@UEAAKPEAVCMFCCaptionBar@@@Z @ 5985 NONAME
 ?GetCaptionButtonExtraBorder@CMFCVisualManagerWindows@@UEBA?AVCSize@@XZ @ 5986 NONAME
 ?GetCaptionButtonTotalWidth@CPaneFrameWnd@@IEBAHXZ @ 5987 NONAME
 ?GetCaptionHeight@CDockablePane@@UEBAHXZ @ 5988 NONAME
 ?GetCaptionHeight@CMFCDesktopAlertWnd@@UEAAHXZ @ 5989 NONAME
 ?GetCaptionRect@CFrameImpl@@IEAA?AVCRect@@XZ @ 5990 NONAME
 ?GetCaptionRect@CMFCDesktopAlertWnd@@IEAA?AVCRect@@XZ @ 5991 NONAME
 ?GetCaptionRect@CPaneFrameWnd@@UEBAXAEAVCRect@@@Z @ 5992 NONAME
 ?GetCaptionSize@CMFCRibbonPanel@@IEBA?AVCSize@@PEAVCDC@@@Z @ 5993 NONAME
 ?GetCaptionText@CMultiPaneFrameWnd@@UEAA?AV?$CStringT@_WV?$StrTraitMFC_DLL@_WV?$ChTraitsCRT@_W@ATL@@@@@ATL@@XZ @ 5994 NONAME
 ?GetCaptionText@CPaneFrameWnd@@UEAA?AV?$CStringT@_WV?$StrTraitMFC_DLL@_WV?$ChTraitsCRT@_W@ATL@@@@@ATL@@XZ @ 5995 NONAME
 ?GetCapture@COleControl@@QEAAPEAVCWnd@@XZ @ 5996 NONAME
 ?GetCapture@CWnd@@SAPEAV1@XZ @ 5997 NONAME
 ?GetCapture@XOleIPSite@COleControlSite@@UEAAJXZ @ 5998 NONAME
 ?GetCaretIndex@CListBox@@QEBAHXZ @ 5999 NONAME
 ?GetCaretPos@CWnd@@SA?AVCPoint@@XZ @ 6000 NONAME
 ?GetCategory@CMFCRibbonBar@@QEBAPEAVCMFCRibbonCategory@@H@Z @ 6001 NONAME
 ?GetCategoryCount@CMFCRibbonBar@@QEBAHXZ @ 6002 NONAME
 ?GetCategoryImages@CMFCRibbonCollector@@MEAAXAEBVCMFCRibbonCategory@@AEAVXCategory@CMFCRibbonInfo@@@Z @ 6003 NONAME
 ?GetCategoryImages@CMFCRibbonCollector@@MEAAXAEBVCMFCRibbonCategory@@AEAVXImage@CMFCRibbonInfo@@1@Z @ 6004 NONAME
 ?GetCategoryIndex@CMFCRibbonBar@@QEBAHPEAVCMFCRibbonCategory@@@Z @ 6005 NONAME
 ?GetCenter@CD2DRadialGradientBrush@@QEBA?AVCD2DPointF@@XZ @ 6006 NONAME
 ?GetChannelRect@CSliderCtrl@@QEBAXPEAUtagRECT@@@Z @ 6007 NONAME
 ?GetCharABCWidthsW@CDC@@QEBAHIIPEAU_ABC@@@Z @ 6008 NONAME
 ?GetCharABCWidthsW@CDC@@QEBAHIIPEAU_ABCFLOAT@@@Z @ 6009 NONAME
 ?GetCharacterPlacementW@CDC@@QEBAKAEAV?$CStringT@_WV?$StrTraitMFC_DLL@_WV?$ChTraitsCRT@_W@ATL@@@@@ATL@@HPEAUtagGCP_RESULTSW@@K@Z @ 6010 NONAME
 ?GetCharacterPlacementW@CDC@@QEBAKPEB_WHHPEAUtagGCP_RESULTSW@@K@Z @ 6011 NONAME
 ?GetCharFormat@CFontDialog@@QEBAXAEAU_charformatw@@@Z @ 6012 NONAME
 ?GetCharFormatSelection@CRichEditView@@QEAAAEAUCHARFORMAT2W@@XZ @ 6013 NONAME
 ?GetCharPos@CRichEditCtrl@@QEBA?AVCPoint@@J@Z @ 6014 NONAME
 ?GetCharWidthW@CDC@@QEBAHIIPEAH@Z @ 6015 NONAME
 ?GetCharWidthW@CDC@@QEBAHIIPEAM@Z @ 6016 NONAME
 ?GetCheck@CButton@@QEBAHXZ @ 6017 NONAME
 ?GetCheck@CCheckListBox@@QEAAHH@Z @ 6018 NONAME
 ?GetCheck@CListCtrl@@QEBAHH@Z @ 6019 NONAME
 ?GetCheck@CTreeCtrl@@QEBAHPEAU_TREEITEM@@@Z @ 6020 NONAME
 ?GetCheckButtonState@CFileDialog@@QEAAJKAEAH@Z @ 6021 NONAME
 ?GetCheckedRadioButton@CWnd@@QEBAHHH@Z @ 6022 NONAME
 ?GetCheckStyle@CCheckListBox@@QEAAIXZ @ 6023 NONAME
 ?GetChildItem@CTreeCtrl@@QEBAPEAU_TREEITEM@@PEAU2@@Z @ 6024 NONAME
 ?GetChildItems@CMFCShellTreeCtrl@@IEAAHPEAU_TREEITEM@@@Z @ 6025 NONAME
 ?GetClassID@CBlobProperty@@UEAAJPEAU_GUID@@@Z @ 6026 NONAME
 ?GetClassID@COleClientItem@@QEBAXPEAU_GUID@@@Z @ 6027 NONAME
 ?GetClassID@COleConvertDialog@@QEBAAEBU_GUID@@XZ @ 6028 NONAME
 ?GetClassID@COleInsertDialog@@QEBAAEBU_GUID@@XZ @ 6029 NONAME
 ?GetClassID@COleObjectFactory@@QEBAAEBU_GUID@@XZ @ 6030 NONAME
 ?GetClassID@CPropertySet@@QEAA?AU_GUID@@XZ @ 6031 NONAME
 ?GetClassID@XPersistFile@COleLinkingDoc@@UEAAJPEAU_GUID@@@Z @ 6032 NONAME
 ?GetClassID@XPersistMemory@COleControl@@UEAAJPEAU_GUID@@@Z @ 6033 NONAME
 ?GetClassID@XPersistPropertyBag@COleControl@@UEAAJPEAU_GUID@@@Z @ 6034 NONAME
 ?GetClassID@XPersistStorage@COleControl@@UEAAJPEAU_GUID@@@Z @ 6035 NONAME
 ?GetClassID@XPersistStorage@COleServerDoc@@UEAAJPEAU_GUID@@@Z @ 6036 NONAME
 ?GetClassID@XPersistStreamInit@COleControl@@UEAAJPEAU_GUID@@@Z @ 6037 NONAME
 ?GetClassInfoW@XProvideClassInfo@COleControl@@UEAAJPEAPEAUITypeInfo@@@Z @ 6038 NONAME
 ?GetClassObject@AFX_COM@@QEAAJAEBU_GUID@@0PEAPEAX@Z @ 6039 NONAME
 ?GetClientBitmap@CMDITabProxyWnd@@QEAAPEAUHBITMAP__@@HHH@Z @ 6040 NONAME
 ?GetClientOffset@COleControl@@UEBAXPEAJ0@Z @ 6041 NONAME
 ?GetClientRect@CDockingPanesRow@@QEBAXAEAVCRect@@@Z @ 6042 NONAME
 ?GetClientRect@COleControl@@UEBAXPEAUtagRECT@@@Z @ 6043 NONAME
 ?GetClientRect@CWnd@@QEBAXPEAUtagRECT@@@Z @ 6044 NONAME
 ?GetClientSite@COleClientItem@@MEAAPEAUIOleClientSite@@XZ @ 6045 NONAME
 ?GetClientSite@COleControl@@QEAAPEAUIOleClientSite@@XZ @ 6046 NONAME
 ?GetClientSite@COleServerDoc@@QEBAPEAUIOleClientSite@@XZ @ 6047 NONAME
 ?GetClientSite@CRichEditCntrItem@@UEAAPEAUIOleClientSite@@XZ @ 6048 NONAME
 ?GetClientSite@XOleObject@CDocObjectServer@@UEAAJPEAPEAUIOleClientSite@@@Z @ 6049 NONAME
 ?GetClientSite@XOleObject@COleControl@@UEAAJPEAPEAUIOleClientSite@@@Z @ 6050 NONAME
 ?GetClientSite@XOleObject@COleServerDoc@@UEAAJPEAPEAUIOleClientSite@@@Z @ 6051 NONAME
 ?GetClientSite@XOleObject@COleServerItem@@UEAAJPEAPEAUIOleClientSite@@@Z @ 6052 NONAME
 ?GetClipboardData@COleClientItem@@QEAAXPEAVCOleDataSource@@HPEAUtagPOINT@@PEAUtagSIZE@@@Z @ 6053 NONAME
 ?GetClipboardData@COleServerItem@@QEAAXPEAVCOleDataSource@@HPEAUtagPOINT@@PEAUtagSIZE@@@Z @ 6054 NONAME
 ?GetClipboardData@CRichEditView@@MEAAJPEAU_charrange@@KPEAUIDataObject@@PEAPEAU3@@Z @ 6055 NONAME
 ?GetClipboardData@XOleObject@CDocObjectServer@@UEAAJKPEAPEAUIDataObject@@@Z @ 6056 NONAME
 ?GetClipboardData@XOleObject@COleControl@@UEAAJKPEAPEAUIDataObject@@@Z @ 6057 NONAME
 ?GetClipboardData@XOleObject@COleServerDoc@@UEAAJKPEAPEAUIDataObject@@@Z @ 6058 NONAME
 ?GetClipboardData@XOleObject@COleServerItem@@UEAAJKPEAPEAUIDataObject@@@Z @ 6059 NONAME
 ?GetClipboardData@XRichEditOleCallback@CRichEditView@@UEAAJPEAU_charrange@@KPEAPEAUIDataObject@@@Z @ 6060 NONAME
 ?GetClipboardFormat@CMFCToolBarButton@@SAGXZ @ 6061 NONAME
 ?GetClipboardOwner@COleDataSource@@SAPEAV1@XZ @ 6062 NONAME
 ?GetClipboardOwner@CWnd@@SAPEAV1@XZ @ 6063 NONAME
 ?GetClipboardViewer@CWnd@@SAPEAV1@XZ @ 6064 NONAME
 ?GetClipBox@CDC@@UEBAHPEAUtagRECT@@@Z @ 6065 NONAME
 ?GetClipBox@CMetaFileDC@@UEBAHPEAUtagRECT@@@Z @ 6066 NONAME
 ?GetCmdImage@CCommandManager@@QEBAHIH@Z @ 6067 NONAME
 ?GetCmdMgr@@YAPEAVCCommandManager@@XZ @ 6068 NONAME
 ?GetColor@AFX_GLOBAL_DATA@@QEAAKH@Z @ 6069 NONAME
 ?GetColor@CColorDialog@@QEBAKXZ @ 6070 NONAME
 ?GetColor@CD2DSolidColorBrush@@QEBA?AU_D3DCOLORVALUE@@XZ @ 6071 NONAME
 ?GetColor@CFontDialog@@QEBAKXZ @ 6072 NONAME
 ?GetColor@CMonthCalCtrl@@QEBAKH@Z @ 6073 NONAME
 ?GetColorAdjustment@CDC@@QEBAHPEAUtagCOLORADJUSTMENT@@@Z @ 6074 NONAME
 ?GetColorByCmdID@CMFCColorMenuButton@@SAKI@Z @ 6075 NONAME
 ?GetColorByIndex@CMFCRibbonColorButton@@IEBAKH@Z @ 6076 NONAME
 ?GetColorGridSize@CMFCColorBar@@IEBA?AVCSize@@H@Z @ 6077 NONAME
 ?GetColorScheme@CReBarCtrl@@QEBAHPEAUtagCOLORSCHEME@@@Z @ 6078 NONAME
 ?GetColorScheme@CToolBarCtrl@@QEBAHPEAUtagCOLORSCHEME@@@Z @ 6079 NONAME
 ?GetColorSet@XViewObject@COleControl@@UEAAJKJPEAXPEAUtagDVTARGETDEVICE@@PEAUHDC__@@PEAPEAUtagLOGPALETTE@@@Z @ 6080 NONAME
 ?GetColumn@CListCtrl@@QEBAHHPEAUtagLVCOLUMNW@@@Z @ 6081 NONAME
 ?GetColumnCount@CSplitterWnd@@QEBAHXZ @ 6082 NONAME
 ?GetColumnInfo@CSplitterWnd@@QEBAXHAEAH0@Z @ 6083 NONAME
 ?GetColumnOrderArray@CListCtrl@@QEBAHPEAHH@Z @ 6084 NONAME
 ?GetColumnState@CMFCHeaderCtrl@@QEBAHH@Z @ 6085 NONAME
 ?GetColumnWidth@CListCtrl@@QEBAHH@Z @ 6086 NONAME
 ?GetComboBoxCtrl@CComboBoxEx@@QEBAPEAVCComboBox@@XZ @ 6087 NONAME
 ?GetCommand@CMFCRibbonCommandsListBox@@QEBAPEAVCMFCRibbonBaseElement@@H@Z @ 6088 NONAME
 ?GetCommandButtons@CMFCToolBar@@SAHIAEAVCObList@@@Z @ 6089 NONAME
 ?GetCommandIndex@CMFCRibbonCommandsListBox@@QEBAHI@Z @ 6090 NONAME
 ?GetCommandKeys@CMFCKeyMapDialog@@MEBA?AV?$CStringT@_WV?$StrTraitMFC_DLL@_WV?$ChTraitsCRT@_W@ATL@@@@@ATL@@I@Z @ 6091 NONAME
 ?GetCommandMap@CCmdTarget@@MEBAPEBUAFX_OLECMDMAP@@XZ @ 6092 NONAME
 ?GetCommandMap@COleDocObjectItem@@MEBAPEBUAFX_OLECMDMAP@@XZ @ 6093 NONAME
 ?GetCommandName@CMFCToolBarsCustomizeDialog@@QEBAPEB_WI@Z @ 6094 NONAME
 ?GetCommands@CMFCRibbonQuickAccessToolBar@@IEAAXAEAV?$CList@II@@@Z @ 6095 NONAME
 ?GetCommandsFrame@CMFCRibbonMainPanel@@QEBA?AVCRect@@XZ @ 6096 NONAME
 ?GetCommandTarget@CMFCPopupMenuBar@@MEBAPEAVCWnd@@XZ @ 6097 NONAME
 ?GetCommCtrlVersion@@YAJPEAK0@Z @ 6098 NONAME
 ?GetCommonButtonCount@CTaskDialog@@MEBAHXZ @ 6099 NONAME
 ?GetCommonButtonFlag@CTaskDialog@@MEBAHH@Z @ 6100 NONAME
 ?GetCommonButtonId@CTaskDialog@@MEBAHH@Z @ 6101 NONAME
 ?GetCompactSize@CMFCRibbonButton@@UEAA?AVCSize@@PEAVCDC@@@Z @ 6102 NONAME
 ?GetCompactSize@CMFCRibbonEdit@@UEAA?AVCSize@@PEAVCDC@@@Z @ 6103 NONAME
 ?GetCompactSize@CMFCRibbonGallery@@UEAA?AVCSize@@PEAVCDC@@@Z @ 6104 NONAME
 ?GetCompactSize@CMFCRibbonGalleryIcon@@MEAA?AVCSize@@PEAVCDC@@@Z @ 6105 NONAME
 ?GetCompactSize@CMFCRibbonLinkCtrl@@UEAA?AVCSize@@PEAVCDC@@@Z @ 6106 NONAME
 ?GetConnect@CDatabase@@QEBA?AV?$CStringT@_WV?$StrTraitMFC_DLL@_WV?$ChTraitsCRT@_W@ATL@@@@@ATL@@XZ @ 6107 NONAME
 ?GetConnectInfo@CDatabase@@IEAAXXZ @ 6108 NONAME
 ?GetConnectionCount@CConnectionPoint@@QEAAHXZ @ 6109 NONAME
 ?GetConnectionHook@CCmdTarget@@MEAAPEAUIConnectionPoint@@AEBU_GUID@@@Z @ 6110 NONAME
 ?GetConnectionHook@COleControl@@MEAAPEAUIConnectionPoint@@AEBU_GUID@@@Z @ 6111 NONAME
 ?GetConnectionInterface@XConnPt@CConnectionPoint@@UEAAJPEAU_GUID@@@Z @ 6112 NONAME
 ?GetConnectionMap@CCmdTarget@@MEBAPEBUAFX_CONNECTIONMAP@@XZ @ 6113 NONAME
 ?GetConnectionMap@COleControl@@MEBAPEBUAFX_CONNECTIONMAP@@XZ @ 6114 NONAME
 ?GetConnectionPointContainer@XConnPt@CConnectionPoint@@UEAAJPEAPEAUIConnectionPointContainer@@@Z @ 6115 NONAME
 ?GetConnections@CConnectionPoint@@QEAAPEBVCPtrArray@@XZ @ 6116 NONAME
 ?GetContainer@CConnectionPoint@@UEAAPEAUIConnectionPointContainer@@XZ @ 6117 NONAME
 ?GetContainer@CHtmlView@@QEBAPEAUIDispatch@@XZ @ 6118 NONAME
 ?GetContainer@COleDocument@@UEAAPEAUIOleItemContainer@@XZ @ 6119 NONAME
 ?GetContainer@COleLinkingDoc@@UEAAPEAUIOleItemContainer@@XZ @ 6120 NONAME
 ?GetContainer@XOleClientSite@COleClientItem@@UEAAJPEAPEAUIOleContainer@@@Z @ 6121 NONAME
 ?GetContainer@XOleClientSite@COleControlSite@@UEAAJPEAPEAUIOleContainer@@@Z @ 6122 NONAME
 ?GetContainerFrameWindow@COleDocIPFrameWndEx@@QEAAPEAVCOleCntrFrameWndEx@@XZ @ 6123 NONAME
 ?GetContainerFrameWindow@COleIPFrameWndEx@@QEAAPEAVCOleCntrFrameWndEx@@XZ @ 6124 NONAME
 ?GetContentExtent@XQuickActivate@COleControl@@UEAAJPEAUtagSIZE@@@Z @ 6125 NONAME
 ?GetContentsAll@CMFCToolBarEditBoxButton@@SA?AV?$CStringT@_WV?$StrTraitMFC_DLL@_WV?$ChTraitsCRT@_W@ATL@@@@@ATL@@I@Z @ 6126 NONAME
 ?GetContext@CInternetConnection@@QEBA_KXZ @ 6127 NONAME
 ?GetContext@CInternetFile@@QEBA_KXZ @ 6128 NONAME
 ?GetContext@CInternetSession@@QEBA_KXZ @ 6129 NONAME
 ?GetContextCaptionIndex@CMFCRibbonContextCaption@@QEAAHPEAV1@@Z @ 6130 NONAME
 ?GetContextCategories@CMFCRibbonContextCaption@@QEAAXAEAV?$CArray@PEAVCMFCRibbonCategory@@PEAV1@@@@Z @ 6131 NONAME
 ?GetContextCategoryCount@CMFCRibbonContextCaption@@QEAAHXZ @ 6132 NONAME
 ?GetContextMenu@CRichEditView@@MEAAPEAUHMENU__@@GPEAUIOleObject@@PEAU_charrange@@@Z @ 6133 NONAME
 ?GetContextMenu@XRichEditOleCallback@CRichEditView@@UEAAJGPEAUIOleObject@@PEAU_charrange@@PEAPEAUHMENU__@@@Z @ 6134 NONAME
 ?GetContextMenuManager@CWinAppEx@@QEAAPEAVCContextMenuManager@@XZ @ 6135 NONAME
 ?GetContextName@CMFCRibbonBar@@QEBAHIAEAV?$CStringT@_WV?$StrTraitMFC_DLL@_WV?$ChTraitsCRT@_W@ATL@@@@@ATL@@@Z @ 6136 NONAME
 ?GetControl@CDataPathProperty@@QEAAPEAVCOleControl@@XZ @ 6137 NONAME
 ?GetControlBar@CFrameWnd@@QEAAPEAVCControlBar@@I@Z @ 6138 NONAME
 ?GetControlContainer@CWnd@@QEAAPEAVCOleControlContainer@@XZ @ 6139 NONAME
 ?GetControlData@CMFCControlContainer@@QEAAHGAEAKAEAPEAE@Z @ 6140 NONAME
 ?GetControlDispatch@CDHtmlDialog@@QEAAJPEB_WPEAPEAUIDispatch@@@Z @ 6141 NONAME
 ?GetControlFlags@COleControl@@UEAAKXZ @ 6142 NONAME
 ?GetControlInfo@COleControlSite@@IEAAXXZ @ 6143 NONAME
 ?GetControlInfo@XOleControl@COleControl@@UEAAJPEAUtagCONTROLINFO@@@Z @ 6144 NONAME
 ?GetControlItemState@CFileDialog@@QEAAJKKAEAW4CDCONTROLSTATEF@@@Z @ 6145 NONAME
 ?GetControllingFrame@CDocObjectServer@@QEBAPEAVCOleDocIPFrameWnd@@XZ @ 6146 NONAME
 ?GetControllingUnknown@CCmdTarget@@QEAAPEAUIUnknown@@XZ @ 6147 NONAME
 ?GetControlProperty@CDHtmlDialog@@QEAA?AUtagVARIANT@@PEAUIDispatch@@J@Z @ 6148 NONAME
 ?GetControlProperty@CDHtmlDialog@@QEAA?AUtagVARIANT@@PEB_W0@Z @ 6149 NONAME
 ?GetControlProperty@CDHtmlDialog@@QEAA?AUtagVARIANT@@PEB_WJ@Z @ 6150 NONAME
 ?GetControlSize@COleControl@@QEAAXPEAH0@Z @ 6151 NONAME
 ?GetControlState@CFileDialog@@QEAAJKAEAW4CDCONTROLSTATEF@@@Z @ 6152 NONAME
 ?GetControlStatus@COlePropertyPage@@QEAAHI@Z @ 6153 NONAME
 ?GetControlUnknown@CWnd@@QEAAPEAUIUnknown@@XZ @ 6154 NONAME
 ?GetConvertInfo@XOleUIObjInfo@COlePropertiesDialog@@UEAAJKPEAU_GUID@@PEAG0PEAPEAU3@PEAI@Z @ 6155 NONAME
 ?GetCookie@CInternetSession@@SAHPEB_W0AEAV?$CStringT@_WV?$StrTraitMFC_DLL@_WV?$ChTraitsCRT@_W@ATL@@@@@ATL@@@Z @ 6156 NONAME
 ?GetCookie@CInternetSession@@SAHPEB_W0PEA_WK@Z @ 6157 NONAME
 ?GetCookieLength@CInternetSession@@SAKPEB_W0@Z @ 6158 NONAME
 ?GetCopies@CPrintDialog@@QEBAHXZ @ 6159 NONAME
 ?GetCopies@CPrintDialogEx@@QEBAHXZ @ 6160 NONAME
 ?GetCount@CByteArray@@QEBA_JXZ @ 6161 NONAME
 ?GetCount@CComboBox@@QEBAHXZ @ 6162 NONAME
 ?GetCount@CControlBar@@QEBAHXZ @ 6163 NONAME
 ?GetCount@CDWordArray@@QEBA_JXZ @ 6164 NONAME
 ?GetCount@CListBox@@QEBAHXZ @ 6165 NONAME
 ?GetCount@CMapPtrToPtr@@QEBA_JXZ @ 6166 NONAME
 ?GetCount@CMapPtrToWord@@QEBA_JXZ @ 6167 NONAME
 ?GetCount@CMapStringToOb@@QEBA_JXZ @ 6168 NONAME
 ?GetCount@CMapStringToPtr@@QEBA_JXZ @ 6169 NONAME
 ?GetCount@CMapStringToString@@QEBA_JXZ @ 6170 NONAME
 ?GetCount@CMapWordToOb@@QEBA_JXZ @ 6171 NONAME
 ?GetCount@CMapWordToPtr@@QEBA_JXZ @ 6172 NONAME
 ?GetCount@CMFCCmdUsageCount@@QEBAII@Z @ 6173 NONAME
 ?GetCount@CMFCDropDownListBox@@QEBAHXZ @ 6174 NONAME
 ?GetCount@CMFCRibbonPanel@@QEBAHXZ @ 6175 NONAME
 ?GetCount@CMFCRibbonStatusBar@@QEBAHXZ @ 6176 NONAME
 ?GetCount@CMFCToolBar@@QEBAHXZ @ 6177 NONAME
 ?GetCount@CMFCToolBarComboBoxButton@@QEBA_JXZ @ 6178 NONAME
 ?GetCount@CObArray@@QEBA_JXZ @ 6179 NONAME
 ?GetCount@CObList@@QEBA_JXZ @ 6180 NONAME
 ?GetCount@CPropertySection@@QEAAKXZ @ 6181 NONAME
 ?GetCount@CPropertySet@@QEAAKXZ @ 6182 NONAME
 ?GetCount@CPtrArray@@QEBA_JXZ @ 6183 NONAME
 ?GetCount@CPtrList@@QEBA_JXZ @ 6184 NONAME
 ?GetCount@CStringArray@@QEBA_JXZ @ 6185 NONAME
 ?GetCount@CStringList@@QEBA_JXZ @ 6186 NONAME
 ?GetCount@CTreeCtrl@@QEBAIXZ @ 6187 NONAME
 ?GetCount@CUIntArray@@QEBA_JXZ @ 6188 NONAME
 ?GetCount@CVSListBox@@UEBAHXZ @ 6189 NONAME
 ?GetCount@CWordArray@@QEBA_JXZ @ 6190 NONAME
 ?GetCountAll@CMFCToolBarComboBoxButton@@SAHI@Z @ 6191 NONAME
 ?GetCountInCategory@CMFCToolBarsCustomizeDialog@@QEBAHPEB_WAEBVCObList@@@Z @ 6192 NONAME
 ?GetCountPerPage@CListCtrl@@QEBAHXZ @ 6193 NONAME
 ?GetCreationTime@CFileFind@@UEBAHAEAVCTime@ATL@@@Z @ 6194 NONAME
 ?GetCreationTime@CFileFind@@UEBAHPEAU_FILETIME@@@Z @ 6195 NONAME
 ?GetCreationTime@CGopherFileFind@@UEBAHAEAVCTime@ATL@@@Z @ 6196 NONAME
 ?GetCreationTime@CGopherFileFind@@UEBAHPEAU_FILETIME@@@Z @ 6197 NONAME
 ?GetCurFile@XPersistFile@COleLinkingDoc@@UEAAJPEAPEA_W@Z @ 6198 NONAME
 ?GetCurFocus@CTabCtrl@@QEBAHXZ @ 6199 NONAME
 ?GetCurrentAlignment@CBasePane@@UEBAKXZ @ 6200 NONAME
 ?GetCurrentBitmap@CDC@@QEBAPEAVCBitmap@@XZ @ 6201 NONAME
 ?GetCurrentBrush@CDC@@QEBAPEAVCBrush@@XZ @ 6202 NONAME
 ?GetCurrentDirectory@CFtpConnection@@QEBAHAEAV?$CStringT@_WV?$StrTraitMFC_DLL@_WV?$ChTraitsCRT@_W@ATL@@@@@ATL@@@Z @ 6203 NONAME
 ?GetCurrentDirectory@CFtpConnection@@QEBAHPEA_WPEAK@Z @ 6204 NONAME
 ?GetCurrentDirectoryAsURL@CFtpConnection@@QEBAHAEAV?$CStringT@_WV?$StrTraitMFC_DLL@_WV?$ChTraitsCRT@_W@ATL@@@@@ATL@@@Z @ 6205 NONAME
 ?GetCurrentDirectoryAsURL@CFtpConnection@@QEBAHPEA_WPEAK@Z @ 6206 NONAME
 ?GetCurrentDirectoryW@CFtpConnection@@QEBAHAEAV?$CStringT@_WV?$StrTraitMFC_DLL@_WV?$ChTraitsCRT@_W@ATL@@@@@ATL@@@Z @ 6207 NONAME
 ?GetCurrentDirectoryW@CFtpConnection@@QEBAHPEA_WPEAK@Z @ 6208 NONAME
 ?GetCurrentFolder@CMFCShellListCtrl@@QEBAHAEAV?$CStringT@_WV?$StrTraitMFC_DLL@_WV?$ChTraitsCRT@_W@ATL@@@@@ATL@@@Z @ 6209 NONAME
 ?GetCurrentFolderName@CMFCShellListCtrl@@QEBAHAEAV?$CStringT@_WV?$StrTraitMFC_DLL@_WV?$ChTraitsCRT@_W@ATL@@@@@ATL@@@Z @ 6210 NONAME
 ?GetCurrentFont@CDC@@QEBAPEAVCFont@@XZ @ 6211 NONAME
 ?GetCurrentFont@CFontDialog@@QEAAXPEAUtagLOGFONTW@@@Z @ 6212 NONAME
 ?GetCurrentFont@CMFCStatusBar@@IEBAPEAUHFONT__@@XZ @ 6213 NONAME
 ?GetCurrentMessage@CWnd@@KAPEBUtagMSG@@XZ @ 6214 NONAME
 ?GetCurrentPalette@CDC@@QEBAPEAVCPalette@@XZ @ 6215 NONAME
 ?GetCurrentPen@CDC@@QEBAPEAVCPen@@XZ @ 6216 NONAME
 ?GetCurrentPosition@CDC@@QEBA?AVCPoint@@XZ @ 6217 NONAME
 ?GetCurrentTool@CToolTipCtrl@@QEBAHPEAUtagTOOLINFOW@@@Z @ 6218 NONAME
 ?GetCurrentUrl@CDHtmlDialog@@QEAAXAEAV?$CStringT@_WV?$StrTraitMFC_DLL@_WV?$ChTraitsCRT@_W@ATL@@@@@ATL@@@Z @ 6219 NONAME
 ?GetCurrentView@CMonthCalCtrl@@QEBAKXZ @ 6220 NONAME
 ?GetCurSel@CComboBox@@QEBAHXZ @ 6221 NONAME
 ?GetCurSel@CListBox@@QEBAHXZ @ 6222 NONAME
 ?GetCurSel@CMFCDropDownListBox@@QEAAHXZ @ 6223 NONAME
 ?GetCurSel@CMonthCalCtrl@@QEBAHAEAVCOleDateTime@ATL@@@Z @ 6224 NONAME
 ?GetCurSel@CMonthCalCtrl@@QEBAHAEAVCTime@ATL@@@Z @ 6225 NONAME
 ?GetCurSel@CMonthCalCtrl@@QEBAHPEAU_SYSTEMTIME@@@Z @ 6226 NONAME
 ?GetCurSel@CTabCtrl@@QEBAHXZ @ 6227 NONAME
 ?GetCurSelAll@CMFCToolBarComboBoxButton@@SAHI@Z @ 6228 NONAME
 ?GetCursor@CButton@@QEAAPEAUHICON__@@XZ @ 6229 NONAME
 ?GetCursor@CDataBoundProperty@@QEAAPEAUIUnknown@@XZ @ 6230 NONAME
 ?GetCursor@CDataSourceControl@@UEAAPEAUIUnknown@@XZ @ 6231 NONAME
 ?GetCursor@COleControlSite@@IEAAJJPEAPEAUIUnknown@@PEAPEAX@Z @ 6232 NONAME
 ?GetCursor@CStatic@@QEAAPEAUHICON__@@XZ @ 6233 NONAME
 ?GetCursor@XBoundObjectSite@COleControlSite@@UEAAJJPEAPEAUICursor@@PEAPEAX@Z @ 6234 NONAME
 ?GetCursorCommitBehavior@CDatabase@@QEBAHXZ @ 6235 NONAME
 ?GetCursorPos@CMFCColorPickerCtrl@@IEAA?AVCPoint@@XZ @ 6236 NONAME
 ?GetCursorRect@CMFCColorPickerCtrl@@IEAA?AVCRect@@XZ @ 6237 NONAME
 ?GetCursorRollbackBehavior@CDatabase@@QEBAHXZ @ 6238 NONAME
 ?GetCustomColors@CMFCPropertyGridCtrl@@QEAAXAEAK000000@Z @ 6239 NONAME
 ?GetData@?$CSimpleStringT@_W$00@ATL@@AEBAPEAUCStringData@2@XZ @ 6240 NONAME
 ?GetData@?$CSimpleStringT@D$00@ATL@@AEBAPEAUCStringData@2@XZ @ 6241 NONAME
 ?GetData@CByteArray@@QEAAPEAEXZ @ 6242 NONAME
 ?GetData@CByteArray@@QEBAPEBEXZ @ 6243 NONAME
 ?GetData@CDWordArray@@QEAAPEAKXZ @ 6244 NONAME
 ?GetData@CDWordArray@@QEBAPEBKXZ @ 6245 NONAME
 ?GetData@CObArray@@QEAAPEAPEAVCObject@@XZ @ 6246 NONAME
 ?GetData@CObArray@@QEBAPEAPEBVCObject@@XZ @ 6247 NONAME
 ?GetData@COleDataObject@@QEAAHGPEAUtagSTGMEDIUM@@PEAUtagFORMATETC@@@Z @ 6248 NONAME
 ?GetData@CProcessLocalObject@@QEAAPEAVCNoTrackObject@@P6APEAV2@XZ@Z @ 6249 NONAME
 ?GetData@CPtrArray@@QEAAPEAPEAXXZ @ 6250 NONAME
 ?GetData@CPtrArray@@QEBAPEAPEBXXZ @ 6251 NONAME
 ?GetData@CRecordset@@SA_JPEAVCDatabase@@PEAXFF1_JF@Z @ 6252 NONAME
 ?GetData@CStringArray@@QEAAPEAV?$CStringT@_WV?$StrTraitMFC_DLL@_WV?$ChTraitsCRT@_W@ATL@@@@@ATL@@XZ @ 6253 NONAME
 ?GetData@CStringArray@@QEBAPEBV?$CStringT@_WV?$StrTraitMFC_DLL@_WV?$ChTraitsCRT@_W@ATL@@@@@ATL@@XZ @ 6254 NONAME
 ?GetData@CThreadLocalObject@@QEAAPEAVCNoTrackObject@@P6APEAV2@XZ@Z @ 6255 NONAME
 ?GetData@CUIntArray@@QEAAPEAIXZ @ 6256 NONAME
 ?GetData@CUIntArray@@QEBAPEBIXZ @ 6257 NONAME
 ?GetData@CWordArray@@QEAAPEAGXZ @ 6258 NONAME
 ?GetData@CWordArray@@QEBAPEBGXZ @ 6259 NONAME
 ?GetData@XDataObject@COleControl@@UEAAJPEAUtagFORMATETC@@PEAUtagSTGMEDIUM@@@Z @ 6260 NONAME
 ?GetData@XDataObject@COleDataSource@@UEAAJPEAUtagFORMATETC@@PEAUtagSTGMEDIUM@@@Z @ 6261 NONAME
 ?GetData@XDataObject@COleServerDoc@@UEAAJPEAUtagFORMATETC@@PEAUtagSTGMEDIUM@@@Z @ 6262 NONAME
 ?GetData@XDataObject@COleServerItem@@UEAAJPEAUtagFORMATETC@@PEAUtagSTGMEDIUM@@@Z @ 6263 NONAME
 ?GetDatabaseName@CDatabase@@QEBA?AV?$CStringT@_WV?$StrTraitMFC_DLL@_WV?$ChTraitsCRT@_W@ATL@@@@@ATL@@XZ @ 6264 NONAME
 ?GetDataBuffer@CRecordset@@SAPEAXAEAVCDBVariant@@FPEA_JF_K@Z @ 6265 NONAME
 ?GetDataHere@XDataObject@COleControl@@UEAAJPEAUtagFORMATETC@@PEAUtagSTGMEDIUM@@@Z @ 6266 NONAME
 ?GetDataHere@XDataObject@COleDataSource@@UEAAJPEAUtagFORMATETC@@PEAUtagSTGMEDIUM@@@Z @ 6267 NONAME
 ?GetDataHere@XDataObject@COleServerDoc@@UEAAJPEAUtagFORMATETC@@PEAUtagSTGMEDIUM@@@Z @ 6268 NONAME
 ?GetDataHere@XDataObject@COleServerItem@@UEAAJPEAUtagFORMATETC@@PEAUtagSTGMEDIUM@@@Z @ 6269 NONAME
 ?GetDataNA@CThreadLocalObject@@QEAAPEAVCNoTrackObject@@XZ @ 6270 NONAME
 ?GetDataObject@COleServerItem@@QEAAPEAUIDataObject@@XZ @ 6271 NONAME
 ?GetDataRecoveryHandler@CWinApp@@UEAAPEAVCDataRecoveryHandler@@XZ @ 6272 NONAME
 ?GetDataSource@COleControl@@IEAAPEAVCControlDataSource@1@XZ @ 6273 NONAME
 ?GetDataSource@COleServerItem@@IEAAPEAVCOleDataSource@@XZ @ 6274 NONAME
 ?GetDataVersion@CWinAppEx@@QEBAHXZ @ 6275 NONAME
 ?GetDateTimePickerInfo@CDateTimeCtrl@@QEBAHPEAUtagDATETIMEPICKERINFO@@@Z @ 6276 NONAME
 ?GetDC@COleControl@@QEAAPEAVCDC@@PEBUtagRECT@@K@Z @ 6277 NONAME
 ?GetDC@CWnd@@QEAAPEAVCDC@@XZ @ 6278 NONAME
 ?GetDC@XOleIPSite@COleControlSite@@UEAAJPEBUtagRECT@@KPEAPEAUHDC__@@@Z @ 6279 NONAME
 ?GetDCEx@CWnd@@QEAAPEAVCDC@@PEAVCRgn@@K@Z @ 6280 NONAME
 ?GetDefaultAccelerator@CDocument@@UEAAPEAUHACCEL__@@XZ @ 6281 NONAME
 ?GetDefaultAccelerator@CFrameWnd@@UEAAPEAUHACCEL__@@XZ @ 6282 NONAME
 ?GetDefaultAccelerator@COleServerDoc@@MEAAPEAUHACCEL__@@XZ @ 6283 NONAME
 ?GetDefaultCharFormat@CRichEditCtrl@@QEBAKAEAU_charformatw@@@Z @ 6284 NONAME
 ?GetDefaultCharFormat@CRichEditCtrl@@QEBAKAEAUCHARFORMAT2W@@@Z @ 6285 NONAME
 ?GetDefaultCommands@CMFCRibbonQuickAccessToolBar@@IEAAXAEAV?$CList@II@@@Z @ 6286 NONAME
 ?GetDefaultConnect@CRecordset@@UEAA?AV?$CStringT@_WV?$StrTraitMFC_DLL@_WV?$ChTraitsCRT@_W@ATL@@@@@ATL@@XZ @ 6287 NONAME
 ?GetDefaultFieldType@CRecordset@@SAFF@Z @ 6288 NONAME
 ?GetDefaultItem@CMenu@@QEAAIIH@Z @ 6289 NONAME
 ?GetDefaultMenu@CDocument@@UEAAPEAUHMENU__@@XZ @ 6290 NONAME
 ?GetDefaultMenu@COleServerDoc@@MEAAPEAUHMENU__@@XZ @ 6291 NONAME
 ?GetDefaultPaneDivider@CDockablePane@@QEBAPEAVCPaneDivider@@XZ @ 6292 NONAME
 ?GetDefaults@CPrintDialog@@QEAAHXZ @ 6293 NONAME
 ?GetDefaults@CPrintDialogEx@@QEAAHXZ @ 6294 NONAME
 ?GetDefaultSQL@CRecordset@@UEAA?AV?$CStringT@_WV?$StrTraitMFC_DLL@_WV?$ChTraitsCRT@_W@ATL@@@@@ATL@@XZ @ 6295 NONAME
 ?GetDefaultValue@CAnimationColor@@QEAAKXZ @ 6296 NONAME
 ?GetDefaultValue@CAnimationPoint@@QEAA?AVCPoint@@XZ @ 6297 NONAME
 ?GetDefaultValue@CAnimationRect@@QEAA?AVCRect@@XZ @ 6298 NONAME
 ?GetDefaultValue@CAnimationSize@@QEAA?AVCSize@@XZ @ 6299 NONAME
 ?GetDefBtnCode@COccManager@@SAKPEAVCWnd@@@Z @ 6300 NONAME
 ?GetDefBtnCode@COleControlSite@@QEAAKXZ @ 6301 NONAME
 ?GetDefID@CDialog@@QEBAKXZ @ 6302 NONAME
 ?GetDelayTime@CToolTipCtrl@@QEBAHK@Z @ 6303 NONAME
 ?GetDepth@CDumpContext@@QEBAHXZ @ 6304 NONAME
 ?GetDescendantWindow@CWnd@@QEBAPEAV1@HH@Z @ 6305 NONAME
 ?GetDescendantWindow@CWnd@@SAPEAV1@PEAUHWND__@@HH@Z @ 6306 NONAME
 ?GetDescription@CMFCRibbonBaseElement@@UEBA?AV?$CStringT@_WV?$StrTraitMFC_DLL@_WV?$ChTraitsCRT@_W@ATL@@@@@ATL@@XZ @ 6307 NONAME
 ?GetDescription@CMFCRibbonGalleryIcon@@MEBA?AV?$CStringT@_WV?$StrTraitMFC_DLL@_WV?$ChTraitsCRT@_W@ATL@@@@@ATL@@XZ @ 6308 NONAME
 ?GetDesktopWindow@CWnd@@SAPEAV1@XZ @ 6309 NONAME
 ?GetDeviceCaps@CDC@@QEBAHH@Z @ 6310 NONAME
 ?GetDeviceName@CPageSetupDialog@@QEBA?AV?$CStringT@_WV?$StrTraitMFC_DLL@_WV?$ChTraitsCRT@_W@ATL@@@@@ATL@@XZ @ 6311 NONAME
 ?GetDeviceName@CPrintDialog@@QEBA?AV?$CStringT@_WV?$StrTraitMFC_DLL@_WV?$ChTraitsCRT@_W@ATL@@@@@ATL@@XZ @ 6312 NONAME
 ?GetDeviceName@CPrintDialogEx@@QEBA?AV?$CStringT@_WV?$StrTraitMFC_DLL@_WV?$ChTraitsCRT@_W@ATL@@@@@ATL@@XZ @ 6313 NONAME
 ?GetDeviceScrollPosition@CScrollView@@QEBA?AVCPoint@@XZ @ 6314 NONAME
 ?GetDeviceScrollSizes@CScrollView@@QEBAXAEAHAEAUtagSIZE@@11@Z @ 6315 NONAME
 ?GetDevMode@CPageSetupDialog@@QEBAPEAU_devicemodeW@@XZ @ 6316 NONAME
 ?GetDevMode@CPrintDialog@@QEBAPEAU_devicemodeW@@XZ @ 6317 NONAME
 ?GetDevMode@CPrintDialogEx@@QEBAPEAU_devicemodeW@@XZ @ 6318 NONAME
 ?GetDHtmlCommandMapping@CHtmlEditView@@UEAAIIAEAHAEAI@Z @ 6319 NONAME
 ?GetDHtmlDocument@CDHtmlDialog@@UEAAJPEAPEAUIHTMLDocument2@@@Z @ 6320 NONAME
 ?GetDHtmlDocument@CHtmlEditCtrl@@QEBAHPEAPEAUIHTMLDocument2@@@Z @ 6321 NONAME
 ?GetDHtmlDocument@CHtmlEditView@@QEBAHPEAPEAUIHTMLDocument2@@@Z @ 6322 NONAME
 ?GetDHtmlEventMap@@YAPEBUDHtmlEventMapEntry@@XZ @ 6323 NONAME
 ?GetDHtmlEventMap@CDHtmlDialog@@MEAAPEBUDHtmlEventMapEntry@@XZ @ 6324 NONAME
 ?GetDHtmlEventMap@CMultiPageDHtmlDialog@@MEAAPEBUDHtmlEventMapEntry@@XZ @ 6325 NONAME
 ?GetDialogSize@CMFCDesktopAlertWnd@@UEAA?AVCSize@@XZ @ 6326 NONAME
 ?GetDim@COleSafeArray@@QEAAKXZ @ 6327 NONAME
 ?GetDisabledImageList@CToolBarCtrl@@QEBAPEAVCImageList@@XZ @ 6328 NONAME
 ?GetDispatchIID@CCmdTarget@@UEAAHPEAU_GUID@@@Z @ 6329 NONAME
 ?GetDispatchIID@COleControl@@MEAAHPEAU_GUID@@@Z @ 6330 NONAME
 ?GetDispatchMap@CCmdTarget@@MEBAPEBUAFX_DISPMAP@@XZ @ 6331 NONAME
 ?GetDispatchMap@COleControlContainer@@MEBAPEBUAFX_DISPMAP@@XZ @ 6332 NONAME
 ?GetDispEntry@CCmdTarget@@IEAAPEBUAFX_DISPMAP_ENTRY@@J@Z @ 6333 NONAME
 ?GetDisplayName@COleChangeSourceDialog@@QEAA?AV?$CStringT@_WV?$StrTraitMFC_DLL@_WV?$ChTraitsCRT@_W@ATL@@@@@ATL@@XZ @ 6334 NONAME
 ?GetDisplayName@CRecentFileList@@UEBAHAEAV?$CStringT@_WV?$StrTraitMFC_DLL@_WV?$ChTraitsCRT@_W@ATL@@@@@ATL@@HPEB_WHH@Z @ 6335 NONAME
 ?GetDisplayString@CFontHolder@@QEAAHAEAV?$CStringT@_WV?$StrTraitMFC_DLL@_WV?$ChTraitsCRT@_W@ATL@@@@@ATL@@@Z @ 6336 NONAME
 ?GetDisplayString@CPictureHolder@@QEAAHAEAV?$CStringT@_WV?$StrTraitMFC_DLL@_WV?$ChTraitsCRT@_W@ATL@@@@@ATL@@@Z @ 6337 NONAME
 ?GetDisplayString@XPerPropertyBrowsing@COleControl@@UEAAJJPEAPEA_W@Z @ 6338 NONAME
 ?GetDlgCtrlID@COleControlSite@@UEBAHXZ @ 6339 NONAME
 ?GetDlgCtrlID@CWnd@@QEBAHXZ @ 6340 NONAME
 ?GetDlgItem@COleControlContainer@@UEBAPEAVCWnd@@H@Z @ 6341 NONAME
 ?GetDlgItem@COleControlContainer@@UEBAXHPEAPEAUHWND__@@@Z @ 6342 NONAME
 ?GetDlgItem@CWnd@@QEBAPEAV1@H@Z @ 6343 NONAME
 ?GetDlgItem@CWnd@@QEBAXHPEAPEAUHWND__@@@Z @ 6344 NONAME
 ?GetDlgItemInt@COleControlContainer@@UEBAIHPEAHH@Z @ 6345 NONAME
 ?GetDlgItemInt@CWnd@@QEBAIHPEAHH@Z @ 6346 NONAME
 ?GetDlgItemTextW@COleControlContainer@@UEBAHHPEA_WH@Z @ 6347 NONAME
 ?GetDlgItemTextW@CWnd@@QEBAHHAEAV?$CStringT@_WV?$StrTraitMFC_DLL@_WV?$ChTraitsCRT@_W@ATL@@@@@ATL@@@Z @ 6348 NONAME
 ?GetDlgItemTextW@CWnd@@QEBAHHPEA_WH@Z @ 6349 NONAME
 ?GetDlgSize@CMFCDesktopAlertDialog@@QEAA?AVCSize@@XZ @ 6350 NONAME
 ?GetDocFrame@COleIPFrameWnd@@QEAAPEAVCFrameWnd@@XZ @ 6351 NONAME
 ?GetDockBar@CDockContext@@QEAAPEAVCDockBar@@K@Z @ 6352 NONAME
 ?GetDockedControlBar@CDockBar@@IEBAPEAVCControlBar@@H@Z @ 6353 NONAME
 ?GetDockedCount@CDockBar@@QEBAHXZ @ 6354 NONAME
 ?GetDockedVisibleCount@CDockBar@@UEBAHXZ @ 6355 NONAME
 ?GetDockingFrame@CControlBar@@QEBAPEAVCFrameWnd@@XZ @ 6356 NONAME
 ?GetDockingManager@CGlobalUtils@@QEAAPEAVCDockingManager@@PEAVCWnd@@@Z @ 6357 NONAME
 ?GetDockingMode@CBasePane@@UEBA?AW4AFX_DOCK_TYPE@@XZ @ 6358 NONAME
 ?GetDockingMode@CPaneFrameWnd@@UEBA?AW4AFX_DOCK_TYPE@@XZ @ 6359 NONAME
 ?GetDockingStatus@CDockablePane@@UEAA?AW4AFX_CS_STATUS@@VCPoint@@H@Z @ 6360 NONAME
 ?GetDockingStatus@CMFCOutlookBar@@UEAA?AW4AFX_CS_STATUS@@VCPoint@@H@Z @ 6361 NONAME
 ?GetDockingTabsBordersSize@CMFCVisualManagerVS2005@@UEAAHXZ @ 6362 NONAME
 ?GetDockSiteFrameWnd@CBasePane@@UEBAPEAVCWnd@@XZ @ 6363 NONAME
 ?GetDockState@CFrameWnd@@QEBAXAEAVCDockState@@@Z @ 6364 NONAME
 ?GetDocMiscStatus@XOleDocument@CDocObjectServer@@UEAAJPEAK@Z @ 6365 NONAME
 ?GetDocObjectServer@COleServerDoc@@MEAAPEAVCDocObjectServer@@PEAUIOleDocumentSite@@@Z @ 6366 NONAME
 ?GetDocString@CDocTemplate@@UEBAHAEAV?$CStringT@_WV?$StrTraitMFC_DLL@_WV?$ChTraitsCRT@_W@ATL@@@@@ATL@@W4DocStringIndex@1@@Z @ 6367 NONAME
 ?GetDocTemplate@CDocument@@QEBAPEAVCDocTemplate@@XZ @ 6368 NONAME
 ?GetDocument@CDocItem@@QEBAPEAVCDocument@@XZ @ 6369 NONAME
 ?GetDocument@COleClientItem@@QEBAPEAVCOleDocument@@XZ @ 6370 NONAME
 ?GetDocument@COleServerItem@@QEBAPEAVCOleServerDoc@@XZ @ 6371 NONAME
 ?GetDocument@CRichEditCntrItem@@QEAAPEAVCRichEditDoc@@XZ @ 6372 NONAME
 ?GetDocument@CRichEditView@@QEBAPEAVCRichEditDoc@@XZ @ 6373 NONAME
 ?GetDocument@CView@@QEBAPEAVCDocument@@XZ @ 6374 NONAME
 ?GetDocument@XOleDocumentView@CDocObjectServer@@UEAAJPEAPEAUIUnknown@@@Z @ 6375 NONAME
 ?GetDocumentCount@CDocManager@@IEAAHXZ @ 6376 NONAME
 ?GetDocumentIcon@CMFCTabCtrl@@SAPEAUHICON__@@I@Z @ 6377 NONAME
 ?GetDocumentListName@CDataRecoveryHandler@@UEBA?AV?$CStringT@_WV?$StrTraitMFC_DLL@_WV?$ChTraitsCRT@_W@ATL@@@@@ATL@@PEAVCDocument@@@Z @ 6378 NONAME
 ?GetDocumentName@CMDIChildWndEx@@UEAAPEB_WPEAPEAVCObject@@@Z @ 6379 NONAME
 ?GetDPI@CD2DBitmap@@QEBA?AVCD2DSizeF@@XZ @ 6380 NONAME
 ?GetDpi@CRenderTarget@@QEBA?AVCD2DSizeF@@XZ @ 6381 NONAME
 ?GetDragDropEffect@XRichEditOleCallback@CRichEditView@@UEAAJHKPEAK@Z @ 6382 NONAME
 ?GetDragImage@CImageList@@SAPEAV1@PEAUtagPOINT@@0@Z @ 6383 NONAME
 ?GetDrawAspect@COleClientItem@@QEBA?AW4tagDVASPECT@@XZ @ 6384 NONAME
 ?GetDrawAspect@COleConvertDialog@@QEBA?AW4tagDVASPECT@@XZ @ 6385 NONAME
 ?GetDrawAspect@COleInsertDialog@@QEBA?AW4tagDVASPECT@@XZ @ 6386 NONAME
 ?GetDrawAspect@COlePasteSpecialDialog@@QEBA?AW4tagDVASPECT@@XZ @ 6387 NONAME
 ?GetDriverName@CPageSetupDialog@@QEBA?AV?$CStringT@_WV?$StrTraitMFC_DLL@_WV?$ChTraitsCRT@_W@ATL@@@@@ATL@@XZ @ 6388 NONAME
 ?GetDriverName@CPrintDialog@@QEBA?AV?$CStringT@_WV?$StrTraitMFC_DLL@_WV?$ChTraitsCRT@_W@ATL@@@@@ATL@@XZ @ 6389 NONAME
 ?GetDriverName@CPrintDialogEx@@QEBA?AV?$CStringT@_WV?$StrTraitMFC_DLL@_WV?$ChTraitsCRT@_W@ATL@@@@@ATL@@XZ @ 6390 NONAME
 ?GetDropDownImageWidth@CMFCRibbonBaseElement@@MEBAHXZ @ 6391 NONAME
 ?GetDropHilightItem@CTreeCtrl@@QEBAPEAU_TREEITEM@@XZ @ 6392 NONAME
 ?GetDroppedControlRect@CComboBox@@QEBAXPEAUtagRECT@@@Z @ 6393 NONAME
 ?GetDroppedDown@CMFCRibbonBar@@UEAAPEAVCMFCRibbonBaseElement@@XZ @ 6394 NONAME
 ?GetDroppedDown@CMFCRibbonBaseElement@@UEAAPEAV1@XZ @ 6395 NONAME
 ?GetDroppedDown@CMFCRibbonButtonsGroup@@MEAAPEAVCMFCRibbonBaseElement@@XZ @ 6396 NONAME
 ?GetDroppedDown@CMFCRibbonCategory@@QEAAPEAVCMFCRibbonBaseElement@@XZ @ 6397 NONAME
 ?GetDroppedDown@CMFCRibbonGallery@@UEAAPEAVCMFCRibbonBaseElement@@XZ @ 6398 NONAME
 ?GetDroppedDown@CMFCRibbonPanel@@QEBAPEAVCMFCRibbonBaseElement@@XZ @ 6399 NONAME
 ?GetDroppedDown@CMFCRibbonPanelMenuBar@@QEBAPEAVCMFCRibbonButton@@XZ @ 6400 NONAME
 ?GetDroppedDown@CMFCRibbonStatusBar@@MEAAPEAVCMFCRibbonBaseElement@@XZ @ 6401 NONAME
 ?GetDroppedDownMenu@CMFCToolBar@@QEBAPEAVCMFCToolBarMenuButton@@PEAH@Z @ 6402 NONAME
 ?GetDroppedState@CComboBox@@QEBAHXZ @ 6403 NONAME
 ?GetDroppedWidth@CComboBox@@QEBAHXZ @ 6404 NONAME
 ?GetDropTarget@CBrowserControlSite@@MEAAJPEAUIDropTarget@@PEAPEAU2@@Z @ 6405 NONAME
 ?GetDropTarget@CDHtmlDialog@@UEAAJPEAUIDropTarget@@PEAPEAU2@@Z @ 6406 NONAME
 ?GetDropTarget@CReBarCtrl@@QEBAPEAUIDropTarget@@XZ @ 6407 NONAME
 ?GetDropTarget@CToolBarCtrl@@QEBAJPEAPEAUIDropTarget@@@Z @ 6408 NONAME
 ?GetDropTarget@XDocHostUIHandler@CHtmlControlSite@@UEAAJPEAUIDropTarget@@PEAPEAU3@@Z @ 6409 NONAME
 ?GetDropTarget@XOleInPlaceObject@COleControl@@UEAAJPEAPEAUIDropTarget@@@Z @ 6410 NONAME
 ?GetDSCCursor@CWnd@@QEAAPEAUIUnknown@@XZ @ 6411 NONAME
 ?GetEditBorder@CMFCToolBarEditBoxButton@@UEAAXAEAVCRect@@@Z @ 6412 NONAME
 ?GetEditBorder@CMFCToolBarSpinEditBoxButton@@MEAAXAEAVCRect@@@Z @ 6413 NONAME
 ?GetEditBoxText@CFileDialog@@QEAAJKAEAV?$CStringT@_WV?$StrTraitMFC_DLL@_WV?$ChTraitsCRT@_W@ATL@@@@@ATL@@@Z @ 6414 NONAME
 ?GetEditControl@CListCtrl@@QEBAPEAVCEdit@@XZ @ 6415 NONAME
 ?GetEditControl@CTreeCtrl@@QEBAPEAVCEdit@@XZ @ 6416 NONAME
 ?GetEditCtrl@CComboBoxEx@@QEBAPEAVCEdit@@XZ @ 6417 NONAME
 ?GetEditCtrl@CEditView@@QEBAAEAVCEdit@@XZ @ 6418 NONAME
 ?GetEditSel@CComboBox@@QEBAKXZ @ 6419 NONAME
 ?GetElement@CDHtmlDialog@@QEAAJPEB_WPEAPEAUIDispatch@@PEAH@Z @ 6420 NONAME
 ?GetElement@CDHtmlDialog@@QEAAJPEB_WPEAPEAUIHTMLElement@@@Z @ 6421 NONAME
 ?GetElement@CMFCRibbonPanel@@QEBAPEAVCMFCRibbonBaseElement@@H@Z @ 6422 NONAME
 ?GetElement@CMFCRibbonStatusBar@@QEAAPEAVCMFCRibbonBaseElement@@H@Z @ 6423 NONAME
 ?GetElement@COleSafeArray@@QEAAXPEAJPEAX@Z @ 6424 NONAME
 ?GetElementHtml@CDHtmlDialog@@QEAAPEA_WPEB_W@Z @ 6425 NONAME
 ?GetElementImages@CMFCRibbonCollector@@MEAAXAEBVCMFCRibbonBaseElement@@AEAVXImage@CMFCRibbonInfo@@@Z @ 6426 NONAME
 ?GetElementInterface@CDHtmlDialog@@QEAAJPEB_WAEBU_GUID@@PEAPEAX@Z @ 6427 NONAME
 ?GetElementProperty@CDHtmlDialog@@QEAA?AUtagVARIANT@@PEB_WJ@Z @ 6428 NONAME
 ?GetElements@CMFCRibbonButton@@MEAAXAEAV?$CArray@PEAVCMFCRibbonBaseElement@@PEAV1@@@@Z @ 6429 NONAME
 ?GetElements@CMFCRibbonCategory@@QEAAXAEAV?$CArray@PEAVCMFCRibbonBaseElement@@PEAV1@@@@Z @ 6430 NONAME
 ?GetElements@CMFCRibbonPanel@@QEAAXAEAV?$CArray@PEAVCMFCRibbonBaseElement@@PEAV1@@@@Z @ 6431 NONAME
 ?GetElementsByID@CMFCRibbonBar@@QEAAXIAEAV?$CArray@PEAVCMFCRibbonBaseElement@@PEAV1@@@@Z @ 6432 NONAME
 ?GetElementsByID@CMFCRibbonBaseElement@@UEAAXIAEAV?$CArray@PEAVCMFCRibbonBaseElement@@PEAV1@@@@Z @ 6433 NONAME
 ?GetElementsByID@CMFCRibbonButton@@MEAAXIAEAV?$CArray@PEAVCMFCRibbonBaseElement@@PEAV1@@@@Z @ 6434 NONAME
 ?GetElementsByID@CMFCRibbonButtonsGroup@@MEAAXIAEAV?$CArray@PEAVCMFCRibbonBaseElement@@PEAV1@@@@Z @ 6435 NONAME
 ?GetElementsByID@CMFCRibbonCategory@@QEAAXIAEAV?$CArray@PEAVCMFCRibbonBaseElement@@PEAV1@@@@Z @ 6436 NONAME
 ?GetElementsByID@CMFCRibbonPanel@@QEAAXIAEAV?$CArray@PEAVCMFCRibbonBaseElement@@PEAV1@@@@Z @ 6437 NONAME
 ?GetElementText@CDHtmlDialog@@QEAAPEA_WPEB_W@Z @ 6438 NONAME
 ?GetElemSize@COleSafeArray@@QEAAKXZ @ 6439 NONAME
 ?GetEmbeddedItem@COleServerDoc@@QEAAPEAVCOleServerItem@@XZ @ 6440 NONAME
 ?GetEmbeddedItemData@COleClientItem@@IEAAXPEAUtagSTGMEDIUM@@@Z @ 6441 NONAME
 ?GetEmbedSourceData@COleServerItem@@QEAAXPEAUtagSTGMEDIUM@@@Z @ 6442 NONAME
 ?GetEnabled@COleControl@@QEAAHXZ @ 6443 NONAME
 ?GetEndPoint@CD2DLinearGradientBrush@@QEBA?AVCD2DPointF@@XZ @ 6444 NONAME
 ?GetEnhMetaFileW@CStatic@@QEBAPEAUHENHMETAFILE__@@XZ @ 6445 NONAME
 ?GetEntryCount@CCmdTarget@@KAIPEBUAFX_DISPMAP@@@Z @ 6446 NONAME
 ?GetEntryCount@CPalette@@QEAAHXZ @ 6447 NONAME
 ?GetEnumVariant@XAccessibleServer@CWnd@@UEAAJPEAPEAUIEnumVARIANT@@@Z @ 6448 NONAME
 ?GetEnvironmentVariable@?$CStringT@_WV?$StrTraitMFC_DLL@_WV?$ChTraitsCRT@_W@ATL@@@@@ATL@@QEAAHPEB_W@Z @ 6449 NONAME
 ?GetEnvironmentVariable@?$CStringT@DV?$StrTraitMFC_DLL@DV?$ChTraitsCRT@D@ATL@@@@@ATL@@QEAAHPEBD@Z @ 6450 NONAME
 ?GetEnvironmentVariableW@?$CStringT@_WV?$StrTraitMFC_DLL@_WV?$ChTraitsCRT@_W@ATL@@@@@ATL@@QEAAHPEB_W@Z @ 6451 NONAME
 ?GetEnvironmentVariableW@?$CStringT@DV?$StrTraitMFC_DLL@DV?$ChTraitsCRT@D@ATL@@@@@ATL@@QEAAHPEBD@Z @ 6452 NONAME
 ?GetErrorMessage@CArchiveException@@UEBAHPEA_WIPEAI@Z @ 6453 NONAME
 ?GetErrorMessage@CDBException@@UEBAHPEA_WIPEAI@Z @ 6454 NONAME
 ?GetErrorMessage@CException@@UEAAHPEA_WIPEAI@Z @ 6455 NONAME
 ?GetErrorMessage@CException@@UEBAHPEA_WIPEAI@Z @ 6456 NONAME
 ?GetErrorMessage@CFileException@@UEBAHPEA_WIPEAI@Z @ 6457 NONAME
 ?GetErrorMessage@CInternetException@@UEBAHPEA_WIPEAI@Z @ 6458 NONAME
 ?GetErrorMessage@COleDispatchException@@UEBAHPEA_WIPEAI@Z @ 6459 NONAME
 ?GetErrorMessage@COleException@@UEBAHPEA_WIPEAI@Z @ 6460 NONAME
 ?GetErrorMessage@CSimpleException@@UEBAHPEA_WIPEAI@Z @ 6461 NONAME
 ?GetEvent@CDHtmlDialog@@QEAAJPEAPEAUIHTMLEventObj@@@Z @ 6462 NONAME
 ?GetEventIID@COleControlSite@@QEAAHPEAU_GUID@@@Z @ 6463 NONAME
 ?GetEventMap@COleControl@@MEBAPEBUAFX_EVENTMAP@@XZ @ 6464 NONAME
 ?GetEventMapEntry@COleControl@@IEBAPEBUAFX_EVENTMAP_ENTRY@@PEB_WPEAJ@Z @ 6465 NONAME
 ?GetEventMapForUrl@CMultiPageDHtmlDialog@@MEAAPEBUDHtmlEventMapEntry@@PEB_W@Z @ 6466 NONAME
 ?GetEventMask@CRichEditCtrl@@QEBAJXZ @ 6467 NONAME
 ?GetEventSinkEntry@CCmdTarget@@IEAAPEBUAFX_EVENTSINKMAP_ENTRY@@IPEAUAFX_EVENT@@@Z @ 6468 NONAME
 ?GetEventSinkMap@CCmdTarget@@MEBAPEBUAFX_EVENTSINKMAP@@XZ @ 6469 NONAME
 ?GetEventSinkMap@CDHtmlDialog@@MEBAPEBUAFX_EVENTSINKMAP@@XZ @ 6470 NONAME
 ?GetEventSinkMap@CHtmlEditCtrl@@MEBAPEBUAFX_EVENTSINKMAP@@XZ @ 6471 NONAME
 ?GetEventSinkMap@CHtmlView@@MEBAPEBUAFX_EVENTSINKMAP@@XZ @ 6472 NONAME
 ?GetExCount@CMFCRibbonStatusBar@@QEBAHXZ @ 6473 NONAME
 ?GetExElement@CMFCRibbonStatusBar@@QEAAPEAVCMFCRibbonBaseElement@@H@Z @ 6474 NONAME
 ?GetExpandedSubItems@CMFCPropertyGridProperty@@QEBAHH@Z @ 6475 NONAME
 ?GetExStyle@COleControlSite@@UEBAKXZ @ 6476 NONAME
 ?GetExStyle@CWnd@@QEBAKXZ @ 6477 NONAME
 ?GetExtendedArea@CMFCRibbonStatusBar@@UEBAHAEAVCRect@@@Z @ 6478 NONAME
 ?GetExtendedArea@CMFCStatusBar@@UEBAHAEAVCRect@@@Z @ 6479 NONAME
 ?GetExtendedControl@COleControl@@QEAAPEAUIDispatch@@XZ @ 6480 NONAME
 ?GetExtendedControl@XOleControlSite@COleControlSite@@UEAAJPEAPEAUIDispatch@@@Z @ 6481 NONAME
 ?GetExtendedStyle@CComboBoxEx@@QEBAKXZ @ 6482 NONAME
 ?GetExtendedStyle@CListCtrl@@QEBAKXZ @ 6483 NONAME
 ?GetExtendedStyle@CReBarCtrl@@QEBAKXZ @ 6484 NONAME
 ?GetExtendedStyle@CTabCtrl@@QEBAKXZ @ 6485 NONAME
 ?GetExtendedStyle@CToolBarCtrl@@QEBAKXZ @ 6486 NONAME
 ?GetExtendedStyle@CTreeCtrl@@QEBAKXZ @ 6487 NONAME
 ?GetExtendedUI@CComboBox@@QEBAHXZ @ 6488 NONAME
 ?GetExtendModeX@CD2DBitmapBrush@@QEBA?AW4D2D1_EXTEND_MODE@@XZ @ 6489 NONAME
 ?GetExtendModeY@CD2DBitmapBrush@@QEBA?AW4D2D1_EXTEND_MODE@@XZ @ 6490 NONAME
 ?GetExtent@COleClientItem@@QEAAHPEAUtagSIZE@@W4tagDVASPECT@@@Z @ 6491 NONAME
 ?GetExtent@XOleObject@CDocObjectServer@@UEAAJKPEAUtagSIZE@@@Z @ 6492 NONAME
 ?GetExtent@XOleObject@COleControl@@UEAAJKPEAUtagSIZE@@@Z @ 6493 NONAME
 ?GetExtent@XOleObject@COleServerDoc@@UEAAJKPEAUtagSIZE@@@Z @ 6494 NONAME
 ?GetExtent@XOleObject@COleServerItem@@UEAAJKPEAUtagSIZE@@@Z @ 6495 NONAME
 ?GetExtent@XViewObject@COleControl@@UEAAJKJPEAUtagDVTARGETDEVICE@@PEAUtagSIZE@@@Z @ 6496 NONAME
 ?GetExternal@CBrowserControlSite@@MEAAJPEAPEAUIDispatch@@@Z @ 6497 NONAME
 ?GetExternal@CDHtmlDialog@@UEAAJPEAPEAUIDispatch@@@Z @ 6498 NONAME
 ?GetExternal@XDocHostUIHandler@CHtmlControlSite@@UEAAJPEAPEAUIDispatch@@@Z @ 6499 NONAME
 ?GetExtLogPen@CPen@@QEAAHPEAUtagEXTLOGPEN@@@Z @ 6500 NONAME
 ?GetExtraConnectionPoints@CCmdTarget@@MEAAHPEAVCPtrArray@@@Z @ 6501 NONAME
 ?GetExtraConnectionPoints@COleControl@@MEAAHPEAVCPtrArray@@@Z @ 6502 NONAME
 ?GetExtraHeight@CMFCColorBar@@IEBAHH@Z @ 6503 NONAME
 ?GetFaceName@CFontDialog@@QEBA?AV?$CStringT@_WV?$StrTraitMFC_DLL@_WV?$ChTraitsCRT@_W@ATL@@@@@ATL@@XZ @ 6504 NONAME
 ?GetFieldIndexByName@CRecordset@@QEAAFPEB_W@Z @ 6505 NONAME
 ?GetFieldLengthBuffer@CRecordset@@QEAAPEA_JKH@Z @ 6506 NONAME
 ?GetFieldStatus@CRecordset@@QEAAEK@Z @ 6507 NONAME
 ?GetFieldValue@CRecordset@@QEAAXFAEAV?$CStringT@_WV?$StrTraitMFC_DLL@_WV?$ChTraitsCRT@_W@ATL@@@@@ATL@@@Z @ 6508 NONAME
 ?GetFieldValue@CRecordset@@QEAAXFAEAV?$CStringT@DV?$StrTraitMFC_DLL@DV?$ChTraitsCRT@D@ATL@@@@@ATL@@@Z @ 6509 NONAME
 ?GetFieldValue@CRecordset@@QEAAXFAEAVCDBVariant@@F@Z @ 6510 NONAME
 ?GetFieldValue@CRecordset@@QEAAXPEB_WAEAV?$CStringT@_WV?$StrTraitMFC_DLL@_WV?$ChTraitsCRT@_W@ATL@@@@@ATL@@@Z @ 6511 NONAME
 ?GetFieldValue@CRecordset@@QEAAXPEB_WAEAV?$CStringT@DV?$StrTraitMFC_DLL@DV?$ChTraitsCRT@D@ATL@@@@@ATL@@@Z @ 6512 NONAME
 ?GetFieldValue@CRecordset@@QEAAXPEB_WAEAVCDBVariant@@F@Z @ 6513 NONAME
 ?GetFigureCount@CD2DPathGeometry@@QEBAHXZ @ 6514 NONAME
 ?GetFile@CArchive@@QEBAPEAVCFile@@XZ @ 6515 NONAME
 ?GetFile@CDocument@@UEAAPEAVCFile@@PEB_WIPEAVCFileException@@@Z @ 6516 NONAME
 ?GetFile@CFtpConnection@@QEAAHPEB_W0HKK_K@Z @ 6517 NONAME
 ?GetFileData@COleDataObject@@QEAAPEAVCFile@@GPEAUtagFORMATETC@@@Z @ 6518 NONAME
 ?GetFileExt@CFileDialog@@QEBA?AV?$CStringT@_WV?$StrTraitMFC_DLL@_WV?$ChTraitsCRT@_W@ATL@@@@@ATL@@XZ @ 6519 NONAME
 ?GetFileName@CFile@@UEBA?AV?$CStringT@_WV?$StrTraitMFC_DLL@_WV?$ChTraitsCRT@_W@ATL@@@@@ATL@@XZ @ 6520 NONAME
 ?GetFileName@CFileDialog@@QEBA?AV?$CStringT@_WV?$StrTraitMFC_DLL@_WV?$ChTraitsCRT@_W@ATL@@@@@ATL@@XZ @ 6521 NONAME
 ?GetFileName@CFileFind@@UEBA?AV?$CStringT@_WV?$StrTraitMFC_DLL@_WV?$ChTraitsCRT@_W@ATL@@@@@ATL@@XZ @ 6522 NONAME
 ?GetFileName@CGopherFileFind@@UEBA?AV?$CStringT@_WV?$StrTraitMFC_DLL@_WV?$ChTraitsCRT@_W@ATL@@@@@ATL@@XZ @ 6523 NONAME
 ?GetFileName@COleChangeSourceDialog@@QEAA?AV?$CStringT@_WV?$StrTraitMFC_DLL@_WV?$ChTraitsCRT@_W@ATL@@@@@ATL@@XZ @ 6524 NONAME
 ?GetFilePath@CFile@@UEBA?AV?$CStringT@_WV?$StrTraitMFC_DLL@_WV?$ChTraitsCRT@_W@ATL@@@@@ATL@@XZ @ 6525 NONAME
 ?GetFilePath@CFileFind@@UEBA?AV?$CStringT@_WV?$StrTraitMFC_DLL@_WV?$ChTraitsCRT@_W@ATL@@@@@ATL@@XZ @ 6526 NONAME
 ?GetFilePath@CGopherFileFind@@UEBA?AV?$CStringT@_WV?$StrTraitMFC_DLL@_WV?$ChTraitsCRT@_W@ATL@@@@@ATL@@XZ @ 6527 NONAME
 ?GetFileTitle@CFile@@UEBA?AV?$CStringT@_WV?$StrTraitMFC_DLL@_WV?$ChTraitsCRT@_W@ATL@@@@@ATL@@XZ @ 6528 NONAME
 ?GetFileTitle@CFileDialog@@QEBA?AV?$CStringT@_WV?$StrTraitMFC_DLL@_WV?$ChTraitsCRT@_W@ATL@@@@@ATL@@XZ @ 6529 NONAME
 ?GetFileTitle@CFileFind@@UEBA?AV?$CStringT@_WV?$StrTraitMFC_DLL@_WV?$ChTraitsCRT@_W@ATL@@@@@ATL@@XZ @ 6530 NONAME
 ?GetFileTitle@CGopherFileFind@@UEBA?AV?$CStringT@_WV?$StrTraitMFC_DLL@_WV?$ChTraitsCRT@_W@ATL@@@@@ATL@@XZ @ 6531 NONAME
 ?GetFileTypeString@COleServerDoc@@MEAAHAEAV?$CStringT@_WV?$StrTraitMFC_DLL@_WV?$ChTraitsCRT@_W@ATL@@@@@ATL@@@Z @ 6532 NONAME
 ?GetFileURL@CFileFind@@UEBA?AV?$CStringT@_WV?$StrTraitMFC_DLL@_WV?$ChTraitsCRT@_W@ATL@@@@@ATL@@XZ @ 6533 NONAME
 ?GetFileURL@CFtpFileFind@@UEBA?AV?$CStringT@_WV?$StrTraitMFC_DLL@_WV?$ChTraitsCRT@_W@ATL@@@@@ATL@@XZ @ 6534 NONAME
 ?GetFileURL@CGopherFileFind@@UEBA?AV?$CStringT@_WV?$StrTraitMFC_DLL@_WV?$ChTraitsCRT@_W@ATL@@@@@ATL@@XZ @ 6535 NONAME
 ?GetFileURL@CHttpFile@@UEBA?AV?$CStringT@_WV?$StrTraitMFC_DLL@_WV?$ChTraitsCRT@_W@ATL@@@@@ATL@@XZ @ 6536 NONAME
 ?GetFindString@CFindReplaceDialog@@QEBA?AV?$CStringT@_WV?$StrTraitMFC_DLL@_WV?$ChTraitsCRT@_W@ATL@@@@@ATL@@XZ @ 6537 NONAME
 ?GetFirstAHWindow@CMFCAutoHideBar@@QEAAPEAVCDockablePane@@XZ @ 6538 NONAME
 ?GetFirstDayOfWeek@CMonthCalCtrl@@QEBAHPEAH@Z @ 6539 NONAME
 ?GetFirstDocPosition@CMultiDocTemplate@@UEBAPEAU__POSITION@@XZ @ 6540 NONAME
 ?GetFirstDocPosition@CSingleDocTemplate@@UEBAPEAU__POSITION@@XZ @ 6541 NONAME
 ?GetFirstDocTemplatePosition@CDocManager@@UEBAPEAU__POSITION@@XZ @ 6542 NONAME
 ?GetFirstDocTemplatePosition@CWinApp@@QEBAPEAU__POSITION@@XZ @ 6543 NONAME
 ?GetFirstFrame@COleDocument@@QEAAPEAVCFrameWnd@@XZ @ 6544 NONAME
 ?GetFirstPane@CPaneContainerManager@@UEBAPEAVCBasePane@@XZ @ 6545 NONAME
 ?GetFirstPane@CPaneDivider@@QEBAPEBVCBasePane@@XZ @ 6546 NONAME
 ?GetFirstSelectedItemPosition@CListCtrl@@QEBAPEAU__POSITION@@XZ @ 6547 NONAME
 ?GetFirstTabStop@CMFCRibbonButtonsGroup@@MEAAPEAVCMFCRibbonBaseElement@@XZ @ 6548 NONAME
 ?GetFirstTabStop@CMFCRibbonPanel@@IEBAPEAVCMFCRibbonBaseElement@@XZ @ 6549 NONAME
 ?GetFirstTabWnd@CMDIClientAreaWnd@@QEAAPEAVCMFCTabCtrl@@XZ @ 6550 NONAME
 ?GetFirstViewPosition@CDocument@@UEBAPEAU__POSITION@@XZ @ 6551 NONAME
 ?GetFirstVisibleElement@CMFCRibbonCategory@@QEBAPEAVCMFCRibbonBaseElement@@XZ @ 6552 NONAME
 ?GetFirstVisibleItem@CTreeCtrl@@QEBAPEAU_TREEITEM@@XZ @ 6553 NONAME
 ?GetFirstVisibleLine@CEdit@@QEBAHXZ @ 6554 NONAME
 ?GetFirstVisibleLine@CRichEditCtrl@@QEBAHXZ @ 6555 NONAME
 ?GetFirstVisiblePane@CPaneContainerManager@@UEBAPEAVCWnd@@XZ @ 6556 NONAME
 ?GetFirstVisiblePane@CPaneFrameWnd@@UEBAPEAVCWnd@@XZ @ 6557 NONAME
 ?GetFirstVisibleTab@CBaseTabbedPane@@UEAAPEAVCWnd@@AEAH@Z @ 6558 NONAME
 ?GetFirstVisibleTab@CMFCBaseTabCtrl@@UEAAPEAVCWnd@@AEAH@Z @ 6559 NONAME
 ?GetFirstVisibleTab@CMFCBaseTabCtrl@@UEAAPEAVCWnd@@HAEAH@Z @ 6560 NONAME
 ?GetFixedWidth@CMFCToolTipCtrl@@IEAAHXZ @ 6561 NONAME
 ?GetFloatPopupDirection@CMFCMenuBar@@QEAAHPEAVCMFCToolBarMenuButton@@@Z @ 6562 NONAME
 ?GetFocus@COleControl@@QEAAPEAVCWnd@@XZ @ 6563 NONAME
 ?GetFocus@CWnd@@SAPEAV1@XZ @ 6564 NONAME
 ?GetFocus@XOleIPSite@COleControlSite@@UEAAJXZ @ 6565 NONAME
 ?GetFocused@CMFCRibbonBar@@UEAAPEAVCMFCRibbonBaseElement@@XZ @ 6566 NONAME
 ?GetFocused@CMFCRibbonBaseElement@@UEAAPEAV1@XZ @ 6567 NONAME
 ?GetFocused@CMFCRibbonButtonsGroup@@MEAAPEAVCMFCRibbonBaseElement@@XZ @ 6568 NONAME
 ?GetFocused@CMFCRibbonCategory@@QEAAPEAVCMFCRibbonBaseElement@@XZ @ 6569 NONAME
 ?GetFocused@CMFCRibbonPanel@@QEBAPEAVCMFCRibbonBaseElement@@XZ @ 6570 NONAME
 ?GetFocused@CMFCRibbonPanelMenuBar@@QEBAPEAVCMFCRibbonBaseElement@@XZ @ 6571 NONAME
 ?GetFocusedItem@CHeaderCtrl@@QEBAHXZ @ 6572 NONAME
 ?GetFolderPath@CFileDialog@@QEBA?AV?$CStringT@_WV?$StrTraitMFC_DLL@_WV?$ChTraitsCRT@_W@ATL@@@@@ATL@@XZ @ 6573 NONAME
 ?GetFont@CDialogTemplate@@QEBAHAEAV?$CStringT@_WV?$StrTraitMFC_DLL@_WV?$ChTraitsCRT@_W@ATL@@@@@ATL@@AEAG@Z @ 6574 NONAME
 ?GetFont@CDialogTemplate@@SAHPEBUDLGTEMPLATE@@AEAV?$CStringT@_WV?$StrTraitMFC_DLL@_WV?$ChTraitsCRT@_W@ATL@@@@@ATL@@AEAG@Z @ 6575 NONAME
 ?GetFont@COleControl@@QEAAPEAUIFontDisp@@XZ @ 6576 NONAME
 ?GetFont@CWnd@@QEBAPEAVCFont@@XZ @ 6577 NONAME
 ?GetFontData@CDC@@QEBAKKKPEAXK@Z @ 6578 NONAME
 ?GetFontDispatch@CFontHolder@@QEAAPEAUIFontDisp@@XZ @ 6579 NONAME
 ?GetFontFamilyName@CD2DTextFormat@@QEBA?AV?$CStringT@_WV?$StrTraitMFC_DLL@_WV?$ChTraitsCRT@_W@ATL@@@@@ATL@@XZ @ 6580 NONAME
 ?GetFontFamilyName@CD2DTextLayout@@QEBA?AV?$CStringT@_WV?$StrTraitMFC_DLL@_WV?$ChTraitsCRT@_W@ATL@@@@@ATL@@IPEAUDWRITE_TEXT_RANGE@@@Z @ 6581 NONAME
 ?GetFontHandle@CFontHolder@@QEAAPEAUHFONT__@@JJ@Z @ 6582 NONAME
 ?GetFontHandle@CFontHolder@@QEAAPEAUHFONT__@@XZ @ 6583 NONAME
 ?GetFontLanguageInfo@CDC@@QEBAKXZ @ 6584 NONAME
 ?GetFontsCount@CMFCRibbonFontComboBox@@IEAAHPEB_WAEBVCObList@@@Z @ 6585 NONAME
 ?GetFontsCount@CMFCToolBarFontComboBox@@KAHPEB_W@Z @ 6586 NONAME
 ?GetFontSizeField@CDialogTemplate@@KAPEAEPEBUDLGTEMPLATE@@@Z @ 6587 NONAME
 ?GetFontTextMetrics@COleControl@@QEAAXPEAUtagTEXTMETRICW@@AEAVCFontHolder@@@Z @ 6588 NONAME
 ?GetForeColor@COleControl@@QEAAKXZ @ 6589 NONAME
 ?GetForegroundWindow@CWnd@@SAPEAV1@XZ @ 6590 NONAME
 ?GetFormatEtc@CAsyncMonikerFile@@QEBAPEAUtagFORMATETC@@XZ @ 6591 NONAME
 ?GetFormatID@CPropertySection@@QEAA?AU_GUID@@XZ @ 6592 NONAME
 ?GetFormatVersion@CPropertySet@@QEAAGXZ @ 6593 NONAME
 ?GetFrameIcon@CMDIChildWndEx@@UEBAPEAUHICON__@@XZ @ 6594 NONAME
 ?GetFrameText@CMDIChildWndEx@@UEBA?AV?$CStringT@_WV?$StrTraitMFC_DLL@_WV?$ChTraitsCRT@_W@ATL@@@@@ATL@@XZ @ 6595 NONAME
 ?GetFreeCtrlBarID@CFrameImpl@@KAIIIAEBVCObList@@@Z @ 6596 NONAME
 ?GetFreeTearOffID@CMenuTearOffManager@@IEAAIXZ @ 6597 NONAME
 ?GetFromPage@CPrintDialog@@QEBAHXZ @ 6598 NONAME
 ?GetFromPage@CPrintInfo@@QEBAIXZ @ 6599 NONAME
 ?GetFromPrefix@COleChangeSourceDialog@@QEAA?AV?$CStringT@_WV?$StrTraitMFC_DLL@_WV?$ChTraitsCRT@_W@ATL@@@@@ATL@@XZ @ 6600 NONAME
 ?GetFtpConnection@CInternetSession@@QEAAPEAVCFtpConnection@@PEB_W00GH@Z @ 6601 NONAME
 ?GetFullName@CHtmlView@@QEBA?AV?$CStringT@_WV?$StrTraitMFC_DLL@_WV?$ChTraitsCRT@_W@ATL@@@@@ATL@@XZ @ 6602 NONAME
 ?GetFullScreen@CHtmlView@@QEBAHXZ @ 6603 NONAME
 ?GetFuncInfoFromId@CDHtmlControlSink@@QEAAJAEBU_GUID@@JKAEAU_ATL_FUNC_INFO@ATL@@@Z @ 6604 NONAME
 ?GetGalleryRect@CMFCRibbonPanel@@QEAA?AVCRect@@XZ @ 6605 NONAME
 ?GetGestureConfig@CWnd@@QEAAHPEAVCGestureConfig@@@Z @ 6606 NONAME
 ?GetGestureStatus@CWnd@@MEAAKVCPoint@@@Z @ 6607 NONAME
 ?GetGlobalData@COleDataObject@@QEAAPEAXGPEAUtagFORMATETC@@@Z @ 6608 NONAME
 ?GetGlyphOutlineW@CDC@@QEBAKIIPEAU_GLYPHMETRICS@@KPEAXPEBU_MAT2@@@Z @ 6609 NONAME
 ?GetGopherConnection@CInternetSession@@QEAAPEAVCGopherConnection@@PEB_W00G@Z @ 6610 NONAME
 ?GetGradientOriginOffset@CD2DRadialGradientBrush@@QEBA?AVCD2DPointF@@XZ @ 6611 NONAME
 ?GetGraphicsMode@CDC@@QEBAHXZ @ 6612 NONAME
 ?GetGripperRect@CMFCControlBarImpl@@QEAAXAEAVCRect@@H@Z @ 6613 NONAME
 ?GetGroupBounds@CMFCMaskedEdit@@AEAAXAEAH0HH@Z @ 6614 NONAME
 ?GetGroupButtonExtraWidth@CMFCRibbonButton@@IEAAHXZ @ 6615 NONAME
 ?GetGroupFromPane@CDockingPanesRow@@QEAAXPEAVCPane@@AEAVCObList@@@Z @ 6616 NONAME
 ?GetGroupLocation@CMFCTasksPane@@QEBAHPEAVCMFCTasksPaneTaskGroup@@AEAH@Z @ 6617 NONAME
 ?GetGroupName@CMFCRibbonGallery@@QEBAPEB_WH@Z @ 6618 NONAME
 ?GetGUID@XProvideClassInfo@COleControl@@UEAAJKPEAU_GUID@@@Z @ 6619 NONAME
 ?GetGutterWidth@CMFCPopupMenuBar@@QEAAHXZ @ 6620 NONAME
 ?GetHalftoneBrush@CDC@@SAPEAVCBrush@@XZ @ 6621 NONAME
 ?GetHandCursor@AFX_GLOBAL_DATA@@QEAAPEAUHICON__@@XZ @ 6622 NONAME
 ?GetHandle@CEdit@@QEBAPEAXXZ @ 6623 NONAME
 ?GetHandleMask@CRectTracker@@UEBAIXZ @ 6624 NONAME
 ?GetHandleRect@CRectTracker@@IEBAXHPEAVCRect@@@Z @ 6625 NONAME
 ?GetHandleSize@CRectTracker@@MEBAHPEBUtagRECT@@@Z @ 6626 NONAME
 ?GetHashTableSize@CMapPtrToPtr@@QEBAIXZ @ 6627 NONAME
 ?GetHashTableSize@CMapPtrToWord@@QEBAIXZ @ 6628 NONAME
 ?GetHashTableSize@CMapStringToOb@@QEBAIXZ @ 6629 NONAME
 ?GetHashTableSize@CMapStringToPtr@@QEBAIXZ @ 6630 NONAME
 ?GetHashTableSize@CMapStringToString@@QEBAIXZ @ 6631 NONAME
 ?GetHashTableSize@CMapWordToOb@@QEBAIXZ @ 6632 NONAME
 ?GetHashTableSize@CMapWordToPtr@@QEBAIXZ @ 6633 NONAME
 ?GetHead@CObList@@QEAAAEAPEAVCObject@@XZ @ 6634 NONAME
 ?GetHead@CObList@@QEBAPEBVCObject@@XZ @ 6635 NONAME
 ?GetHead@CPtrList@@QEAAAEAPEAXXZ @ 6636 NONAME
 ?GetHead@CPtrList@@QEBAPEBXXZ @ 6637 NONAME
 ?GetHead@CStringList@@QEAAAEAV?$CStringT@_WV?$StrTraitMFC_DLL@_WV?$ChTraitsCRT@_W@ATL@@@@@ATL@@XZ @ 6638 NONAME
 ?GetHead@CStringList@@QEBAAEBV?$CStringT@_WV?$StrTraitMFC_DLL@_WV?$ChTraitsCRT@_W@ATL@@@@@ATL@@XZ @ 6639 NONAME
 ?GetHeaderCtrl@CListCtrl@@QEBAPEAVCHeaderCtrl@@XZ @ 6640 NONAME
 ?GetHeadPosition@CObList@@QEBAPEAU__POSITION@@XZ @ 6641 NONAME
 ?GetHeadPosition@CPtrList@@QEBAPEAU__POSITION@@XZ @ 6642 NONAME
 ?GetHeadPosition@CStringList@@QEBAPEAU__POSITION@@XZ @ 6643 NONAME
 ?GetHeight@CHtmlView@@QEBAJXZ @ 6644 NONAME
 ?GetHeight@CMFCRibbonPanel@@MEBAHPEAVCDC@@@Z @ 6645 NONAME
 ?GetHelpCombobox@CMFCMenuBar@@QEAAPEAVCMFCToolBarComboBoxButton@@XZ @ 6646 NONAME
 ?GetHelpMenu@COleDocObjectItem@@MEAAPEAVCMenu@@AEAI@Z @ 6647 NONAME
 ?GetHelpMode@CWinApp@@QEAA?AW4AFX_HELP_TYPE@@XZ @ 6648 NONAME
 ?GetHierarchyLevel@CMFCPropertyGridProperty@@QEBAHXZ @ 6649 NONAME
 ?GetHighlighted@CMFCRibbonBaseElement@@UEAAPEAV1@XZ @ 6650 NONAME
 ?GetHighlighted@CMFCRibbonButtonsGroup@@MEAAPEAVCMFCRibbonBaseElement@@XZ @ 6651 NONAME
 ?GetHighlighted@CMFCRibbonCategory@@QEAAPEAVCMFCRibbonBaseElement@@XZ @ 6652 NONAME
 ?GetHighlighted@CMFCRibbonGallery@@MEAAPEAVCMFCRibbonBaseElement@@XZ @ 6653 NONAME
 ?GetHighlighted@CMFCRibbonPanel@@QEBAPEAVCMFCRibbonBaseElement@@XZ @ 6654 NONAME
 ?GetHighlightedButton@CMFCToolBar@@QEBAPEAVCMFCToolBarButton@@XZ @ 6655 NONAME
 ?GetHighlightedColor@CMFCColorBar@@QEBAKXZ @ 6656 NONAME
 ?GetHighlightedColor@CMFCRibbonColorButton@@QEBAKXZ @ 6657 NONAME
 ?GetHighlightedMenuItemTextColor@CMFCVisualManager@@UEAAKPEAVCMFCToolBarMenuButton@@@Z @ 6658 NONAME
 ?GetHighlightedMenuItemTextColor@CMFCVisualManagerOffice2007@@UEAAKPEAVCMFCToolBarMenuButton@@@Z @ 6659 NONAME
 ?GetHighlightedMenuItemTextColor@CMFCVisualManagerOfficeXP@@MEAAKPEAVCMFCToolBarMenuButton@@@Z @ 6660 NONAME
 ?GetHighlightedMenuItemTextColor@CMFCVisualManagerWindows@@UEAAKPEAVCMFCToolBarMenuButton@@@Z @ 6661 NONAME
 ?GetHit@CMFCCaptionButton@@QEBAIXZ @ 6662 NONAME
 ?GetHitRect@CSplitterWnd@@MEAAXHAEAVCRect@@@Z @ 6663 NONAME
 ?GetHitTest@CMFCRibbonSlider@@IEBAHVCPoint@@@Z @ 6664 NONAME
 ?GetHLS@CMFCColorPickerCtrl@@QEAAXPEAN00@Z @ 6665 NONAME
 ?GetHorizontalExtent@CComboBox@@QEBAIXZ @ 6666 NONAME
 ?GetHorizontalExtent@CListBox@@QEBAHXZ @ 6667 NONAME
 ?GetHostInfo@CBrowserControlSite@@MEAAJPEAU_DOCHOSTUIINFO@@@Z @ 6668 NONAME
 ?GetHostInfo@CDHtmlDialog@@UEAAJPEAU_DOCHOSTUIINFO@@@Z @ 6669 NONAME
 ?GetHostInfo@XDocHostUIHandler@CHtmlControlSite@@UEAAJPEAU_DOCHOSTUIINFO@@@Z @ 6670 NONAME
 ?GetHotButton@CMFCToolTipCtrl@@IEAAXXZ @ 6671 NONAME
 ?GetHotCursor@CListCtrl@@QEBAPEAUHICON__@@XZ @ 6672 NONAME
 ?GetHotImageList@CToolBarCtrl@@QEBAPEAVCImageList@@XZ @ 6673 NONAME
 ?GetHotItem@CListCtrl@@QEBAHXZ @ 6674 NONAME
 ?GetHotItem@CToolBarCtrl@@QEBAHXZ @ 6675 NONAME
 ?GetHotKey@CHotKeyCtrl@@QEBAKXZ @ 6676 NONAME
 ?GetHotKey@CHotKeyCtrl@@QEBAXAEAG0@Z @ 6677 NONAME
 ?GetHotKeyName@CHotKeyCtrl@@QEBA?AV?$CStringT@_WV?$StrTraitMFC_DLL@_WV?$ChTraitsCRT@_W@ATL@@@@@ATL@@XZ @ 6678 NONAME
 ?GetHotTextColor@CMFCToolBar@@SAKXZ @ 6679 NONAME
 ?GetHoverTime@CListCtrl@@QEBAKXZ @ 6680 NONAME
 ?GetHtmlDocument@CHtmlView@@QEBAPEAUIDispatch@@XZ @ 6681 NONAME
 ?GetHttpConnection@CInternetSession@@QEAAPEAVCHttpConnection@@PEB_WG00@Z @ 6682 NONAME
 ?GetHttpConnection@CInternetSession@@QEAAPEAVCHttpConnection@@PEB_WKG00@Z @ 6683 NONAME
 ?GetHwnd@COleControl@@QEAAIXZ @ 6684 NONAME
 ?GetHWND@XAccessibleServer@CWnd@@UEAAJPEAPEAUHWND__@@@Z @ 6685 NONAME
 ?GetIcon@CButton@@QEBAPEAUHICON__@@XZ @ 6686 NONAME
 ?GetIcon@CStatic@@QEBAPEAUHICON__@@XZ @ 6687 NONAME
 ?GetIcon@CStatusBarCtrl@@QEBAPEAUHICON__@@H@Z @ 6688 NONAME
 ?GetIcon@CWnd@@QEBAPEAUHICON__@@H@Z @ 6689 NONAME
 ?GetIconDescription@CMFCRibbonGallery@@MEBA?AV?$CStringT@_WV?$StrTraitMFC_DLL@_WV?$ChTraitsCRT@_W@ATL@@@@@ATL@@PEBVCMFCRibbonGalleryIcon@@@Z @ 6690 NONAME
 ?GetIconFromRegistry@COleClientItem@@QEBAPEAUHICON__@@XZ @ 6691 NONAME
 ?GetIconFromRegistry@COleClientItem@@SAPEAUHICON__@@AEAU_GUID@@@Z @ 6692 NONAME
 ?GetIconicMetafile@COleChangeIconDialog@@QEBAPEAXXZ @ 6693 NONAME
 ?GetIconicMetafile@COleClientItem@@QEAAPEAXXZ @ 6694 NONAME
 ?GetIconicMetafile@COleConvertDialog@@QEBAPEAXXZ @ 6695 NONAME
 ?GetIconicMetafile@COleInsertDialog@@QEBAPEAXXZ @ 6696 NONAME
 ?GetIconicMetafile@COlePasteSpecialDialog@@QEBAPEAXXZ @ 6697 NONAME
 ?GetIconID@CMFCCaptionButton@@UEBA?AW4IMAGES_IDS@CMenuImages@@HH@Z @ 6698 NONAME
 ?GetIconSize@CMFCRibbonGallery@@MEBA?AVCSize@@XZ @ 6699 NONAME
 ?GetIconSize@CMFCRibbonUndoButton@@MEBA?AVCSize@@XZ @ 6700 NONAME
 ?GetIconSize@CMFCToolTipCtrl@@UEAA?AVCSize@@XZ @ 6701 NONAME
 ?GetIconToolTip@CMFCRibbonColorButton@@MEBA?AV?$CStringT@_WV?$StrTraitMFC_DLL@_WV?$ChTraitsCRT@_W@ATL@@@@@ATL@@PEBVCMFCRibbonGalleryIcon@@@Z @ 6702 NONAME
 ?GetIconToolTip@CMFCRibbonGallery@@MEBA?AV?$CStringT@_WV?$StrTraitMFC_DLL@_WV?$ChTraitsCRT@_W@ATL@@@@@ATL@@PEBVCMFCRibbonGalleryIcon@@@Z @ 6703 NONAME
 ?GetIconWndClass@CFrameWnd@@IEAAPEB_WKI@Z @ 6704 NONAME
 ?GetID@CMFCRibbonCollector@@MEAAXAEBVCMFCRibbonBaseElement@@AEAVXID@CMFCRibbonInfo@@@Z @ 6705 NONAME
 ?GetID@CProperty@@QEAAKXZ @ 6706 NONAME
 ?GetID@CPropertySection@@QEAAHPEB_WPEAK@Z @ 6707 NONAME
 ?GetIDataObject@COleDataObject@@QEAAPEAUIDataObject@@H@Z @ 6708 NONAME
 ?GetIdealSize@CDateTimeCtrl@@QEBAHPEAUtagSIZE@@@Z @ 6709 NONAME
 ?GetIDispatch@CCmdTarget@@QEAAPEAUIDispatch@@H@Z @ 6710 NONAME
 ?GetIDsOfNames@CDHtmlControlSink@@UEAAJAEBU_GUID@@PEAPEA_WIKPEAJ@Z @ 6711 NONAME
 ?GetIDsOfNames@CDHtmlElementEventSink@@UEAAJAEBU_GUID@@PEAPEA_WIKPEAJ@Z @ 6712 NONAME
 ?GetIDsOfNames@CDHtmlEventSink@@UEAAJAEBU_GUID@@PEAPEA_WIKPEAJ@Z @ 6713 NONAME
 ?GetIDsOfNames@COleDispatchImpl@@UEAAJAEBU_GUID@@PEAPEA_WIKPEAJ@Z @ 6714 NONAME
 ?GetIDsOfNames@XAccessible@CMFCBaseAccessibleObject@@UEAAJAEBU_GUID@@PEAPEA_WIKPEAJ@Z @ 6715 NONAME
 ?GetIDsOfNames@XAccessible@CWnd@@UEAAJAEBU_GUID@@PEAPEA_WIKPEAJ@Z @ 6716 NONAME
 ?GetIDsOfNames@XAmbientProps@COleControlSite@@UEAAJAEBU_GUID@@PEAPEA_WIKPEAJ@Z @ 6717 NONAME
 ?GetIDsOfNames@XEventSink@COleControlSite@@UEAAJAEBU_GUID@@PEAPEA_WIKPEAJ@Z @ 6718 NONAME
 ?GetIFileDialogCustomize@CFileDialog@@QEAAPEAUIFileDialogCustomize@@XZ @ 6719 NONAME
 ?GetIFileOpenDialog@CFileDialog@@QEAAPEAUIFileOpenDialog@@XZ @ 6720 NONAME
 ?GetIFileSaveDialog@CFileDialog@@QEAAPEAUIFileSaveDialog@@XZ @ 6721 NONAME
 ?GetIID@XEventConnPt@COleControl@@UEAAAEBU_GUID@@XZ @ 6722 NONAME
 ?GetImageCount@CImageList@@QEBAHXZ @ 6723 NONAME
 ?GetImageHorzMargin@CMFCButton@@MEBAHXZ @ 6724 NONAME
 ?GetImageInfo@CImageList@@QEBAHHPEAU_IMAGEINFO@@@Z @ 6725 NONAME
 ?GetImageList@CComboBoxEx@@QEBAPEAVCImageList@@XZ @ 6726 NONAME
 ?GetImageList@CHeaderCtrl@@QEBAPEAVCImageList@@H@Z @ 6727 NONAME
 ?GetImageList@CListCtrl@@QEBAPEAVCImageList@@H@Z @ 6728 NONAME
 ?GetImageList@CMFCToolBar@@IEBAPEAVCMFCToolBarImages@@AEAV2@000@Z @ 6729 NONAME
 ?GetImageList@CReBarCtrl@@QEBAPEAVCImageList@@XZ @ 6730 NONAME
 ?GetImageList@CTabCtrl@@QEBAPEAVCImageList@@XZ @ 6731 NONAME
 ?GetImageList@CToolBarCtrl@@QEBAPEAVCImageList@@XZ @ 6732 NONAME
 ?GetImageList@CTreeCtrl@@QEBAPEAVCImageList@@H@Z @ 6733 NONAME
 ?GetImageRect@CMFCToolBarMenuButton@@QEAAXAEAVCRect@@@Z @ 6734 NONAME
 ?GetImageSize@CMFCCaptionBar@@IEBA?AVCSize@@XZ @ 6735 NONAME
 ?GetImageSize@CMFCRibbonButton@@UEBA?AVCSize@@W4RibbonImageType@CMFCRibbonBaseElement@@@Z @ 6736 NONAME
 ?GetImageSize@CMFCRibbonButtonsGroup@@QEBA?BVCSize@@XZ @ 6737 NONAME
 ?GetImageSize@CMFCRibbonCategory@@QEBA?AVCSize@@H@Z @ 6738 NONAME
 ?GetIndent@CTreeCtrl@@QEBAIXZ @ 6739 NONAME
 ?GetIndex@CMFCRibbonPanel@@UEBAHPEAVCMFCRibbonBaseElement@@@Z @ 6740 NONAME
 ?GetInPlaceActiveItem@CFrameWndEx@@MEAAPEAVCOleClientItem@@XZ @ 6741 NONAME
 ?GetInPlaceActiveItem@CMDIFrameWndEx@@MEAAPEAVCOleClientItem@@XZ @ 6742 NONAME
 ?GetInPlaceActiveItem@COleDocument@@UEAAPEAVCOleClientItem@@PEAVCWnd@@@Z @ 6743 NONAME
 ?GetInPlaceActiveItem@CRichEditDoc@@UEAAPEAVCOleClientItem@@PEAVCWnd@@@Z @ 6744 NONAME
 ?GetInPlaceActiveItem@CRichEditView@@QEBAPEAVCRichEditCntrItem@@XZ @ 6745 NONAME
 ?GetInPlaceContext@XRichEditOleCallback@CRichEditView@@UEAAJPEAPEAUIOleInPlaceFrame@@PEAPEAUIOleInPlaceUIWindow@@PEAUtagOIFI@@@Z @ 6746 NONAME
 ?GetInPlaceDocFrame@COleIPFrameWnd@@QEAAJPEAPEAUIOleInPlaceUIWindow@@@Z @ 6747 NONAME
 ?GetInPlaceFrame@COleIPFrameWnd@@QEAAJPEAPEAUIOleInPlaceUIWindow@@@Z @ 6748 NONAME
 ?GetInPlaceMenu@COleIPFrameWnd@@MEAAPEAUHMENU__@@XZ @ 6749 NONAME
 ?GetInPlaceSite@XOleDocumentView@CDocObjectServer@@UEAAJPEAPEAUIOleInPlaceSite@@@Z @ 6750 NONAME
 ?GetInPlaceWindow@COleClientItem@@QEAAPEAVCWnd@@XZ @ 6751 NONAME
 ?GetInsertMark@CToolBarCtrl@@QEBAXPEAUTBINSERTMARK@@@Z @ 6752 NONAME
 ?GetInsertMarkColor@CToolBarCtrl@@QEBAKXZ @ 6753 NONAME
 ?GetInsertMarkColor@CTreeCtrl@@QEBAKXZ @ 6754 NONAME
 ?GetInsideRect@CSplitterWnd@@MEBAXAEAVCRect@@@Z @ 6755 NONAME
 ?GetInt@CWinAppEx@@QEAAHPEB_WH@Z @ 6756 NONAME
 ?GetInterface@CCmdTarget@@QEAAPEAUIUnknown@@PEBX@Z @ 6757 NONAME
 ?GetInterfaceHook@CBrowserControlSite@@MEAAPEAUIUnknown@@PEBX@Z @ 6758 NONAME
 ?GetInterfaceHook@CCmdTarget@@UEAAPEAUIUnknown@@PEBX@Z @ 6759 NONAME
 ?GetInterfaceHook@COleControl@@MEAAPEAUIUnknown@@PEBX@Z @ 6760 NONAME
 ?GetInterfaceHook@COleServerDoc@@MEAAPEAUIUnknown@@PEBX@Z @ 6761 NONAME
 ?GetInterfaceMap@CCmdTarget@@MEBAPEBUAFX_INTERFACEMAP@@XZ @ 6762 NONAME
 ?GetInterfaceMap@CDocObjectServer@@MEBAPEBUAFX_INTERFACEMAP@@XZ @ 6763 NONAME
 ?GetInterfaceMap@CDocument@@MEBAPEBUAFX_INTERFACEMAP@@XZ @ 6764 NONAME
 ?GetInterfaceMap@CEnumConnections@@MEBAPEBUAFX_INTERFACEMAP@@XZ @ 6765 NONAME
 ?GetInterfaceMap@CEnumConnPoints@@MEBAPEBUAFX_INTERFACEMAP@@XZ @ 6766 NONAME
 ?GetInterfaceMap@CEnumFormatEtc@@MEBAPEBUAFX_INTERFACEMAP@@XZ @ 6767 NONAME
 ?GetInterfaceMap@CEnumOleVerb@@MEBAPEBUAFX_INTERFACEMAP@@XZ @ 6768 NONAME
 ?GetInterfaceMap@CEnumUnknown@@MEBAPEBUAFX_INTERFACEMAP@@XZ @ 6769 NONAME
 ?GetInterfaceMap@CFileDialog@@MEBAPEBUAFX_INTERFACEMAP@@XZ @ 6770 NONAME
 ?GetInterfaceMap@CHtmlControlSite@@MEBAPEBUAFX_INTERFACEMAP@@XZ @ 6771 NONAME
 ?GetInterfaceMap@CMFCBaseAccessibleObject@@MEBAPEBUAFX_INTERFACEMAP@@XZ @ 6772 NONAME
 ?GetInterfaceMap@COleClientItem@@MEBAPEBUAFX_INTERFACEMAP@@XZ @ 6773 NONAME
 ?GetInterfaceMap@COleControl@@MEBAPEBUAFX_INTERFACEMAP@@XZ @ 6774 NONAME
 ?GetInterfaceMap@COleControlContainer@@MEBAPEBUAFX_INTERFACEMAP@@XZ @ 6775 NONAME
 ?GetInterfaceMap@COleControlSite@@MEBAPEBUAFX_INTERFACEMAP@@XZ @ 6776 NONAME
 ?GetInterfaceMap@COleDataSource@@MEBAPEBUAFX_INTERFACEMAP@@XZ @ 6777 NONAME
 ?GetInterfaceMap@COleDocObjectItem@@MEBAPEBUAFX_INTERFACEMAP@@XZ @ 6778 NONAME
 ?GetInterfaceMap@COleDropSource@@MEBAPEBUAFX_INTERFACEMAP@@XZ @ 6779 NONAME
 ?GetInterfaceMap@COleDropTarget@@MEBAPEBUAFX_INTERFACEMAP@@XZ @ 6780 NONAME
 ?GetInterfaceMap@COleFrameHook@@MEBAPEBUAFX_INTERFACEMAP@@XZ @ 6781 NONAME
 ?GetInterfaceMap@COleLinkingDoc@@MEBAPEBUAFX_INTERFACEMAP@@XZ @ 6782 NONAME
 ?GetInterfaceMap@COleMessageFilter@@MEBAPEBUAFX_INTERFACEMAP@@XZ @ 6783 NONAME
 ?GetInterfaceMap@COleObjectFactory@@MEBAPEBUAFX_INTERFACEMAP@@XZ @ 6784 NONAME
 ?GetInterfaceMap@COlePropertyPage@@MEBAPEBUAFX_INTERFACEMAP@@XZ @ 6785 NONAME
 ?GetInterfaceMap@COleServerDoc@@MEBAPEBUAFX_INTERFACEMAP@@XZ @ 6786 NONAME
 ?GetInterfaceMap@COleServerItem@@MEBAPEBUAFX_INTERFACEMAP@@XZ @ 6787 NONAME
 ?GetInterfaceMap@CRichEditView@@MEBAPEBUAFX_INTERFACEMAP@@XZ @ 6788 NONAME
 ?GetInterfaceMap@CWnd@@MEBAPEBUAFX_INTERFACEMAP@@XZ @ 6789 NONAME
 ?GetIntermediateSize@CMFCRibbonButton@@UEAA?AVCSize@@PEAVCDC@@@Z @ 6790 NONAME
 ?GetIntermediateSize@CMFCRibbonCheckBox@@UEAA?AVCSize@@PEAVCDC@@@Z @ 6791 NONAME
 ?GetIntermediateSize@CMFCRibbonComboBox@@UEAA?AVCSize@@PEAVCDC@@@Z @ 6792 NONAME
 ?GetIntermediateSize@CMFCRibbonEdit@@UEAA?AVCSize@@PEAVCDC@@@Z @ 6793 NONAME
 ?GetIntermediateSize@CMFCRibbonLabel@@MEAA?AVCSize@@PEAVCDC@@@Z @ 6794 NONAME
 ?GetIntermediateSize@CMFCRibbonStatusBarPane@@MEAA?AVCSize@@PEAVCDC@@@Z @ 6795 NONAME
 ?GetInterpolationMode@CD2DBitmapBrush@@QEBA?AW4D2D1_BITMAP_INTERPOLATION_MODE@@XZ @ 6796 NONAME
 ?GetInvalidateItemRect@CMFCToolBar@@UEBAXHPEAUtagRECT@@@Z @ 6797 NONAME
 ?GetInvalidateRect@CMFCToolBarEditBoxButton@@UEBA?BVCRect@@XZ @ 6798 NONAME
 ?GetIRichEditOle@CRichEditCtrl@@QEBAPEAUIRichEditOle@@XZ @ 6799 NONAME
 ?GetITaskbarList@AFX_GLOBAL_DATA@@QEAAPEAUITaskbarList@@XZ @ 6800 NONAME
 ?GetITaskbarList@CWinApp@@QEAAPEAUITaskbarList@@XZ @ 6801 NONAME
 ?GetITaskbarList3@AFX_GLOBAL_DATA@@QEAAPEAUITaskbarList3@@XZ @ 6802 NONAME
 ?GetITaskbarList3@CWinApp@@QEAAPEAUITaskbarList3@@XZ @ 6803 NONAME
 ?GetItem@CComboBoxEx@@QEAAHPEAUtagCOMBOBOXEXITEMW@@@Z @ 6804 NONAME
 ?GetItem@CHeaderCtrl@@QEBAHHPEAU_HD_ITEMW@@@Z @ 6805 NONAME
 ?GetItem@CListCtrl@@QEBAHPEAUtagLVITEMW@@@Z @ 6806 NONAME
 ?GetItem@CMFCDropDownListBox@@IEBAPEAVCMFCToolBarButton@@H@Z @ 6807 NONAME
 ?GetItem@CMFCRibbonComboBox@@QEBAPEB_WH@Z @ 6808 NONAME
 ?GetItem@CMFCToolBarComboBoxButton@@QEBAPEB_WH@Z @ 6809 NONAME
 ?GetItem@CTabCtrl@@QEBAHHPEAUtagTCITEMW@@@Z @ 6810 NONAME
 ?GetItem@CTreeCtrl@@QEBAHPEAUtagTVITEMW@@@Z @ 6811 NONAME
 ?GetItemAll@CMFCToolBarComboBoxButton@@SAPEB_WIH@Z @ 6812 NONAME
 ?GetItemClipRect@COleServerDoc@@QEBAXPEAUtagRECT@@@Z @ 6813 NONAME
 ?GetItemCount@CHeaderCtrl@@QEBAHXZ @ 6814 NONAME
 ?GetItemCount@CListCtrl@@QEBAHXZ @ 6815 NONAME
 ?GetItemCount@CShellManager@@QEAAIPEFBU_ITEMIDLIST@@@Z @ 6816 NONAME
 ?GetItemCount@CTabCtrl@@QEBAHXZ @ 6817 NONAME
 ?GetItemData@CComboBox@@QEBA_KH@Z @ 6818 NONAME
 ?GetItemData@CListBox@@QEBA_KH@Z @ 6819 NONAME
 ?GetItemData@CListCtrl@@QEBA_KH@Z @ 6820 NONAME
 ?GetItemData@CMFCRibbonComboBox@@QEBA_KH@Z @ 6821 NONAME
 ?GetItemData@CMFCToolBarComboBoxButton@@QEBA_KH@Z @ 6822 NONAME
 ?GetItemData@CTreeCtrl@@QEBA_KPEAU_TREEITEM@@@Z @ 6823 NONAME
 ?GetItemData@CVSListBox@@UEBA_KH@Z @ 6824 NONAME
 ?GetItemDataAll@CMFCToolBarComboBoxButton@@SA_KIH@Z @ 6825 NONAME
 ?GetItemDataPtr@CComboBox@@QEBAPEAXH@Z @ 6826 NONAME
 ?GetItemDataPtr@CListBox@@QEBAPEAXH@Z @ 6827 NONAME
 ?GetItemDataPtrAll@CMFCToolBarComboBoxButton@@SAPEAXIH@Z @ 6828 NONAME
 ?GetItemDropDownRect@CHeaderCtrl@@QEBAHHPEAUtagRECT@@@Z @ 6829 NONAME
 ?GetItemExpandedImageIndex@CTreeCtrl@@QEBAHPEAU_TREEITEM@@@Z @ 6830 NONAME
 ?GetItemHeight@CComboBox@@QEBAHH@Z @ 6831 NONAME
 ?GetItemHeight@CListBox@@QEBAHH@Z @ 6832 NONAME
 ?GetItemHeight@CTreeCtrl@@QEBAFXZ @ 6833 NONAME
 ?GetItemID@CMFCStatusBar@@QEBAIH@Z @ 6834 NONAME
 ?GetItemID@CMFCToolBar@@QEBAIH@Z @ 6835 NONAME
 ?GetItemID@CStatusBar@@QEBAIH@Z @ 6836 NONAME
 ?GetItemID@CToolBar@@QEBAIH@Z @ 6837 NONAME
 ?GetItemIDsList@CMFCRibbonBar@@QEBAXAEAV?$CList@II@@H@Z @ 6838 NONAME
 ?GetItemIDsList@CMFCRibbonBaseElement@@MEBAXAEAV?$CList@II@@@Z @ 6839 NONAME
 ?GetItemIDsList@CMFCRibbonButtonsGroup@@MEBAXAEAV?$CList@II@@@Z @ 6840 NONAME
 ?GetItemIDsList@CMFCRibbonCategory@@QEBAXAEAV?$CList@II@@H@Z @ 6841 NONAME
 ?GetItemIDsList@CMFCRibbonPanel@@QEBAXAEAV?$CList@II@@@Z @ 6842 NONAME
 ?GetItemImage@CTreeCtrl@@QEBAHPEAU_TREEITEM@@AEAH1@Z @ 6843 NONAME
 ?GetItemName@COleChangeSourceDialog@@QEAA?AV?$CStringT@_WV?$StrTraitMFC_DLL@_WV?$ChTraitsCRT@_W@ATL@@@@@ATL@@XZ @ 6844 NONAME
 ?GetItemName@COleClientItem@@QEBAXPEA_W@Z @ 6845 NONAME
 ?GetItemName@COleClientItem@@QEBAXPEA_WI@Z @ 6846 NONAME
 ?GetItemName@COleServerItem@@QEBAAEBV?$CStringT@_WV?$StrTraitMFC_DLL@_WV?$ChTraitsCRT@_W@ATL@@@@@ATL@@XZ @ 6847 NONAME
 ?GetItemPartRect@CTreeCtrl@@QEAAHPEAU_TREEITEM@@W4_TVITEMPART@@PEAUtagRECT@@@Z @ 6848 NONAME
 ?GetItemPath@CMFCShellListCtrl@@QEBAHAEAV?$CStringT@_WV?$StrTraitMFC_DLL@_WV?$ChTraitsCRT@_W@ATL@@@@@ATL@@H@Z @ 6849 NONAME
 ?GetItemPath@CMFCShellTreeCtrl@@QEBAHAEAV?$CStringT@_WV?$StrTraitMFC_DLL@_WV?$ChTraitsCRT@_W@ATL@@@@@ATL@@PEAU_TREEITEM@@@Z @ 6850 NONAME
 ?GetItemPosition@CListCtrl@@QEBAHHPEAUtagPOINT@@@Z @ 6851 NONAME
 ?GetItemPosition@COleServerDoc@@QEBAXPEAUtagRECT@@@Z @ 6852 NONAME
 ?GetItemRect@CHeaderCtrl@@QEBAHHPEAUtagRECT@@@Z @ 6853 NONAME
 ?GetItemRect@CListBox@@QEBAHHPEAUtagRECT@@@Z @ 6854 NONAME
 ?GetItemRect@CListCtrl@@QEBAHHPEAUtagRECT@@I@Z @ 6855 NONAME
 ?GetItemRect@CMFCStatusBar@@QEBAXHPEAUtagRECT@@@Z @ 6856 NONAME
 ?GetItemRect@CMFCToolBar@@UEBAXHPEAUtagRECT@@@Z @ 6857 NONAME
 ?GetItemRect@CStatusBar@@QEBAXHPEAUtagRECT@@@Z @ 6858 NONAME
 ?GetItemRect@CTabCtrl@@QEBAHHPEAUtagRECT@@@Z @ 6859 NONAME
 ?GetItemRect@CToolBar@@UEBAXHPEAUtagRECT@@@Z @ 6860 NONAME
 ?GetItemRect@CToolBarCtrl@@QEBAHHPEAUtagRECT@@@Z @ 6861 NONAME
 ?GetItemRect@CTreeCtrl@@QEBAHPEAU_TREEITEM@@PEAUtagRECT@@H@Z @ 6862 NONAME
 ?GetItemSize@CShellManager@@QEAAIPEFBU_ITEMIDLIST@@@Z @ 6863 NONAME
 ?GetItemSpacing@CListCtrl@@QEBAHHPEAH0@Z @ 6864 NONAME
 ?GetItemState@CListCtrl@@QEBAIHI@Z @ 6865 NONAME
 ?GetItemState@COleClientItem@@QEBAIXZ @ 6866 NONAME
 ?GetItemState@CTabCtrl@@QEBAKHK@Z @ 6867 NONAME
 ?GetItemState@CTreeCtrl@@QEBAIPEAU_TREEITEM@@I@Z @ 6868 NONAME
 ?GetItemStateEx@CTreeCtrl@@QEBAIPEAU_TREEITEM@@@Z @ 6869 NONAME
 ?GetItemStorage@COleClientItem@@UEAAXXZ @ 6870 NONAME
 ?GetItemStorageCompound@COleClientItem@@QEAAXXZ @ 6871 NONAME
 ?GetItemStorageFlat@COleClientItem@@QEAAXXZ @ 6872 NONAME
 ?GetItemText@CListCtrl@@QEBA?AV?$CStringT@_WV?$StrTraitMFC_DLL@_WV?$ChTraitsCRT@_W@ATL@@@@@ATL@@HH@Z @ 6873 NONAME
 ?GetItemText@CListCtrl@@QEBAHHHPEA_WH@Z @ 6874 NONAME
 ?GetItemText@CTreeCtrl@@QEBA?AV?$CStringT@_WV?$StrTraitMFC_DLL@_WV?$ChTraitsCRT@_W@ATL@@@@@ATL@@PEAU_TREEITEM@@@Z @ 6875 NONAME
 ?GetItemText@CVSListBox@@UEBA?AV?$CStringT@_WV?$StrTraitMFC_DLL@_WV?$ChTraitsCRT@_W@ATL@@@@@ATL@@H@Z @ 6876 NONAME
 ?GetItemToolTip@CMFCRibbonGallery@@QEBAPEB_WH@Z @ 6877 NONAME
 ?GetKerningPairsW@CDC@@QEBAHHPEAUtagKERNINGPAIR@@@Z @ 6878 NONAME
 ?GetKeyboardManager@CWinAppEx@@QEAAPEAVCKeyboardManager@@XZ @ 6879 NONAME
 ?GetKeyframeStoryboardStart@CAnimationController@@SAPEAVCBaseKeyFrame@@XZ @ 6880 NONAME
 ?GetKeyName@CHotKeyCtrl@@SA?AV?$CStringT@_WV?$StrTraitMFC_DLL@_WV?$ChTraitsCRT@_W@ATL@@@@@ATL@@IH@Z @ 6881 NONAME
 ?GetKeyTipRect@CMFCRibbonButton@@MEAA?AVCRect@@PEAVCDC@@H@Z @ 6882 NONAME
 ?GetKeyTipRect@CMFCRibbonGallery@@MEAA?AVCRect@@PEAVCDC@@H@Z @ 6883 NONAME
 ?GetKeyTipRect@CMFCRibbonLaunchButton@@UEAA?AVCRect@@PEAVCDC@@H@Z @ 6884 NONAME
 ?GetKeyTipRect@CMFCRibbonTab@@UEAA?AVCRect@@PEAVCDC@@H@Z @ 6885 NONAME
 ?GetKeyTipSize@CMFCRibbonBaseElement@@UEAA?AVCSize@@PEAVCDC@@@Z @ 6886 NONAME
 ?GetLastAccessTime@CFileFind@@UEBAHAEAVCTime@ATL@@@Z @ 6887 NONAME
 ?GetLastAccessTime@CFileFind@@UEBAHPEAU_FILETIME@@@Z @ 6888 NONAME
 ?GetLastAccessTime@CGopherFileFind@@UEBAHAEAVCTime@ATL@@@Z @ 6889 NONAME
 ?GetLastAccessTime@CGopherFileFind@@UEBAHPEAU_FILETIME@@@Z @ 6890 NONAME
 ?GetLastActivePopup@CWnd@@QEBAPEAV1@XZ @ 6891 NONAME
 ?GetLastError@CAsyncSocket@@SAHXZ @ 6892 NONAME
 ?GetLastError@COleDialog@@QEBAIXZ @ 6893 NONAME
 ?GetLastSelectedItem@CMFCRibbonGallery@@SAHI@Z @ 6894 NONAME
 ?GetLastStatus@COleClientItem@@QEBAJXZ @ 6895 NONAME
 ?GetLastTabStop@CMFCRibbonButtonsGroup@@MEAAPEAVCMFCRibbonBaseElement@@XZ @ 6896 NONAME
 ?GetLastTabStop@CMFCRibbonPanel@@IEBAPEAVCMFCRibbonBaseElement@@XZ @ 6897 NONAME
 ?GetLastUpdate@COleUILinkInfo@@UEAAJKPEAU_FILETIME@@@Z @ 6898 NONAME
 ?GetLastVisibleElement@CMFCRibbonCategory@@QEBAPEAVCMFCRibbonBaseElement@@XZ @ 6899 NONAME
 ?GetLastVisibleItem@CTreeCtrl@@QEBAPEAU_TREEITEM@@XZ @ 6900 NONAME
 ?GetLastVisibleTab@CMFCBaseTabCtrl@@UEAAPEAVCWnd@@AEAH@Z @ 6901 NONAME
 ?GetLastWriteTime@CFileFind@@UEBAHAEAVCTime@ATL@@@Z @ 6902 NONAME
 ?GetLastWriteTime@CFileFind@@UEBAHPEAU_FILETIME@@@Z @ 6903 NONAME
 ?GetLastWriteTime@CGopherFileFind@@UEBAHAEAVCTime@ATL@@@Z @ 6904 NONAME
 ?GetLastWriteTime@CGopherFileFind@@UEBAHPEAU_FILETIME@@@Z @ 6905 NONAME
 ?GetLayout@CDC@@QEBAKXZ @ 6906 NONAME
 ?GetLBFetchSize@CRecordset@@MEAA_J_J@Z @ 6907 NONAME
 ?GetLBound@COleSafeArray@@QEAAXKPEAJ@Z @ 6908 NONAME
 ?GetLBReallocSize@CRecordset@@MEAA_J_J@Z @ 6909 NONAME
 ?GetLBText@CComboBox@@QEBAHHPEA_W@Z @ 6910 NONAME
 ?GetLBText@CComboBox@@QEBAXHAEAV?$CStringT@_WV?$StrTraitMFC_DLL@_WV?$ChTraitsCRT@_W@ATL@@@@@ATL@@@Z @ 6911 NONAME
 ?GetLBTextLen@CComboBox@@QEBAHH@Z @ 6912 NONAME
 ?GetLeft@CHtmlView@@QEBAJXZ @ 6913 NONAME
 ?GetLength@?$CSimpleStringT@_W$00@ATL@@QEBAHXZ @ 6914 NONAME
 ?GetLength@?$CSimpleStringT@D$00@ATL@@QEBAHXZ @ 6915 NONAME
 ?GetLength@CFile@@UEBA_KXZ @ 6916 NONAME
 ?GetLength@CFileFind@@QEBA_KXZ @ 6917 NONAME
 ?GetLength@CGopherFileFind@@UEBA_KXZ @ 6918 NONAME
 ?GetLength@CInternetFile@@UEBA_KXZ @ 6919 NONAME
 ?GetLength@CMemFile@@UEBA_KXZ @ 6920 NONAME
 ?GetLength@COleStreamFile@@UEBA_KXZ @ 6921 NONAME
 ?GetLength@CSocketFile@@UEBA_KXZ @ 6922 NONAME
 ?GetLength@CStdioFile@@UEBA_KXZ @ 6923 NONAME
 ?GetLicenseKey@COleObjectFactory@@MEAAHKPEAPEA_W@Z @ 6924 NONAME
 ?GetLicInfo@XClassFactory@COleObjectFactory@@UEAAJPEAUtagLICINFO@@@Z @ 6925 NONAME
 ?GetLimitText@CEdit@@QEBAIXZ @ 6926 NONAME
 ?GetLimitText@CRichEditCtrl@@QEBAJXZ @ 6927 NONAME
 ?GetLine@CEdit@@QEBAHHPEA_W@Z @ 6928 NONAME
 ?GetLine@CEdit@@QEBAHHPEA_WH@Z @ 6929 NONAME
 ?GetLine@CRichEditCtrl@@QEBAHHPEA_W@Z @ 6930 NONAME
 ?GetLine@CRichEditCtrl@@QEBAHHPEA_WH@Z @ 6931 NONAME
 ?GetLineColor@CTreeCtrl@@QEBAKXZ @ 6932 NONAME
 ?GetLineCount@CEdit@@QEBAHXZ @ 6933 NONAME
 ?GetLineCount@CRichEditCtrl@@QEBAHXZ @ 6934 NONAME
 ?GetLineSize@CSliderCtrl@@QEBAHXZ @ 6935 NONAME
 ?GetLinkItem@COleUILinkInfo@@AEAAPEAVCOleClientItem@@K@Z @ 6936 NONAME
 ?GetLinkSource@COleUILinkInfo@@UEAAJKPEAPEA_WPEAK00PEAH2@Z @ 6937 NONAME
 ?GetLinkSourceData@COleClientItem@@IEAAHPEAUtagSTGMEDIUM@@@Z @ 6938 NONAME
 ?GetLinkSourceData@COleServerItem@@QEAAHPEAUtagSTGMEDIUM@@@Z @ 6939 NONAME
 ?GetLinkUpdateOptions@COleClientItem@@QEAA?AW4tagOLEUPDATE@@XZ @ 6940 NONAME
 ?GetLinkUpdateOptions@COleUILinkInfo@@UEAAJKPEAK@Z @ 6941 NONAME
 ?GetList@CPropertySection@@QEAAPEAVCPtrList@@XZ @ 6942 NONAME
 ?GetList@CPropertySet@@QEAAPEAVCPtrList@@XZ @ 6943 NONAME
 ?GetListCtrl@CListView@@QEBAAEAVCListCtrl@@XZ @ 6944 NONAME
 ?GetLocale@CComboBox@@QEBAKXZ @ 6945 NONAME
 ?GetLocale@CListBox@@QEBAKXZ @ 6946 NONAME
 ?GetLocaleName@CD2DTextFormat@@QEBA?AV?$CStringT@_WV?$StrTraitMFC_DLL@_WV?$ChTraitsCRT@_W@ATL@@@@@ATL@@XZ @ 6947 NONAME
 ?GetLocaleName@CD2DTextLayout@@QEBA?AV?$CStringT@_WV?$StrTraitMFC_DLL@_WV?$ChTraitsCRT@_W@ATL@@@@@ATL@@IPEAUDWRITE_TEXT_RANGE@@@Z @ 6948 NONAME
 ?GetLocationName@CHtmlView@@QEBA?AV?$CStringT@_WV?$StrTraitMFC_DLL@_WV?$ChTraitsCRT@_W@ATL@@@@@ATL@@XZ @ 6949 NONAME
 ?GetLocationURL@CHtmlView@@QEBA?AV?$CStringT@_WV?$StrTraitMFC_DLL@_WV?$ChTraitsCRT@_W@ATL@@@@@ATL@@XZ @ 6950 NONAME
 ?GetLocator@CGopherFileFind@@QEBA?AVCGopherLocator@@XZ @ 6951 NONAME
 ?GetLocatorType@CGopherLocator@@QEBAHAEAK@Z @ 6952 NONAME
 ?GetLogBrush@CBrush@@QEAAHPEAUtagLOGBRUSH@@@Z @ 6953 NONAME
 ?GetLogFont@CFont@@QEAAHPEAUtagLOGFONTW@@@Z @ 6954 NONAME
 ?GetLogPen@CPen@@QEAAHPEAUtagLOGPEN@@@Z @ 6955 NONAME
 ?GetLongBinaryData@CFieldExchange@@QEAAXHAEAVCLongBinary@@PEA_J@Z @ 6956 NONAME
 ?GetLongBinaryDataAndCleanup@CRecordset@@SAXPEAVCDatabase@@PEAXF_JPEAPEAX2AEAVCDBVariant@@F@Z @ 6957 NONAME
 ?GetLongBinarySize@CFieldExchange@@QEAA_JH@Z @ 6958 NONAME
 ?GetLongCharDataAndCleanup@CRecordset@@SAXPEAVCDatabase@@PEAXF_JPEAPEAX2AEAV?$CStringT@_WV?$StrTraitMFC_DLL@_WV?$ChTraitsCRT@_W@ATL@@@@@ATL@@FF@Z @ 6959 NONAME
 ?GetLongCharDataAndCleanup@CRecordset@@SAXPEAVCDatabase@@PEAXF_JPEAPEAX2AEAV?$CStringT@DV?$StrTraitMFC_DLL@DV?$ChTraitsCRT@D@ATL@@@@@ATL@@FF@Z @ 6960 NONAME
 ?GetMainFrame@COleIPFrameWnd@@QEAAPEAVCFrameWnd@@XZ @ 6961 NONAME
 ?GetMainWnd@CWinThread@@UEAAPEAVCWnd@@XZ @ 6962 NONAME
 ?GetManager@?$CSimpleStringT@_W$00@ATL@@QEBAPEAUIAtlStringMgr@2@XZ @ 6963 NONAME
 ?GetManager@?$CSimpleStringT@D$00@ATL@@QEBAPEAUIAtlStringMgr@2@XZ @ 6964 NONAME
 ?GetManager@?$CStringT@_WV?$StrTraitMFC_DLL@_WV?$ChTraitsCRT@_W@ATL@@@@@ATL@@QEBAPEAUIAtlStringMgr@2@XZ @ 6965 NONAME
 ?GetManager@?$CStringT@DV?$StrTraitMFC_DLL@DV?$ChTraitsCRT@D@ATL@@@@@ATL@@QEBAPEAUIAtlStringMgr@2@XZ @ 6966 NONAME
 ?GetMapMode@CDC@@QEBAHXZ @ 6967 NONAME
 ?GetMargin@CToolTipCtrl@@QEBAXPEAUtagRECT@@@Z @ 6968 NONAME
 ?GetMargins@CEdit@@QEBAKXZ @ 6969 NONAME
 ?GetMargins@CPageSetupDialog@@QEBAXPEAUtagRECT@@0@Z @ 6970 NONAME
 ?GetMargins@CRichEditView@@QEBA?AVCRect@@XZ @ 6971 NONAME
 ?GetMask@CMFCToolBarImages@@QEAAPEAUHBITMAP__@@H@Z @ 6972 NONAME
 ?GetMaskedValue@CMFCMaskedEdit@@IEBA?BV?$CStringT@_WV?$StrTraitMFC_DLL@_WV?$ChTraitsCRT@_W@ATL@@@@@ATL@@H@Z @ 6973 NONAME
 ?GetMaxConnections@CConnectionPoint@@UEAAHXZ @ 6974 NONAME
 ?GetMaxHeight@CMFCRibbonCategory@@QEAAHPEAVCDC@@@Z @ 6975 NONAME
 ?GetMaximumBitmapSize@CRenderTarget@@QEBAIXZ @ 6976 NONAME
 ?GetMaxPage@CPrintInfo@@QEBAIXZ @ 6977 NONAME
 ?GetMaxPaneSize@CDockingPanesRow@@QEBAHH@Z @ 6978 NONAME
 ?GetMaxSelCount@CMonthCalCtrl@@QEBAHXZ @ 6979 NONAME
 ?GetMaxSize@CToolBarCtrl@@QEBAHPEAUtagSIZE@@@Z @ 6980 NONAME
 ?GetMaxSlots@CJumpList@@QEBAIXZ @ 6981 NONAME
 ?GetMaxTextRows@CToolBarCtrl@@QEBAHXZ @ 6982 NONAME
 ?GetMaxTipWidth@CToolTipCtrl@@QEBAHXZ @ 6983 NONAME
 ?GetMaxTodayWidth@CMonthCalCtrl@@QEBAKXZ @ 6984 NONAME
 ?GetMaxWindowSize@CMFCBaseTabCtrl@@UEBA?AVCSize@@XZ @ 6985 NONAME
 ?GetMDIFrame@CMDIChildWnd@@QEAAPEAVCMDIFrameWnd@@XZ @ 6986 NONAME
 ?GetMDITabsContextMenuAllowedItems@CMDIClientAreaWnd@@QEAAKXZ @ 6987 NONAME
 ?GetMenu@CFrameWnd@@UEBAPEAVCMenu@@XZ @ 6988 NONAME
 ?GetMenu@CWnd@@UEBAPEAVCMenu@@XZ @ 6989 NONAME
 ?GetMenuBar@CHtmlView@@QEBAHXZ @ 6990 NONAME
 ?GetMenuBarInfo@CFrameWnd@@QEBAHJJPEAUtagMENUBARINFO@@@Z @ 6991 NONAME
 ?GetMenuBarState@CFrameWnd@@UEBAKXZ @ 6992 NONAME
 ?GetMenuBarVisibility@CFrameWnd@@UEBAKXZ @ 6993 NONAME
 ?GetMenuButtonSize@CMFCToolBar@@SA?AVCSize@@XZ @ 6994 NONAME
 ?GetMenuById@CContextMenuManager@@QEBAPEAUHMENU__@@I@Z @ 6995 NONAME
 ?GetMenuByName@CContextMenuManager@@QEBAPEAUHMENU__@@PEB_WPEAI@Z @ 6996 NONAME
 ?GetMenuContextHelpId@CMenu@@QEBAKXZ @ 6997 NONAME
 ?GetMenuElements@CMFCRibbonMainPanel@@IEBAHXZ @ 6998 NONAME
 ?GetMenuFont@CMFCMenuBar@@SAAEBVCFont@@H@Z @ 6999 NONAME
 ?GetMenuImageSize@CMFCToolBar@@SA?AVCSize@@XZ @ 7000 NONAME
 ?GetMenuItem@CMFCMenuBar@@QEBAPEAVCMFCToolBarButton@@H@Z @ 7001 NONAME
 ?GetMenuItem@CMFCPopupMenu@@QEBAPEAVCMFCToolBarMenuButton@@H@Z @ 7002 NONAME
 ?GetMenuItemCount@CMenu@@QEBAHXZ @ 7003 NONAME
 ?GetMenuItemCount@CMFCPopupMenu@@QEBAHXZ @ 7004 NONAME
 ?GetMenuItemID@CMenu@@QEBAIH@Z @ 7005 NONAME
 ?GetMenuItemInfoW@CMenu@@QEAAHIPEAUtagMENUITEMINFOW@@H@Z @ 7006 NONAME
 ?GetMenuItems@CMFCRibbonGallery@@IEAAXAEAV?$CArray@PEAVCMFCRibbonBaseElement@@PEAV1@@@@Z @ 7007 NONAME
 ?GetMenuItemTextColor@CMFCVisualManager@@UEAAKPEAVCMFCToolBarMenuButton@@HH@Z @ 7008 NONAME
 ?GetMenuItemTextColor@CMFCVisualManagerOffice2007@@UEAAKPEAVCMFCToolBarMenuButton@@HH@Z @ 7009 NONAME
 ?GetMenuNames@CContextMenuManager@@QEBAXAEAVCStringList@@@Z @ 7010 NONAME
 ?GetMenuRowHeight@CMFCRibbonGallery@@IEBAHXZ @ 7011 NONAME
 ?GetMenuState@CMenu@@QEBAIII@Z @ 7012 NONAME
 ?GetMenuStringW@CMenu@@QEBAHIAEAV?$CStringT@_WV?$StrTraitMFC_DLL@_WV?$ChTraitsCRT@_W@ATL@@@@@ATL@@I@Z @ 7013 NONAME
 ?GetMenuStringW@CMenu@@QEBAHIPEA_WHI@Z @ 7014 NONAME
 ?GetMessageBar@CFrameWnd@@UEAAPEAVCWnd@@XZ @ 7015 NONAME
 ?GetMessageBar@CMDIChildWnd@@MEAAPEAVCWnd@@XZ @ 7016 NONAME
 ?GetMessageMap@CAutoHideDockSite@@MEBAPEBUAFX_MSGMAP@@XZ @ 7017 NONAME
 ?GetMessageMap@CBasePane@@MEBAPEBUAFX_MSGMAP@@XZ @ 7018 NONAME
 ?GetMessageMap@CBaseTabbedPane@@MEBAPEBUAFX_MSGMAP@@XZ @ 7019 NONAME
 ?GetMessageMap@CCheckListBox@@MEBAPEBUAFX_MSGMAP@@XZ @ 7020 NONAME
 ?GetMessageMap@CCmdTarget@@MEBAPEBUAFX_MSGMAP@@XZ @ 7021 NONAME
 ?GetMessageMap@CCommonDialog@@MEBAPEBUAFX_MSGMAP@@XZ @ 7022 NONAME
 ?GetMessageMap@CControlBar@@MEBAPEBUAFX_MSGMAP@@XZ @ 7023 NONAME
 ?GetMessageMap@CControlFrameWnd@@MEBAPEBUAFX_MSGMAP@@XZ @ 7024 NONAME
 ?GetMessageMap@CCtrlView@@MEBAPEBUAFX_MSGMAP@@XZ @ 7025 NONAME
 ?GetMessageMap@CDHtmlDialog@@MEBAPEBUAFX_MSGMAP@@XZ @ 7026 NONAME
 ?GetMessageMap@CDialog@@MEBAPEBUAFX_MSGMAP@@XZ @ 7027 NONAME
 ?GetMessageMap@CDialogBar@@MEBAPEBUAFX_MSGMAP@@XZ @ 7028 NONAME
 ?GetMessageMap@CDialogEx@@MEBAPEBUAFX_MSGMAP@@XZ @ 7029 NONAME
 ?GetMessageMap@CDockablePane@@MEBAPEBUAFX_MSGMAP@@XZ @ 7030 NONAME
 ?GetMessageMap@CDockablePaneAdapter@@MEBAPEBUAFX_MSGMAP@@XZ @ 7031 NONAME
 ?GetMessageMap@CDockBar@@MEBAPEBUAFX_MSGMAP@@XZ @ 7032 NONAME
 ?GetMessageMap@CDockSite@@MEBAPEBUAFX_MSGMAP@@XZ @ 7033 NONAME
 ?GetMessageMap@CDocObjectServer@@MEBAPEBUAFX_MSGMAP@@XZ @ 7034 NONAME
 ?GetMessageMap@CDocument@@MEBAPEBUAFX_MSGMAP@@XZ @ 7035 NONAME
 ?GetMessageMap@CDummyDockablePane@@MEBAPEBUAFX_MSGMAP@@XZ @ 7036 NONAME
 ?GetMessageMap@CEditView@@MEBAPEBUAFX_MSGMAP@@XZ @ 7037 NONAME
 ?GetMessageMap@CFormView@@MEBAPEBUAFX_MSGMAP@@XZ @ 7038 NONAME
 ?GetMessageMap@CFrameWnd@@MEBAPEBUAFX_MSGMAP@@XZ @ 7039 NONAME
 ?GetMessageMap@CFrameWndEx@@MEBAPEBUAFX_MSGMAP@@XZ @ 7040 NONAME
 ?GetMessageMap@CHtmlEditView@@MEBAPEBUAFX_MSGMAP@@XZ @ 7041 NONAME
 ?GetMessageMap@CHtmlView@@MEBAPEBUAFX_MSGMAP@@XZ @ 7042 NONAME
 ?GetMessageMap@CListCtrl@@MEBAPEBUAFX_MSGMAP@@XZ @ 7043 NONAME
 ?GetMessageMap@CListView@@MEBAPEBUAFX_MSGMAP@@XZ @ 7044 NONAME
 ?GetMessageMap@CMDIChildWnd@@MEBAPEBUAFX_MSGMAP@@XZ @ 7045 NONAME
 ?GetMessageMap@CMDIChildWndEx@@MEBAPEBUAFX_MSGMAP@@XZ @ 7046 NONAME
 ?GetMessageMap@CMDIClientAreaWnd@@MEBAPEBUAFX_MSGMAP@@XZ @ 7047 NONAME
 ?GetMessageMap@CMDIFrameWnd@@MEBAPEBUAFX_MSGMAP@@XZ @ 7048 NONAME
 ?GetMessageMap@CMDIFrameWndEx@@MEBAPEBUAFX_MSGMAP@@XZ @ 7049 NONAME
 ?GetMessageMap@CMDITabProxyWnd@@MEBAPEBUAFX_MSGMAP@@XZ @ 7050 NONAME
 ?GetMessageMap@CMFCAcceleratorKeyAssignCtrl@@MEBAPEBUAFX_MSGMAP@@XZ @ 7051 NONAME
 ?GetMessageMap@CMFCAutoHideBar@@MEBAPEBUAFX_MSGMAP@@XZ @ 7052 NONAME
 ?GetMessageMap@CMFCBaseTabCtrl@@MEBAPEBUAFX_MSGMAP@@XZ @ 7053 NONAME
 ?GetMessageMap@CMFCBaseToolBar@@MEBAPEBUAFX_MSGMAP@@XZ @ 7054 NONAME
 ?GetMessageMap@CMFCButton@@MEBAPEBUAFX_MSGMAP@@XZ @ 7055 NONAME
 ?GetMessageMap@CMFCCaptionBar@@MEBAPEBUAFX_MSGMAP@@XZ @ 7056 NONAME
 ?GetMessageMap@CMFCColorBar@@MEBAPEBUAFX_MSGMAP@@XZ @ 7057 NONAME
 ?GetMessageMap@CMFCColorButton@@MEBAPEBUAFX_MSGMAP@@XZ @ 7058 NONAME
 ?GetMessageMap@CMFCColorDialog@@MEBAPEBUAFX_MSGMAP@@XZ @ 7059 NONAME
 ?GetMessageMap@CMFCColorPickerCtrl@@MEBAPEBUAFX_MSGMAP@@XZ @ 7060 NONAME
 ?GetMessageMap@CMFCColorPopupMenu@@MEBAPEBUAFX_MSGMAP@@XZ @ 7061 NONAME
 ?GetMessageMap@CMFCColorPropertySheet@@MEBAPEBUAFX_MSGMAP@@XZ @ 7062 NONAME
 ?GetMessageMap@CMFCCustomColorsPropertyPage@@MEBAPEBUAFX_MSGMAP@@XZ @ 7063 NONAME
 ?GetMessageMap@CMFCDesktopAlertDialog@@MEBAPEBUAFX_MSGMAP@@XZ @ 7064 NONAME
 ?GetMessageMap@CMFCDesktopAlertWnd@@MEBAPEBUAFX_MSGMAP@@XZ @ 7065 NONAME
 ?GetMessageMap@CMFCDropDownFrame@@MEBAPEBUAFX_MSGMAP@@XZ @ 7066 NONAME
 ?GetMessageMap@CMFCDropDownListBox@@MEBAPEBUAFX_MSGMAP@@XZ @ 7067 NONAME
 ?GetMessageMap@CMFCDropDownToolBar@@MEBAPEBUAFX_MSGMAP@@XZ @ 7068 NONAME
 ?GetMessageMap@CMFCEditBrowseCtrl@@MEBAPEBUAFX_MSGMAP@@XZ @ 7069 NONAME
 ?GetMessageMap@CMFCFontComboBox@@MEBAPEBUAFX_MSGMAP@@XZ @ 7070 NONAME
 ?GetMessageMap@CMFCHeaderCtrl@@MEBAPEBUAFX_MSGMAP@@XZ @ 7071 NONAME
 ?GetMessageMap@CMFCImageEditorDialog@@MEBAPEBUAFX_MSGMAP@@XZ @ 7072 NONAME
 ?GetMessageMap@CMFCImagePaintArea@@MEBAPEBUAFX_MSGMAP@@XZ @ 7073 NONAME
 ?GetMessageMap@CMFCKeyMapDialog@@MEBAPEBUAFX_MSGMAP@@XZ @ 7074 NONAME
 ?GetMessageMap@CMFCLinkCtrl@@MEBAPEBUAFX_MSGMAP@@XZ @ 7075 NONAME
 ?GetMessageMap@CMFCListCtrl@@MEBAPEBUAFX_MSGMAP@@XZ @ 7076 NONAME
 ?GetMessageMap@CMFCMaskedEdit@@MEBAPEBUAFX_MSGMAP@@XZ @ 7077 NONAME
 ?GetMessageMap@CMFCMenuBar@@MEBAPEBUAFX_MSGMAP@@XZ @ 7078 NONAME
 ?GetMessageMap@CMFCMenuButton@@MEBAPEBUAFX_MSGMAP@@XZ @ 7079 NONAME
 ?GetMessageMap@CMFCMousePropertyPage@@MEBAPEBUAFX_MSGMAP@@XZ @ 7080 NONAME
 ?GetMessageMap@CMFCOutlookBar@@MEBAPEBUAFX_MSGMAP@@XZ @ 7081 NONAME
 ?GetMessageMap@CMFCOutlookBarPane@@MEBAPEBUAFX_MSGMAP@@XZ @ 7082 NONAME
 ?GetMessageMap@CMFCOutlookBarPaneAdapter@@MEBAPEBUAFX_MSGMAP@@XZ @ 7083 NONAME
 ?GetMessageMap@CMFCOutlookBarTabCtrl@@MEBAPEBUAFX_MSGMAP@@XZ @ 7084 NONAME
 ?GetMessageMap@CMFCOutlookBarToolBar@@MEBAPEBUAFX_MSGMAP@@XZ @ 7085 NONAME
 ?GetMessageMap@CMFCPopupMenu@@MEBAPEBUAFX_MSGMAP@@XZ @ 7086 NONAME
 ?GetMessageMap@CMFCPopupMenuBar@@MEBAPEBUAFX_MSGMAP@@XZ @ 7087 NONAME
 ?GetMessageMap@CMFCPreviewCtrlImpl@@MEBAPEBUAFX_MSGMAP@@XZ @ 7088 NONAME
 ?GetMessageMap@CMFCPrintPreviewToolBar@@MEBAPEBUAFX_MSGMAP@@XZ @ 7089 NONAME
 ?GetMessageMap@CMFCPropertyGridCtrl@@MEBAPEBUAFX_MSGMAP@@XZ @ 7090 NONAME
 ?GetMessageMap@CMFCPropertyGridToolTipCtrl@@MEBAPEBUAFX_MSGMAP@@XZ @ 7091 NONAME
 ?GetMessageMap@CMFCPropertyPage@@MEBAPEBUAFX_MSGMAP@@XZ @ 7092 NONAME
 ?GetMessageMap@CMFCPropertySheet@@MEBAPEBUAFX_MSGMAP@@XZ @ 7093 NONAME
 ?GetMessageMap@CMFCPropertySheetListBox@@MEBAPEBUAFX_MSGMAP@@XZ @ 7094 NONAME
 ?GetMessageMap@CMFCReBar@@MEBAPEBUAFX_MSGMAP@@XZ @ 7095 NONAME
 ?GetMessageMap@CMFCRibbonBar@@MEBAPEBUAFX_MSGMAP@@XZ @ 7096 NONAME
 ?GetMessageMap@CMFCRibbonCommandsListBox@@MEBAPEBUAFX_MSGMAP@@XZ @ 7097 NONAME
 ?GetMessageMap@CMFCRibbonCustomizePropertyPage@@MEBAPEBUAFX_MSGMAP@@XZ @ 7098 NONAME
 ?GetMessageMap@CMFCRibbonKeyboardCustomizeDialog@@MEBAPEBUAFX_MSGMAP@@XZ @ 7099 NONAME
 ?GetMessageMap@CMFCRibbonKeyTip@@MEBAPEBUAFX_MSGMAP@@XZ @ 7100 NONAME
 ?GetMessageMap@CMFCRibbonMiniToolBar@@MEBAPEBUAFX_MSGMAP@@XZ @ 7101 NONAME
 ?GetMessageMap@CMFCRibbonPanelMenu@@MEBAPEBUAFX_MSGMAP@@XZ @ 7102 NONAME
 ?GetMessageMap@CMFCRibbonPanelMenuBar@@MEBAPEBUAFX_MSGMAP@@XZ @ 7103 NONAME
 ?GetMessageMap@CMFCRibbonRichEditCtrl@@MEBAPEBUAFX_MSGMAP@@XZ @ 7104 NONAME
 ?GetMessageMap@CMFCRibbonSpinButtonCtrl@@MEBAPEBUAFX_MSGMAP@@XZ @ 7105 NONAME
 ?GetMessageMap@CMFCRibbonStatusBar@@MEBAPEBUAFX_MSGMAP@@XZ @ 7106 NONAME
 ?GetMessageMap@CMFCShadowWnd@@MEBAPEBUAFX_MSGMAP@@XZ @ 7107 NONAME
 ?GetMessageMap@CMFCShellListCtrl@@MEBAPEBUAFX_MSGMAP@@XZ @ 7108 NONAME
 ?GetMessageMap@CMFCShellTreeCtrl@@MEBAPEBUAFX_MSGMAP@@XZ @ 7109 NONAME
 ?GetMessageMap@CMFCSpinButtonCtrl@@MEBAPEBUAFX_MSGMAP@@XZ @ 7110 NONAME
 ?GetMessageMap@CMFCStandardColorsPropertyPage@@MEBAPEBUAFX_MSGMAP@@XZ @ 7111 NONAME
 ?GetMessageMap@CMFCStatusBar@@MEBAPEBUAFX_MSGMAP@@XZ @ 7112 NONAME
 ?GetMessageMap@CMFCTabCtrl@@MEBAPEBUAFX_MSGMAP@@XZ @ 7113 NONAME
 ?GetMessageMap@CMFCTasksPane@@MEBAPEBUAFX_MSGMAP@@XZ @ 7114 NONAME
 ?GetMessageMap@CMFCTasksPaneFrameWnd@@MEBAPEBUAFX_MSGMAP@@XZ @ 7115 NONAME
 ?GetMessageMap@CMFCTasksPaneToolBar@@MEBAPEBUAFX_MSGMAP@@XZ @ 7116 NONAME
 ?GetMessageMap@CMFCToolBar@@MEBAPEBUAFX_MSGMAP@@XZ @ 7117 NONAME
 ?GetMessageMap@CMFCToolBarButtonCustomizeDialog@@MEBAPEBUAFX_MSGMAP@@XZ @ 7118 NONAME
 ?GetMessageMap@CMFCToolBarButtonsListButton@@MEBAPEBUAFX_MSGMAP@@XZ @ 7119 NONAME
 ?GetMessageMap@CMFCToolBarComboBoxEdit@@MEBAPEBUAFX_MSGMAP@@XZ @ 7120 NONAME
 ?GetMessageMap@CMFCToolBarDateTimeCtrlImpl@@MEBAPEBUAFX_MSGMAP@@XZ @ 7121 NONAME
 ?GetMessageMap@CMFCToolBarDropSource@@MEBAPEBUAFX_MSGMAP@@XZ @ 7122 NONAME
 ?GetMessageMap@CMFCToolBarDropTarget@@MEBAPEBUAFX_MSGMAP@@XZ @ 7123 NONAME
 ?GetMessageMap@CMFCToolBarEditCtrl@@MEBAPEBUAFX_MSGMAP@@XZ @ 7124 NONAME
 ?GetMessageMap@CMFCToolBarNameDialog@@MEBAPEBUAFX_MSGMAP@@XZ @ 7125 NONAME
 ?GetMessageMap@CMFCToolBarsCommandsListBox@@MEBAPEBUAFX_MSGMAP@@XZ @ 7126 NONAME
 ?GetMessageMap@CMFCToolBarsCommandsPropertyPage@@MEBAPEBUAFX_MSGMAP@@XZ @ 7127 NONAME
 ?GetMessageMap@CMFCToolBarsCustomizeDialog@@MEBAPEBUAFX_MSGMAP@@XZ @ 7128 NONAME
 ?GetMessageMap@CMFCToolBarsKeyboardPropertyPage@@MEBAPEBUAFX_MSGMAP@@XZ @ 7129 NONAME
 ?GetMessageMap@CMFCToolBarsListCheckBox@@MEBAPEBUAFX_MSGMAP@@XZ @ 7130 NONAME
 ?GetMessageMap@CMFCToolBarsListPropertyPage@@MEBAPEBUAFX_MSGMAP@@XZ @ 7131 NONAME
 ?GetMessageMap@CMFCToolBarsMenuPropertyPage@@MEBAPEBUAFX_MSGMAP@@XZ @ 7132 NONAME
 ?GetMessageMap@CMFCToolBarsOptionsPropertyPage@@MEBAPEBUAFX_MSGMAP@@XZ @ 7133 NONAME
 ?GetMessageMap@CMFCToolBarsToolsPropertyPage@@MEBAPEBUAFX_MSGMAP@@XZ @ 7134 NONAME
 ?GetMessageMap@CMFCToolTipCtrl@@MEBAPEBUAFX_MSGMAP@@XZ @ 7135 NONAME
 ?GetMessageMap@CMFCWindowsManagerDialog@@MEBAPEBUAFX_MSGMAP@@XZ @ 7136 NONAME
 ?GetMessageMap@CMiniDockFrameWnd@@MEBAPEBUAFX_MSGMAP@@XZ @ 7137 NONAME
 ?GetMessageMap@CMiniFrameWnd@@MEBAPEBUAFX_MSGMAP@@XZ @ 7138 NONAME
 ?GetMessageMap@CMultiPaneFrameWnd@@MEBAPEBUAFX_MSGMAP@@XZ @ 7139 NONAME
 ?GetMessageMap@COleCntrFrameWndEx@@MEBAPEBUAFX_MSGMAP@@XZ @ 7140 NONAME
 ?GetMessageMap@COleControl@@MEBAPEBUAFX_MSGMAP@@XZ @ 7141 NONAME
 ?GetMessageMap@COleDBRecordView@@MEBAPEBUAFX_MSGMAP@@XZ @ 7142 NONAME
 ?GetMessageMap@COleDocIPFrameWnd@@MEBAPEBUAFX_MSGMAP@@XZ @ 7143 NONAME
 ?GetMessageMap@COleDocIPFrameWndEx@@MEBAPEBUAFX_MSGMAP@@XZ @ 7144 NONAME
 ?GetMessageMap@COleIPFrameWnd@@MEBAPEBUAFX_MSGMAP@@XZ @ 7145 NONAME
 ?GetMessageMap@COleIPFrameWndEx@@MEBAPEBUAFX_MSGMAP@@XZ @ 7146 NONAME
 ?GetMessageMap@COlePropertyPage@@MEBAPEBUAFX_MSGMAP@@XZ @ 7147 NONAME
 ?GetMessageMap@COleResizeBar@@MEBAPEBUAFX_MSGMAP@@XZ @ 7148 NONAME
 ?GetMessageMap@COleServerDoc@@MEBAPEBUAFX_MSGMAP@@XZ @ 7149 NONAME
 ?GetMessageMap@COleServerDocEx@@MEBAPEBUAFX_MSGMAP@@XZ @ 7150 NONAME
 ?GetMessageMap@COutlookOptionsDlg@@MEBAPEBUAFX_MSGMAP@@XZ @ 7151 NONAME
 ?GetMessageMap@CPane@@MEBAPEBUAFX_MSGMAP@@XZ @ 7152 NONAME
 ?GetMessageMap@CPaneDialog@@MEBAPEBUAFX_MSGMAP@@XZ @ 7153 NONAME
 ?GetMessageMap@CPaneDivider@@MEBAPEBUAFX_MSGMAP@@XZ @ 7154 NONAME
 ?GetMessageMap@CPaneFrameWnd@@MEBAPEBUAFX_MSGMAP@@XZ @ 7155 NONAME
 ?GetMessageMap@CPreviewView@@MEBAPEBUAFX_MSGMAP@@XZ @ 7156 NONAME
 ?GetMessageMap@CPreviewViewEx@@MEBAPEBUAFX_MSGMAP@@XZ @ 7157 NONAME
 ?GetMessageMap@CPrintDialog@@MEBAPEBUAFX_MSGMAP@@XZ @ 7158 NONAME
 ?GetMessageMap@CPrintDialogEx@@MEBAPEBUAFX_MSGMAP@@XZ @ 7159 NONAME
 ?GetMessageMap@CPropertyPage@@MEBAPEBUAFX_MSGMAP@@XZ @ 7160 NONAME
 ?GetMessageMap@CPropertySheet@@MEBAPEBUAFX_MSGMAP@@XZ @ 7161 NONAME
 ?GetMessageMap@CReBar@@MEBAPEBUAFX_MSGMAP@@XZ @ 7162 NONAME
 ?GetMessageMap@CRecordView@@MEBAPEBUAFX_MSGMAP@@XZ @ 7163 NONAME
 ?GetMessageMap@CRichEditView@@MEBAPEBUAFX_MSGMAP@@XZ @ 7164 NONAME
 ?GetMessageMap@CScreenWnd@@MEBAPEBUAFX_MSGMAP@@XZ @ 7165 NONAME
 ?GetMessageMap@CScrollView@@MEBAPEBUAFX_MSGMAP@@XZ @ 7166 NONAME
 ?GetMessageMap@CSmartDockingGroupGuidesWnd@@MEBAPEBUAFX_MSGMAP@@XZ @ 7167 NONAME
 ?GetMessageMap@CSmartDockingHighlighterWnd@@MEBAPEBUAFX_MSGMAP@@XZ @ 7168 NONAME
 ?GetMessageMap@CSmartDockingStandaloneGuideWnd@@MEBAPEBUAFX_MSGMAP@@XZ @ 7169 NONAME
 ?GetMessageMap@CSocketWnd@@MEBAPEBUAFX_MSGMAP@@XZ @ 7170 NONAME
 ?GetMessageMap@CSplitButton@@MEBAPEBUAFX_MSGMAP@@XZ @ 7171 NONAME
 ?GetMessageMap@CSplitterWnd@@MEBAPEBUAFX_MSGMAP@@XZ @ 7172 NONAME
 ?GetMessageMap@CSplitterWndEx@@MEBAPEBUAFX_MSGMAP@@XZ @ 7173 NONAME
 ?GetMessageMap@CStatusBar@@MEBAPEBUAFX_MSGMAP@@XZ @ 7174 NONAME
 ?GetMessageMap@CTabbedPane@@MEBAPEBUAFX_MSGMAP@@XZ @ 7175 NONAME
 ?GetMessageMap@CTabCtrl@@MEBAPEBUAFX_MSGMAP@@XZ @ 7176 NONAME
 ?GetMessageMap@CTabView@@MEBAPEBUAFX_MSGMAP@@XZ @ 7177 NONAME
 ?GetMessageMap@CToolBar@@MEBAPEBUAFX_MSGMAP@@XZ @ 7178 NONAME
 ?GetMessageMap@CToolBarCtrl@@MEBAPEBUAFX_MSGMAP@@XZ @ 7179 NONAME
 ?GetMessageMap@CToolTipCtrl@@MEBAPEBUAFX_MSGMAP@@XZ @ 7180 NONAME
 ?GetMessageMap@CTreeCtrl@@MEBAPEBUAFX_MSGMAP@@XZ @ 7181 NONAME
 ?GetMessageMap@CTreeView@@MEBAPEBUAFX_MSGMAP@@XZ @ 7182 NONAME
 ?GetMessageMap@CView@@MEBAPEBUAFX_MSGMAP@@XZ @ 7183 NONAME
 ?GetMessageMap@CVSListBox@@MEBAPEBUAFX_MSGMAP@@XZ @ 7184 NONAME
 ?GetMessageMap@CVSListBoxBase@@MEBAPEBUAFX_MSGMAP@@XZ @ 7185 NONAME
 ?GetMessageMap@CVSListBoxEditCtrl@@MEBAPEBUAFX_MSGMAP@@XZ @ 7186 NONAME
 ?GetMessageMap@CWinApp@@MEBAPEBUAFX_MSGMAP@@XZ @ 7187 NONAME
 ?GetMessageMap@CWnd@@MEBAPEBUAFX_MSGMAP@@XZ @ 7188 NONAME
 ?GetMessageString@CFrameWnd@@UEBAXIAEAV?$CStringT@_WV?$StrTraitMFC_DLL@_WV?$ChTraitsCRT@_W@ATL@@@@@ATL@@@Z @ 7189 NONAME
 ?GetMessageString@COleControl@@UEBAXIAEAV?$CStringT@_WV?$StrTraitMFC_DLL@_WV?$ChTraitsCRT@_W@ATL@@@@@ATL@@@Z @ 7190 NONAME
 ?GetMetaData@CDataSourceControl@@QEAAJXZ @ 7191 NONAME
 ?GetMetafileData@COleControl@@IEAAHPEAUtagFORMATETC@@PEAUtagSTGMEDIUM@@@Z @ 7192 NONAME
 ?GetMetafileData@COleServerItem@@MEAAHPEAUtagFORMATETC@@PEAUtagSTGMEDIUM@@@Z @ 7193 NONAME
 ?GetMinMaxOffset@CPaneContainerManager@@UEAAXPEAVCPaneDivider@@AEAH11@Z @ 7194 NONAME
 ?GetMinPage@CPrintInfo@@QEBAIXZ @ 7195 NONAME
 ?GetMinReqRect@CMonthCalCtrl@@QEBAHPEAUtagRECT@@@Z @ 7196 NONAME
 ?GetMinSize@CBaseTabbedPane@@UEBAXAEAVCSize@@@Z @ 7197 NONAME
 ?GetMinSize@CPaneContainer@@UEBAXAEAVCSize@@@Z @ 7198 NONAME
 ?GetMinSize@CPaneContainerManager@@UEAAXAEAVCSize@@@Z @ 7199 NONAME
 ?GetMinSizeLeft@CPaneContainer@@UEBAXAEAVCSize@@@Z @ 7200 NONAME
 ?GetMinSizeRight@CPaneContainer@@UEBAXAEAVCSize@@@Z @ 7201 NONAME
 ?GetMinWidth@CMFCRibbonCategory@@IEAAHPEAVCDC@@@Z @ 7202 NONAME
 ?GetMinWidth@CMFCRibbonPanel@@IEAAHPEAVCDC@@@Z @ 7203 NONAME
 ?GetMiscStatus@XOleObject@CDocObjectServer@@UEAAJKPEAK@Z @ 7204 NONAME
 ?GetMiscStatus@XOleObject@COleControl@@UEAAJKPEAK@Z @ 7205 NONAME
 ?GetMiscStatus@XOleObject@COleServerDoc@@UEAAJKPEAK@Z @ 7206 NONAME
 ?GetMiscStatus@XOleObject@COleServerItem@@UEAAJKPEAK@Z @ 7207 NONAME
 ?GetMiterLimit@CDC@@QEBAMXZ @ 7208 NONAME
 ?GetModify@CEdit@@QEBAHXZ @ 7209 NONAME
 ?GetModify@CRichEditCtrl@@QEBAHXZ @ 7210 NONAME
 ?GetModifyPointers@CRectTracker@@IEAAXHPEAPEAH0PEAH1@Z @ 7211 NONAME
 ?GetMoniker@CMonikerFile@@QEBAPEAUIMoniker@@XZ @ 7212 NONAME
 ?GetMoniker@COleDocument@@UEAAPEAUIMoniker@@W4tagOLEGETMONIKER@@@Z @ 7213 NONAME
 ?GetMoniker@COleLinkingDoc@@UEAAPEAUIMoniker@@W4tagOLEGETMONIKER@@@Z @ 7214 NONAME
 ?GetMoniker@COleServerDoc@@UEAAPEAUIMoniker@@W4tagOLEGETMONIKER@@@Z @ 7215 NONAME
 ?GetMoniker@COleServerItem@@QEAAPEAUIMoniker@@W4tagOLEGETMONIKER@@@Z @ 7216 NONAME
 ?GetMoniker@XOleClientSite@COleClientItem@@UEAAJKKPEAPEAUIMoniker@@@Z @ 7217 NONAME
 ?GetMoniker@XOleClientSite@COleControlSite@@UEAAJKKPEAPEAUIMoniker@@@Z @ 7218 NONAME
 ?GetMoniker@XOleObject@CDocObjectServer@@UEAAJKKPEAPEAUIMoniker@@@Z @ 7219 NONAME
 ?GetMoniker@XOleObject@COleControl@@UEAAJKKPEAPEAUIMoniker@@@Z @ 7220 NONAME
 ?GetMoniker@XOleObject@COleServerDoc@@UEAAJKKPEAPEAUIMoniker@@@Z @ 7221 NONAME
 ?GetMoniker@XOleObject@COleServerItem@@UEAAJKKPEAPEAUIMoniker@@@Z @ 7222 NONAME
 ?GetMonthCalColor@CDateTimeCtrl@@QEBAKH@Z @ 7223 NONAME
 ?GetMonthCalCtrl@CDateTimeCtrl@@QEBAPEAVCMonthCalCtrl@@XZ @ 7224 NONAME
 ?GetMonthCalFont@CDateTimeCtrl@@QEBAPEAVCFont@@XZ @ 7225 NONAME
 ?GetMonthCalStyle@CDateTimeCtrl@@QEBAKXZ @ 7226 NONAME
 ?GetMonthDelta@CMonthCalCtrl@@QEBAHXZ @ 7227 NONAME
 ?GetMonthRange@CMonthCalCtrl@@QEBAHAEAVCOleDateTime@ATL@@0K@Z @ 7228 NONAME
 ?GetMonthRange@CMonthCalCtrl@@QEBAHAEAVCTime@ATL@@0K@Z @ 7229 NONAME
 ?GetMonthRange@CMonthCalCtrl@@QEBAHPEAU_SYSTEMTIME@@0K@Z @ 7230 NONAME
 ?GetMouseManager@CWinAppEx@@QEAAPEAVCMouseManager@@XZ @ 7231 NONAME
 ?GetMRUFileName@CMFCTasksPane@@MEAAHPEAVCRecentFileList@@HAEAV?$CStringT@_WV?$StrTraitMFC_DLL@_WV?$ChTraitsCRT@_W@ATL@@@@@ATL@@@Z @ 7232 NONAME
 ?GetNameTooltip@CMFCPropertyGridProperty@@UEAA?AV?$CStringT@_WV?$StrTraitMFC_DLL@_WV?$ChTraitsCRT@_W@ATL@@@@@ATL@@XZ @ 7233 NONAME
 ?GetNaturalExtent@XViewObject@COleControl@@UEAAJKJPEAUtagDVTARGETDEVICE@@PEAUHDC__@@PEAUtagExtentInfo@@PEAUtagSIZE@@@Z @ 7234 NONAME
 ?GetNcBtnSize@CMFCVisualManager@@UEBA?AVCSize@@H@Z @ 7235 NONAME
 ?GetNcBtnSize@CMFCVisualManagerOffice2007@@UEBA?AVCSize@@H@Z @ 7236 NONAME
 ?GetNearestColor@CDC@@QEBAKK@Z @ 7237 NONAME
 ?GetNearestPaletteIndex@CPalette@@QEBAIK@Z @ 7238 NONAME
 ?GetNewItemNumber@COleClientItem@@QEAAKXZ @ 7239 NONAME
 ?GetNewStorage@XRichEditOleCallback@CRichEditView@@UEAAJPEAPEAUIStorage@@@Z @ 7240 NONAME
 ?GetNext@CDataBoundProperty@@QEAAPEAV1@XZ @ 7241 NONAME
 ?GetNext@CObList@@QEAAAEAPEAVCObject@@AEAPEAU__POSITION@@@Z @ 7242 NONAME
 ?GetNext@CObList@@QEBAPEBVCObject@@AEAPEAU__POSITION@@@Z @ 7243 NONAME
 ?GetNext@CPtrList@@QEAAAEAPEAXAEAPEAU__POSITION@@@Z @ 7244 NONAME
 ?GetNext@CPtrList@@QEBAPEBXAEAPEAU__POSITION@@@Z @ 7245 NONAME
 ?GetNext@CStringList@@QEAAAEAV?$CStringT@_WV?$StrTraitMFC_DLL@_WV?$ChTraitsCRT@_W@ATL@@@@@ATL@@AEAPEAU__POSITION@@@Z @ 7246 NONAME
 ?GetNext@CStringList@@QEBAAEBV?$CStringT@_WV?$StrTraitMFC_DLL@_WV?$ChTraitsCRT@_W@ATL@@@@@ATL@@AEAPEAU__POSITION@@@Z @ 7247 NONAME
 ?GetNextAssoc@CMapPtrToPtr@@QEBAXAEAPEAU__POSITION@@AEAPEAX1@Z @ 7248 NONAME
 ?GetNextAssoc@CMapPtrToWord@@QEBAXAEAPEAU__POSITION@@AEAPEAXAEAG@Z @ 7249 NONAME
 ?GetNextAssoc@CMapStringToOb@@QEBAXAEAPEAU__POSITION@@AEAV?$CStringT@_WV?$StrTraitMFC_DLL@_WV?$ChTraitsCRT@_W@ATL@@@@@ATL@@AEAPEAVCObject@@@Z @ 7250 NONAME
 ?GetNextAssoc@CMapStringToPtr@@QEBAXAEAPEAU__POSITION@@AEAV?$CStringT@_WV?$StrTraitMFC_DLL@_WV?$ChTraitsCRT@_W@ATL@@@@@ATL@@AEAPEAX@Z @ 7251 NONAME
 ?GetNextAssoc@CMapStringToString@@QEBAXAEAPEAU__POSITION@@AEAV?$CStringT@_WV?$StrTraitMFC_DLL@_WV?$ChTraitsCRT@_W@ATL@@@@@ATL@@1@Z @ 7252 NONAME
 ?GetNextAssoc@CMapWordToOb@@QEBAXAEAPEAU__POSITION@@AEAGAEAPEAVCObject@@@Z @ 7253 NONAME
 ?GetNextAssoc@CMapWordToPtr@@QEBAXAEAPEAU__POSITION@@AEAGAEAPEAX@Z @ 7254 NONAME
 ?GetNextClientItem@COleDocument@@QEBAPEAVCOleClientItem@@AEAPEAU__POSITION@@@Z @ 7255 NONAME
 ?GetNextConnection@CConnectionPoint@@QEBAPEAUIUnknown@@AEAPEAU__POSITION@@@Z @ 7256 NONAME
 ?GetNextDlgGroupItem@CWnd@@QEBAPEAUCOleControlSiteOrWnd@@PEAU2@@Z @ 7257 NONAME
 ?GetNextDlgGroupItem@CWnd@@QEBAPEAV1@PEAV1@H@Z @ 7258 NONAME
 ?GetNextDlgTabItem@CWnd@@QEBAPEAUCOleControlSiteOrWnd@@PEAU2@H@Z @ 7259 NONAME
 ?GetNextDlgTabItem@CWnd@@QEBAPEAV1@PEAV1@H@Z @ 7260 NONAME
 ?GetNextDoc@CMultiDocTemplate@@UEBAPEAVCDocument@@AEAPEAU__POSITION@@@Z @ 7261 NONAME
 ?GetNextDoc@CSingleDocTemplate@@UEBAPEAVCDocument@@AEAPEAU__POSITION@@@Z @ 7262 NONAME
 ?GetNextDocTemplate@CDocManager@@UEBAPEAVCDocTemplate@@AEAPEAU__POSITION@@@Z @ 7263 NONAME
 ?GetNextDocTemplate@CWinApp@@QEBAPEAVCDocTemplate@@AEAPEAU__POSITION@@@Z @ 7264 NONAME
 ?GetNextFormat@COleDataObject@@QEAAHPEAUtagFORMATETC@@@Z @ 7265 NONAME
 ?GetNextItem@CListCtrl@@QEBAHHH@Z @ 7266 NONAME
 ?GetNextItem@COleDocument@@UEBAPEAVCDocItem@@AEAPEAU__POSITION@@@Z @ 7267 NONAME
 ?GetNextItem@CShellManager@@QEAAPEFAU_ITEMIDLIST@@PEFBU2@@Z @ 7268 NONAME
 ?GetNextItem@CTreeCtrl@@QEBAPEAU_TREEITEM@@PEAU2@I@Z @ 7269 NONAME
 ?GetNextItemOfKind@COleDocument@@IEBAPEAVCDocItem@@AEAPEAU__POSITION@@PEAUCRuntimeClass@@@Z @ 7270 NONAME
 ?GetNextLink@COleUILinkInfo@@UEAAKK@Z @ 7271 NONAME
 ?GetNextPages@CMFCTasksPane@@QEBAXAEAVCStringList@@@Z @ 7272 NONAME
 ?GetNextPathName@CFileDialog@@QEBA?AV?$CStringT@_WV?$StrTraitMFC_DLL@_WV?$ChTraitsCRT@_W@ATL@@@@@ATL@@AEAPEAU__POSITION@@@Z @ 7273 NONAME
 ?GetNextSelectedItem@CListCtrl@@QEBAHAEAPEAU__POSITION@@@Z @ 7274 NONAME
 ?GetNextServerItem@COleDocument@@QEBAPEAVCOleServerItem@@AEAPEAU__POSITION@@@Z @ 7275 NONAME
 ?GetNextSiblingItem@CTreeCtrl@@QEBAPEAU_TREEITEM@@PEAU2@@Z @ 7276 NONAME
 ?GetNextTabWnd@CMDIClientAreaWnd@@AEAAPEAVCMFCTabCtrl@@PEAV2@H@Z @ 7277 NONAME
 ?GetNextView@CDocument@@UEBAPEAVCView@@AEAPEAU__POSITION@@@Z @ 7278 NONAME
 ?GetNextVisibleItem@CTreeCtrl@@QEBAPEAU_TREEITEM@@PEAU2@@Z @ 7279 NONAME
 ?GetNextWindow@CWnd@@QEBAPEAV1@I@Z @ 7280 NONAME
 ?GetNilString@CAfxStringMgr@@UEAAPEAUCStringData@ATL@@XZ @ 7281 NONAME
 ?GetNodeCount@CPaneContainer@@QEBAHXZ @ 7282 NONAME
 ?GetNodeCount@CPaneContainerManager@@QEBAHXZ @ 7283 NONAME
 ?GetNonClientMetrics@AFX_GLOBAL_DATA@@QEAAHAEAUtagNONCLIENTMETRICSW@@@Z @ 7284 NONAME
 ?GetNormalDocumentTitle@CDataRecoveryHandler@@UEBA?AV?$CStringT@_WV?$StrTraitMFC_DLL@_WV?$ChTraitsCRT@_W@ATL@@@@@ATL@@PEAVCDocument@@@Z @ 7285 NONAME
 ?GetNotifier@CFindReplaceDialog@@SAPEAV1@_J@Z @ 7286 NONAME
 ?GetNotSupported@CCmdTarget@@QEAAXXZ @ 7287 NONAME
 ?GetNotSupported@COleControl@@QEAAXXZ @ 7288 NONAME
 ?GetNumberOfWorkAreas@CListCtrl@@QEBAIXZ @ 7289 NONAME
 ?GetNumTics@CSliderCtrl@@QEBAIXZ @ 7290 NONAME
 ?GetObject@CGdiObject@@QEBAHHPEAX@Z @ 7291 NONAME
 ?GetObject@CHttpFile@@QEBA?AV?$CStringT@_WV?$StrTraitMFC_DLL@_WV?$ChTraitsCRT@_W@ATL@@@@@ATL@@XZ @ 7292 NONAME
 ?GetObjectArray@COlePropertyPage@@QEAAPEAPEAUIDispatch@@PEAK@Z @ 7293 NONAME
 ?GetObjectCollection@CJumpList@@IEAAPEAUIObjectCollection@@PEB_W@Z @ 7294 NONAME
 ?GetObjectDescriptorData@COleClientItem@@IEAAXPEAUtagPOINT@@PEAUtagSIZE@@PEAUtagSTGMEDIUM@@@Z @ 7295 NONAME
 ?GetObjectDescriptorData@COleServerItem@@QEAAXPEAUtagPOINT@@PEAUtagSIZE@@PEAUtagSTGMEDIUM@@@Z @ 7296 NONAME
 ?GetObjectInfo@XOleUIObjInfo@COlePropertiesDialog@@UEAAJKPEAKPEAPEA_W111@Z @ 7297 NONAME
 ?GetObjectSchema@CArchive@@QEAAIXZ @ 7298 NONAME
 ?GetObjectStorage@XOleItemContainer@COleLinkingDoc@@UEAAJPEA_WPEAUIBindCtx@@AEBU_GUID@@PEAPEAX@Z @ 7299 NONAME
 ?GetObjectType@CGdiObject@@QEBAIXZ @ 7300 NONAME
 ?GetObjectW@CGdiObject@@QEBAHHPEAX@Z @ 7301 NONAME
 ?GetObjectW@CHttpFile@@QEBA?AV?$CStringT@_WV?$StrTraitMFC_DLL@_WV?$ChTraitsCRT@_W@ATL@@@@@ATL@@XZ @ 7302 NONAME
 ?GetObjectW@CWinAppEx@@QEAAHPEB_WAEAVCObject@@@Z @ 7303 NONAME
 ?GetObjectW@XOleItemContainer@COleLinkingDoc@@UEAAJPEA_WKPEAUIBindCtx@@AEBU_GUID@@PEAPEAX@Z @ 7304 NONAME
 ?GetOccDialogInfo@CDialog@@MEAAPEAU_AFX_OCC_DIALOG_INFO@@XZ @ 7305 NONAME
 ?GetOccDialogInfo@CFormView@@MEAAPEAU_AFX_OCC_DIALOG_INFO@@XZ @ 7306 NONAME
 ?GetOccDialogInfo@CWnd@@MEAAPEAU_AFX_OCC_DIALOG_INFO@@XZ @ 7307 NONAME
 ?GetODBCFieldCount@CRecordset@@QEBAFXZ @ 7308 NONAME
 ?GetODBCFieldInfo@CRecordset@@QEAAXFAEAUCODBCFieldInfo@@@Z @ 7309 NONAME
 ?GetODBCFieldInfo@CRecordset@@QEAAXPEB_WAEAUCODBCFieldInfo@@@Z @ 7310 NONAME
 ?GetOffline@CHtmlView@@QEBAHXZ @ 7311 NONAME
 ?GetOFN@CFileDialog@@QEAAAEAUtagOFNW@@XZ @ 7312 NONAME
 ?GetOFN@CFileDialog@@QEBAAEBUtagOFNW@@XZ @ 7313 NONAME
 ?GetOleControlSite@CWnd@@QEBAPEAVCOleControlSite@@I@Z @ 7314 NONAME
 ?GetOleObject@COleServerItem@@QEAAPEAUIOleObject@@XZ @ 7315 NONAME
 ?GetOneDimSize@COleSafeArray@@QEAAKXZ @ 7316 NONAME
 ?GetOpacity@CD2DBrush@@QEBAMXZ @ 7317 NONAME
 ?GetOpenClipboardWindow@CWnd@@SAPEAV1@XZ @ 7318 NONAME
 ?GetOpenDocumentCount@CDocManager@@UEAAHXZ @ 7319 NONAME
 ?GetOpenDocumentCount@CWinApp@@QEAAHXZ @ 7320 NONAME
 ?GetOppositeAlignment@CGlobalUtils@@QEAAKK@Z @ 7321 NONAME
 ?GetOptimalTextSize@CMFCDesktopAlertDialog@@IEAA?AVCSize@@V?$CStringT@_WV?$StrTraitMFC_DLL@_WV?$ChTraitsCRT@_W@ATL@@@@@ATL@@@Z @ 7322 NONAME
 ?GetOption@CMFCPropertyGridProperty@@QEBAPEB_WH@Z @ 7323 NONAME
 ?GetOptionCount@CMFCPropertyGridProperty@@QEBAHXZ @ 7324 NONAME
 ?GetOptionKeyPath@CBrowserControlSite@@MEAAJPEAPEA_WK@Z @ 7325 NONAME
 ?GetOptionKeyPath@CDHtmlDialog@@UEAAJPEAPEA_WK@Z @ 7326 NONAME
 ?GetOptionKeyPath@XDocHostUIHandler@CHtmlControlSite@@UEAAJPEAPEA_WK@Z @ 7327 NONAME
 ?GetOptions@CRichEditCtrl@@QEBAIXZ @ 7328 NONAME
 ?GetOptions@CTaskDialog@@QEBAHXZ @ 7329 NONAME
 ?GetOrderArray@CHeaderCtrl@@QEBAHPEAHH@Z @ 7330 NONAME
 ?GetOrigin@CListCtrl@@QEBAHPEAUtagPOINT@@@Z @ 7331 NONAME
 ?GetOSVersion@CPropertySet@@QEAAKXZ @ 7332 NONAME
 ?GetOuterWindow@COleControl@@IEBAPEAVCWnd@@XZ @ 7333 NONAME
 ?GetOutlineTextMetricsW@CDC@@QEBAIIPEAU_OUTLINETEXTMETRICW@@@Z @ 7334 NONAME
 ?GetOutOfBoundsOffset@CDockingPanesRow@@AEAAHPEAVCPane@@H@Z @ 7335 NONAME
 ?GetOutOfBoundsOffsetRect@CDockingPanesRow@@IEAAHPEAVCPane@@H@Z @ 7336 NONAME
 ?GetOutputCharWidth@CDC@@QEBAHIIPEAH@Z @ 7337 NONAME
 ?GetOutputTabbedTextExtent@CDC@@QEBA?AVCSize@@AEBV?$CStringT@_WV?$StrTraitMFC_DLL@_WV?$ChTraitsCRT@_W@ATL@@@@@ATL@@HPEAH@Z @ 7338 NONAME
 ?GetOutputTabbedTextExtent@CDC@@QEBA?AVCSize@@PEB_WHHPEAH@Z @ 7339 NONAME
 ?GetOutputTextExtent@CDC@@QEBA?AVCSize@@AEBV?$CStringT@_WV?$StrTraitMFC_DLL@_WV?$ChTraitsCRT@_W@ATL@@@@@ATL@@@Z @ 7340 NONAME
 ?GetOutputTextExtent@CDC@@QEBA?AVCSize@@PEB_WH@Z @ 7341 NONAME
 ?GetOutputTextMetrics@CDC@@QEBAHPEAUtagTEXTMETRICW@@@Z @ 7342 NONAME
 ?GetOverflowRect@CHeaderCtrl@@QEBAHPEAUtagRECT@@@Z @ 7343 NONAME
 ?GetOwner@CWnd@@QEBAPEAV1@XZ @ 7344 NONAME
 ?GetPadding@CToolBarCtrl@@QEBAXAEAH0@Z @ 7345 NONAME
 ?GetPage@CPropertySheet@@QEBAPEAVCPropertyPage@@H@Z @ 7346 NONAME
 ?GetPageByGroup@CMFCTasksPane@@QEBAHHAEAH@Z @ 7347 NONAME
 ?GetPageCount@COleDocObjectItem@@QEAAHPEAJ0@Z @ 7348 NONAME
 ?GetPageCount@CPropertySheet@@QEBAHXZ @ 7349 NONAME
 ?GetPageIndex@CPropertySheet@@QEAAHPEAVCPropertyPage@@@Z @ 7350 NONAME
 ?GetPageInfo@XPrint@CDocObjectServer@@UEAAJPEAJ0@Z @ 7351 NONAME
 ?GetPageInfo@XPropertyPage@COlePropertyPage@@UEAAJPEAUtagPROPPAGEINFO@@@Z @ 7352 NONAME
 ?GetPageRect@CRichEditView@@QEBA?AVCRect@@XZ @ 7353 NONAME
 ?GetPages@XSpecifyPropertyPages@COleControl@@UEAAJPEAUtagCAUUID@@@Z @ 7354 NONAME
 ?GetPageSite@COlePropertyPage@@QEAAPEAUIPropertyPageSite@@XZ @ 7355 NONAME
 ?GetPageSize@CSliderCtrl@@QEBAHXZ @ 7356 NONAME
 ?GetPalette@CReBarCtrl@@QEBAPEAVCPalette@@XZ @ 7357 NONAME
 ?GetPaletteEntries@CPalette@@QEBAIIIPEAUtagPALETTEENTRY@@@Z @ 7358 NONAME
 ?GetPaltteMinSize@CMFCRibbonPanel@@IEBA?AVCSize@@XZ @ 7359 NONAME
 ?GetPane@CFrameWndEx@@QEAAPEAVCBasePane@@I@Z @ 7360 NONAME
 ?GetPane@CMDIChildWndEx@@QEAAPEAVCBasePane@@I@Z @ 7361 NONAME
 ?GetPane@CMDIFrameWndEx@@QEAAPEAVCBasePane@@I@Z @ 7362 NONAME
 ?GetPane@CMultiPaneFrameWnd@@UEBAPEAVCWnd@@XZ @ 7363 NONAME
 ?GetPane@COleCntrFrameWndEx@@QEAAPEAVCBasePane@@I@Z @ 7364 NONAME
 ?GetPane@COleDocIPFrameWndEx@@QEAAPEAVCBasePane@@I@Z @ 7365 NONAME
 ?GetPane@COleIPFrameWndEx@@QEAAPEAVCBasePane@@I@Z @ 7366 NONAME
 ?GetPane@CPaneFrameWnd@@UEBAPEAVCWnd@@XZ @ 7367 NONAME
 ?GetPane@CSplitterWnd@@QEBAPEAVCWnd@@HH@Z @ 7368 NONAME
 ?GetPaneAndAlignFromPoint@CGlobalUtils@@QEAAHAEAVCPaneContainerManager@@VCPoint@@PEAPEAVCDockablePane@@AEAKAEAH4@Z @ 7369 NONAME
 ?GetPaneDividers@CPaneDivider@@QEAAXAEAVCObList@@@Z @ 7370 NONAME
 ?GetPaneIcon@CBaseTabbedPane@@UEAAPEAUHICON__@@H@Z @ 7371 NONAME
 ?GetPaneInfo@CMFCStatusBar@@QEBAXHAEAI0AEAH@Z @ 7372 NONAME
 ?GetPaneInfo@CStatusBar@@QEBAXHAEAI0AEAH@Z @ 7373 NONAME
 ?GetPanel@CMFCRibbonCategory@@QEAAPEAVCMFCRibbonPanel@@H@Z @ 7374 NONAME
 ?GetPanelCount@CMFCRibbonCategory@@QEBAHXZ @ 7375 NONAME
 ?GetPanelFromPoint@CMFCRibbonCategory@@QEBAPEAVCMFCRibbonPanel@@VCPoint@@@Z @ 7376 NONAME
 ?GetPanelIndex@CMFCRibbonCategory@@QEBAHPEBVCMFCRibbonPanel@@@Z @ 7377 NONAME
 ?GetPaneList@CBaseTabbedPane@@UEAAXAEAVCObList@@PEAUCRuntimeClass@@@Z @ 7378 NONAME
 ?GetPaneList@CDockingManager@@QEAAXAEAVCObList@@HPEAUCRuntimeClass@@H@Z @ 7379 NONAME
 ?GetPaneList@CPaneFrameWnd@@KAXAEAVCObList@@PEAUCRuntimeClass@@H@Z @ 7380 NONAME
 ?GetPaneName@CPane@@UEBAXAEAV?$CStringT@_WV?$StrTraitMFC_DLL@_WV?$ChTraitsCRT@_W@ATL@@@@@ATL@@@Z @ 7381 NONAME
 ?GetPaneProgress@CMFCStatusBar@@QEBAJH@Z @ 7382 NONAME
 ?GetPanes@CPaneDivider@@QEAAXAEAVCObList@@@Z @ 7383 NONAME
 ?GetPaneStyle@CMFCStatusBar@@QEBAIH@Z @ 7384 NONAME
 ?GetPaneStyle@CStatusBar@@QEBAIH@Z @ 7385 NONAME
 ?GetPaneText@CMFCStatusBar@@QEBA?AV?$CStringT@_WV?$StrTraitMFC_DLL@_WV?$ChTraitsCRT@_W@ATL@@@@@ATL@@H@Z @ 7386 NONAME
 ?GetPaneText@CMFCStatusBar@@QEBAXHAEAV?$CStringT@_WV?$StrTraitMFC_DLL@_WV?$ChTraitsCRT@_W@ATL@@@@@ATL@@@Z @ 7387 NONAME
 ?GetPaneText@CStatusBar@@QEBA?AV?$CStringT@_WV?$StrTraitMFC_DLL@_WV?$ChTraitsCRT@_W@ATL@@@@@ATL@@H@Z @ 7388 NONAME
 ?GetPaneText@CStatusBar@@QEBAXHAEAV?$CStringT@_WV?$StrTraitMFC_DLL@_WV?$ChTraitsCRT@_W@ATL@@@@@ATL@@@Z @ 7389 NONAME
 ?GetPaneWidth@CMFCStatusBar@@QEBAHH@Z @ 7390 NONAME
 ?GetPaperSize@CPageSetupDialog@@QEBA?AVCSize@@XZ @ 7391 NONAME
 ?GetPaperSize@CRichEditView@@QEBA?AVCSize@@XZ @ 7392 NONAME
 ?GetParaFormat@CRichEditCtrl@@QEBAKAEAU_paraformat@@@Z @ 7393 NONAME
 ?GetParaFormat@CRichEditCtrl@@QEBAKAEAUPARAFORMAT2@@@Z @ 7394 NONAME
 ?GetParaFormatSelection@CRichEditView@@QEAAAEAUPARAFORMAT2@@XZ @ 7395 NONAME
 ?GetParent@CWnd@@QEBAPEAV1@XZ @ 7396 NONAME
 ?GetParentArea@CMFCPopupMenu@@UEAAPEAVCWnd@@AEAVCRect@@@Z @ 7397 NONAME
 ?GetParentBrowser@CHtmlView@@QEBAPEAUIDispatch@@XZ @ 7398 NONAME
 ?GetParentButton@CMFCRibbonCategory@@QEBAPEAVCMFCRibbonBaseElement@@XZ @ 7399 NONAME
 ?GetParentButton@CMFCRibbonPanel@@QEBAPEAVCMFCRibbonBaseElement@@XZ @ 7400 NONAME
 ?GetParentFrame@CWnd@@QEBAPEAVCFrameWnd@@XZ @ 7401 NONAME
 ?GetParentItem@CShellManager@@QEAAHPEFBU_ITEMIDLIST@@AEAPEFAU2@@Z @ 7402 NONAME
 ?GetParentItem@CTreeCtrl@@QEBAPEAU_TREEITEM@@PEAU2@@Z @ 7403 NONAME
 ?GetParentMenuBar@CMFCDropDownFrame@@QEBAPEAVCMFCMenuBar@@XZ @ 7404 NONAME
 ?GetParentMiniFrame@CBasePane@@UEBAPEAVCPaneFrameWnd@@H@Z @ 7405 NONAME
 ?GetParentOwner@CWnd@@QEBAPEAV1@XZ @ 7406 NONAME
 ?GetParentPanel@CMFCRibbonBaseElement@@UEBAPEAVCMFCRibbonPanel@@XZ @ 7407 NONAME
 ?GetParentPopupMenu@CMFCDropDownFrame@@QEBAPEAV1@XZ @ 7408 NONAME
 ?GetParentPopupMenu@CMFCPopupMenu@@QEBAPEAV1@XZ @ 7409 NONAME
 ?GetParentRibbonMenuBar@CMFCRibbonPanelMenu@@QEBAPEAVCMFCRibbonPanelMenuBar@@XZ @ 7410 NONAME
 ?GetParentSheet@CPropertyPage@@UEAAPEAVCPropertySheet@@XZ @ 7411 NONAME
 ?GetParentSplitter@CView@@SAPEAVCSplitterWnd@@PEBVCWnd@@H@Z @ 7412 NONAME
 ?GetParentTabbedPane@CBasePane@@QEBAPEAVCBaseTabbedPane@@XZ @ 7413 NONAME
 ?GetParentTabWnd@CBasePane@@QEBAPEAVCMFCBaseTabCtrl@@AEAPEAUHWND__@@@Z @ 7414 NONAME
 ?GetParentToolBar@CMFCPopupMenu@@QEBAPEAVCMFCToolBar@@XZ @ 7415 NONAME
 ?GetParentWnd@CMFCRibbonBaseElement@@UEBAPEAVCWnd@@XZ @ 7416 NONAME
 ?GetParentWnd@CMFCRibbonPanel@@MEBAPEAVCWnd@@XZ @ 7417 NONAME
 ?GetParts@CStatusBarCtrl@@QEBAHHPEAH@Z @ 7418 NONAME
 ?GetPasswordChar@CEdit@@QEBA_WXZ @ 7419 NONAME
 ?GetPasteIndex@COlePasteSpecialDialog@@QEBAHXZ @ 7420 NONAME
 ?GetPath@CDataPathProperty@@QEBA?AV?$CStringT@_WV?$StrTraitMFC_DLL@_WV?$ChTraitsCRT@_W@ATL@@@@@ATL@@XZ @ 7421 NONAME
 ?GetPath@CDC@@QEBAHPEAUtagPOINT@@PEAEH@Z @ 7422 NONAME
 ?GetPathName@CDocument@@QEBAAEBV?$CStringT@_WV?$StrTraitMFC_DLL@_WV?$ChTraitsCRT@_W@ATL@@@@@ATL@@XZ @ 7423 NONAME
 ?GetPathName@CFileDialog@@QEBA?AV?$CStringT@_WV?$StrTraitMFC_DLL@_WV?$ChTraitsCRT@_W@ATL@@@@@ATL@@XZ @ 7424 NONAME
 ?GetPathName@COleInsertDialog@@QEBA?AV?$CStringT@_WV?$StrTraitMFC_DLL@_WV?$ChTraitsCRT@_W@ATL@@@@@ATL@@XZ @ 7425 NONAME
 ?GetPeerName@CAsyncSocket@@QEAAHAEAV?$CStringT@_WV?$StrTraitMFC_DLL@_WV?$ChTraitsCRT@_W@ATL@@@@@ATL@@AEAI@Z @ 7426 NONAME
 ?GetPeerName@CAsyncSocket@@QEAAHPEAUsockaddr@@PEAH@Z @ 7427 NONAME
 ?GetPictureDispatch@CPictureHolder@@QEAAPEAUIPictureDisp@@XZ @ 7428 NONAME
 ?GetPixel@CDC@@QEBAKHH@Z @ 7429 NONAME
 ?GetPixel@CDC@@QEBAKUtagPOINT@@@Z @ 7430 NONAME
 ?GetPixelFormat@CD2DBitmap@@QEBA?AUD2D1_PIXEL_FORMAT@@XZ @ 7431 NONAME
 ?GetPixelFormat@CRenderTarget@@QEBA?AUD2D1_PIXEL_FORMAT@@XZ @ 7432 NONAME
 ?GetPixelSize@CD2DBitmap@@QEBA?AVCD2DSizeU@@XZ @ 7433 NONAME
 ?GetPixelSize@CRenderTarget@@QEBA?AVCD2DSizeU@@XZ @ 7434 NONAME
 ?GetPolyFillMode@CDC@@QEBAHXZ @ 7435 NONAME
 ?GetPortName@CPageSetupDialog@@QEBA?AV?$CStringT@_WV?$StrTraitMFC_DLL@_WV?$ChTraitsCRT@_W@ATL@@@@@ATL@@XZ @ 7436 NONAME
 ?GetPortName@CPrintDialog@@QEBA?AV?$CStringT@_WV?$StrTraitMFC_DLL@_WV?$ChTraitsCRT@_W@ATL@@@@@ATL@@XZ @ 7437 NONAME
 ?GetPortName@CPrintDialogEx@@QEBA?AV?$CStringT@_WV?$StrTraitMFC_DLL@_WV?$ChTraitsCRT@_W@ATL@@@@@ATL@@XZ @ 7438 NONAME
 ?GetPos@CProgressCtrl@@QEBAHXZ @ 7439 NONAME
 ?GetPos@CSliderCtrl@@QEBAHXZ @ 7440 NONAME
 ?GetPos@CSpinButtonCtrl@@QEBAHXZ @ 7441 NONAME
 ?GetPos32@CSpinButtonCtrl@@QEBAHPEAH@Z @ 7442 NONAME
 ?GetPosFromPoint@CMFCRibbonSlider@@IEAAHH@Z @ 7443 NONAME
 ?GetPosition@CFile@@UEBA_KXZ @ 7444 NONAME
 ?GetPosition@CMemFile@@UEBA_KXZ @ 7445 NONAME
 ?GetPosition@COleStreamFile@@UEBA_KXZ @ 7446 NONAME
 ?GetPosition@CSocketFile@@UEBA_KXZ @ 7447 NONAME
 ?GetPosition@CStdioFile@@UEBA_KXZ @ 7448 NONAME
 ?GetPredefinedStrings@XPerPropertyBrowsing@COleControl@@UEAAJJPEAUtagCALPOLESTR@@PEAUtagCADWORD@@@Z @ 7449 NONAME
 ?GetPredefinedValue@XPerPropertyBrowsing@COleControl@@UEAAJJKPEAUtagVARIANT@@@Z @ 7450 NONAME
 ?GetPreferedMenuLocation@CMFCRibbonMainPanel@@MEAAHAEAVCRect@@@Z @ 7451 NONAME
 ?GetPressed@CMFCRibbonBaseElement@@UEAAPEAV1@XZ @ 7452 NONAME
 ?GetPressed@CMFCRibbonButtonsGroup@@MEAAPEAVCMFCRibbonBaseElement@@XZ @ 7453 NONAME
 ?GetPressed@CMFCRibbonGallery@@MEAAPEAVCMFCRibbonBaseElement@@XZ @ 7454 NONAME
 ?GetPressed@CMFCRibbonPanel@@QEBAPEAVCMFCRibbonBaseElement@@XZ @ 7455 NONAME
 ?GetPrev@CObList@@QEAAAEAPEAVCObject@@AEAPEAU__POSITION@@@Z @ 7456 NONAME
 ?GetPrev@CObList@@QEBAPEBVCObject@@AEAPEAU__POSITION@@@Z @ 7457 NONAME
 ?GetPrev@CPtrList@@QEAAAEAPEAXAEAPEAU__POSITION@@@Z @ 7458 NONAME
 ?GetPrev@CPtrList@@QEBAPEBXAEAPEAU__POSITION@@@Z @ 7459 NONAME
 ?GetPrev@CStringList@@QEAAAEAV?$CStringT@_WV?$StrTraitMFC_DLL@_WV?$ChTraitsCRT@_W@ATL@@@@@ATL@@AEAPEAU__POSITION@@@Z @ 7460 NONAME
 ?GetPrev@CStringList@@QEBAAEBV?$CStringT@_WV?$StrTraitMFC_DLL@_WV?$ChTraitsCRT@_W@ATL@@@@@ATL@@AEAPEAU__POSITION@@@Z @ 7461 NONAME
 ?GetPrevDlgGroupItem@CWnd@@QEBAPEAUCOleControlSiteOrWnd@@PEAU2@@Z @ 7462 NONAME
 ?GetPreviousPages@CMFCTasksPane@@QEBAXAEAVCStringList@@@Z @ 7463 NONAME
 ?GetPrevSiblingItem@CTreeCtrl@@QEBAPEAU_TREEITEM@@PEAU2@@Z @ 7464 NONAME
 ?GetPrevVisibleItem@CTreeCtrl@@QEBAPEAU_TREEITEM@@PEAU2@@Z @ 7465 NONAME
 ?GetPrimarySelectedItem@COleDocument@@UEAAPEAVCOleClientItem@@PEAVCView@@@Z @ 7466 NONAME
 ?GetPrimarySelectedItem@CRichEditDoc@@UEAAPEAVCOleClientItem@@PEAVCView@@@Z @ 7467 NONAME
 ?GetPrintDeviceInfo@COleClientItem@@IEAAHPEAPEAUIOleCache@@PEAPEAUtagDVTARGETDEVICE@@PEAK@Z @ 7468 NONAME
 ?GetPrinterDC@CPrintDialog@@QEBAPEAUHDC__@@XZ @ 7469 NONAME
 ?GetPrinterDC@CPrintDialogEx@@QEBAPEAUHDC__@@XZ @ 7470 NONAME
 ?GetPrinterDeviceDefaults@CWinApp@@QEAAHPEAUtagPDW@@@Z @ 7471 NONAME
 ?GetPrinterFont@CEditView@@QEBAPEAVCFont@@XZ @ 7472 NONAME
 ?GetPrintRect@CRichEditView@@QEBA?AVCRect@@XZ @ 7473 NONAME
 ?GetPrintWidth@CRichEditView@@QEBAHXZ @ 7474 NONAME
 ?GetPriority@CAsyncMonikerFile@@MEBAJXZ @ 7475 NONAME
 ?GetProfileBinary@CWinApp@@UEAAHPEB_W0PEAPEAEPEAI@Z @ 7476 NONAME
 ?GetProfileIntW@CWinApp@@UEAAIPEB_W0H@Z @ 7477 NONAME
 ?GetProfileStringW@CWinApp@@UEAA?AV?$CStringT@_WV?$StrTraitMFC_DLL@_WV?$ChTraitsCRT@_W@ATL@@@@@ATL@@PEB_W00@Z @ 7478 NONAME
 ?GetPropCheck@COlePropertyPage@@QEAAHPEB_WPEAH@Z @ 7479 NONAME
 ?GetProperty@CHtmlView@@QEAA?AVCOleVariant@@PEB_W@Z @ 7480 NONAME
 ?GetProperty@CHtmlView@@QEAAHPEB_WAEAV?$CStringT@_WV?$StrTraitMFC_DLL@_WV?$ChTraitsCRT@_W@ATL@@@@@ATL@@@Z @ 7481 NONAME
 ?GetProperty@CMFCPropertyGridCtrl@@QEBAPEAVCMFCPropertyGridProperty@@H@Z @ 7482 NONAME
 ?GetProperty@COleControlSite@@UEBAXJGPEAX@Z @ 7483 NONAME
 ?GetProperty@COleDispatchDriver@@QEBAXJGPEAX@Z @ 7484 NONAME
 ?GetProperty@CPropertySection@@QEAAPEAVCProperty@@K@Z @ 7485 NONAME
 ?GetProperty@CPropertySet@@QEAAPEAVCProperty@@U_GUID@@K@Z @ 7486 NONAME
 ?GetProperty@CWnd@@QEBAXJGPEAX@Z @ 7487 NONAME
 ?GetPropertyGridGroupColor@CMFCVisualManager@@UEAAKPEAVCMFCPropertyGridCtrl@@@Z @ 7488 NONAME
 ?GetPropertyGridGroupColor@CMFCVisualManagerOffice2003@@UEAAKPEAVCMFCPropertyGridCtrl@@@Z @ 7489 NONAME
 ?GetPropertyGridGroupColor@CMFCVisualManagerOfficeXP@@MEAAKPEAVCMFCPropertyGridCtrl@@@Z @ 7490 NONAME
 ?GetPropertyGridGroupColor@CMFCVisualManagerVS2005@@UEAAKPEAVCMFCPropertyGridCtrl@@@Z @ 7491 NONAME
 ?GetPropertyGridGroupTextColor@CMFCVisualManager@@UEAAKPEAVCMFCPropertyGridCtrl@@@Z @ 7492 NONAME
 ?GetPropertyGridGroupTextColor@CMFCVisualManagerOffice2003@@UEAAKPEAVCMFCPropertyGridCtrl@@@Z @ 7493 NONAME
 ?GetPropertyGridGroupTextColor@CMFCVisualManagerOfficeXP@@MEAAKPEAVCMFCPropertyGridCtrl@@@Z @ 7494 NONAME
 ?GetPropIndex@COlePropertyPage@@QEAAHPEB_WPEAH@Z @ 7495 NONAME
 ?GetPropPageIDs@COleControl@@MEAAPEAU_GUID@@AEAK@Z @ 7496 NONAME
 ?GetPropRadio@COlePropertyPage@@QEAAHPEB_WPEAH@Z @ 7497 NONAME
 ?GetPropsetData@COleControl@@IEAAHPEAUtagFORMATETC@@PEAUtagSTGMEDIUM@@AEBU_GUID@@@Z @ 7498 NONAME
 ?GetPropText@COlePropertyPage@@QEAAHPEB_WPEAE@Z @ 7499 NONAME
 ?GetPropText@COlePropertyPage@@QEAAHPEB_WPEAF@Z @ 7500 NONAME
 ?GetPropText@COlePropertyPage@@QEAAHPEB_WPEAH@Z @ 7501 NONAME
 ?GetPropText@COlePropertyPage@@QEAAHPEB_WPEAI@Z @ 7502 NONAME
 ?GetPropText@COlePropertyPage@@QEAAHPEB_WPEAJ@Z @ 7503 NONAME
 ?GetPropText@COlePropertyPage@@QEAAHPEB_WPEAK@Z @ 7504 NONAME
 ?GetPropText@COlePropertyPage@@QEAAHPEB_WPEAM@Z @ 7505 NONAME
 ?GetPropText@COlePropertyPage@@QEAAHPEB_WPEAN@Z @ 7506 NONAME
 ?GetPropText@COlePropertyPage@@QEAAHPEB_WPEAV?$CStringT@_WV?$StrTraitMFC_DLL@_WV?$ChTraitsCRT@_W@ATL@@@@@ATL@@@Z @ 7507 NONAME
 ?GetPSP@CPropertyPage@@QEAAAEAU_PROPSHEETPAGEW@@XZ @ 7508 NONAME
 ?GetPSP@CPropertyPage@@QEBAAEBU_PROPSHEETPAGEW@@XZ @ 7509 NONAME
 ?GetPunctuation@CRichEditCtrl@@QEBAHIPEAU_punctuation@@@Z @ 7510 NONAME
 ?GetQuickAccessCommands@CMFCRibbonBar@@QEAAXAEAV?$CList@II@@@Z @ 7511 NONAME
 ?GetRadiusX@CD2DRadialGradientBrush@@QEBAMXZ @ 7512 NONAME
 ?GetRadiusY@CD2DRadialGradientBrush@@QEBAMXZ @ 7513 NONAME
 ?GetRange@CDateTimeCtrl@@QEBAKPEAVCOleDateTime@ATL@@0@Z @ 7514 NONAME
 ?GetRange@CDateTimeCtrl@@QEBAKPEAVCTime@ATL@@0@Z @ 7515 NONAME
 ?GetRange@CMFCToolBarSpinEditBoxButton@@QEAAXAEAH0@Z @ 7516 NONAME
 ?GetRange@CMonthCalCtrl@@QEBAKPEAU_SYSTEMTIME@@0@Z @ 7517 NONAME
 ?GetRange@CMonthCalCtrl@@QEBAKPEAVCOleDateTime@ATL@@0@Z @ 7518 NONAME
 ?GetRange@CMonthCalCtrl@@QEBAKPEAVCTime@ATL@@0@Z @ 7519 NONAME
 ?GetRange@CProgressCtrl@@QEBAXAEAH0@Z @ 7520 NONAME
 ?GetRange@CSliderCtrl@@QEBAXAEAH0@Z @ 7521 NONAME
 ?GetRange@CSpinButtonCtrl@@QEBAKXZ @ 7522 NONAME
 ?GetRange@CSpinButtonCtrl@@QEBAXAEAH0@Z @ 7523 NONAME
 ?GetRange32@CSpinButtonCtrl@@QEBAXAEAH0@Z @ 7524 NONAME
 ?GetRangeMax@CSliderCtrl@@QEBAHXZ @ 7525 NONAME
 ?GetRangeMin@CSliderCtrl@@QEBAHXZ @ 7526 NONAME
 ?GetRawValue@CProperty@@QEAAPEAXXZ @ 7527 NONAME
 ?GetReadOnlyPref@CFileDialog@@QEBAHXZ @ 7528 NONAME
 ?GetReadyState@CHtmlView@@QEBA?AW4tagREADYSTATE@@XZ @ 7529 NONAME
 ?GetReadyState@COleControl@@QEAAJXZ @ 7530 NONAME
 ?GetReBarBandInfoSize@CReBar@@QEBAIXZ @ 7531 NONAME
 ?GetReBarCtrl@CMFCReBar@@QEBAAEAVCReBarCtrl@@XZ @ 7532 NONAME
 ?GetReBarCtrl@CReBar@@QEBAAEAVCReBarCtrl@@XZ @ 7533 NONAME
 ?GetRecentDefaultPaneDivider@CRecentDockSiteInfo@@QEAAPEAVCPaneDivider@@XZ @ 7534 NONAME
 ?GetRecentDockedPercent@CRecentDockSiteInfo@@QEAAHH@Z @ 7535 NONAME
 ?GetRecentDockedRect@CRecentDockSiteInfo@@QEAAAEAVCRect@@H@Z @ 7536 NONAME
 ?GetRecentListOfPanes@CRecentDockSiteInfo@@QEAAAEAV?$CList@PEAUHWND__@@PEAU1@@@H@Z @ 7537 NONAME
 ?GetRecentPaneContainer@CRecentDockSiteInfo@@QEAAPEAVCPaneContainer@@H@Z @ 7538 NONAME
 ?GetRecentTabContainer@CRecentDockSiteInfo@@QEAAPEAVCPaneContainer@@H@Z @ 7539 NONAME
 ?GetRecordCount@CRecordset@@QEBAJXZ @ 7540 NONAME
 ?GetRecoveredDocumentTitle@CDataRecoveryHandler@@UEBA?AV?$CStringT@_WV?$StrTraitMFC_DLL@_WV?$ChTraitsCRT@_W@ATL@@@@@ATL@@AEBV23@@Z @ 7541 NONAME
 ?GetRect@CEdit@@QEBAXPEAUtagRECT@@@Z @ 7542 NONAME
 ?GetRect@CReBarCtrl@@QEBAHIPEAUtagRECT@@@Z @ 7543 NONAME
 ?GetRect@CRichEditCtrl@@QEBAXPEAUtagRECT@@@Z @ 7544 NONAME
 ?GetRect@CStatusBarCtrl@@QEBAHHPEAUtagRECT@@@Z @ 7545 NONAME
 ?GetRect@CToolBarCtrl@@QEBAHHPEAUtagRECT@@@Z @ 7546 NONAME
 ?GetRect@XOleDocumentView@CDocObjectServer@@UEAAJPEAUtagRECT@@@Z @ 7547 NONAME
 ?GetRect@XViewObject@COleControl@@UEAAJKPEAU_RECTL@@@Z @ 7548 NONAME
 ?GetRectInContainer@COleControl@@QEAAHPEAUtagRECT@@@Z @ 7549 NONAME
 ?GetRedoName@CRichEditCtrl@@QEBA?AW4_undonameid@@XZ @ 7550 NONAME
 ?GetRegionData@CRgn@@QEBAHPEAU_RGNDATA@@H@Z @ 7551 NONAME
 ?GetRegisterAsBrowser@CHtmlView@@QEBAHXZ @ 7552 NONAME
 ?GetRegisterAsDropTarget@CHtmlView@@QEBAHXZ @ 7553 NONAME
 ?GetRegisteredWithTaskBarMDIChildCount@CMDIFrameWndEx@@QEAAHXZ @ 7554 NONAME
 ?GetRegSectionPath@CWinAppEx@@QEAA?AV?$CStringT@_WV?$StrTraitMFC_DLL@_WV?$ChTraitsCRT@_W@ATL@@@@@ATL@@PEB_W@Z @ 7555 NONAME
 ?GetRegularSize@CMFCRibbonButton@@UEAA?AVCSize@@PEAVCDC@@@Z @ 7556 NONAME
 ?GetRegularSize@CMFCRibbonButtonsGroup@@UEAA?AVCSize@@PEAVCDC@@@Z @ 7557 NONAME
 ?GetRegularSize@CMFCRibbonCaptionButton@@MEAA?AVCSize@@PEAVCDC@@@Z @ 7558 NONAME
 ?GetRegularSize@CMFCRibbonGallery@@UEAA?AVCSize@@PEAVCDC@@@Z @ 7559 NONAME
 ?GetRegularSize@CMFCRibbonGalleryIcon@@MEAA?AVCSize@@PEAVCDC@@@Z @ 7560 NONAME
 ?GetRegularSize@CMFCRibbonLaunchButton@@UEAA?AVCSize@@PEAVCDC@@@Z @ 7561 NONAME
 ?GetRegularSize@CMFCRibbonLinkCtrl@@UEAA?AVCSize@@PEAVCDC@@@Z @ 7562 NONAME
 ?GetRegularSize@CMFCRibbonProgressBar@@UEAA?AVCSize@@PEAVCDC@@@Z @ 7563 NONAME
 ?GetRegularSize@CMFCRibbonQuickAccessToolBar@@MEAA?AVCSize@@PEAVCDC@@@Z @ 7564 NONAME
 ?GetRegularSize@CMFCRibbonRecentFilesList@@MEAA?AVCSize@@PEAVCDC@@@Z @ 7565 NONAME
 ?GetRegularSize@CMFCRibbonSeparator@@MEAA?AVCSize@@PEAVCDC@@@Z @ 7566 NONAME
 ?GetRegularSize@CMFCRibbonSlider@@UEAA?AVCSize@@PEAVCDC@@@Z @ 7567 NONAME
 ?GetRegularSize@CMFCRibbonTab@@UEAA?AVCSize@@PEAVCDC@@@Z @ 7568 NONAME
 ?GetRelatedList@CMFCShellTreeCtrl@@QEBAPEAVCMFCShellListCtrl@@XZ @ 7569 NONAME
 ?GetRelatedTree@CMFCShellListCtrl@@IEBAPEAVCMFCShellTreeCtrl@@XZ @ 7570 NONAME
 ?GetRenderTarget@CWnd@@QEAAPEAVCHwndRenderTarget@@XZ @ 7571 NONAME
 ?GetReplaceString@CFindReplaceDialog@@QEBA?AV?$CStringT@_WV?$StrTraitMFC_DLL@_WV?$ChTraitsCRT@_W@ATL@@@@@ATL@@XZ @ 7572 NONAME
 ?GetResizeStep@CPaneContainer@@UEBAHXZ @ 7573 NONAME
 ?GetResourceID@CMFCControlRendererInfo@@QEBAPEB_WXZ @ 7574 NONAME
 ?GetResult@CFileDialog@@QEAAPEAUIShellItem@@XZ @ 7575 NONAME
 ?GetResults@CFileDialog@@QEAAPEAUIShellItemArray@@XZ @ 7576 NONAME
 ?GetRgnBox@CRgn@@QEBAHPEAUtagRECT@@@Z @ 7577 NONAME
 ?GetRibbonBar@CMFCVisualManagerOffice2007@@QEBAPEAVCMFCRibbonBar@@PEAVCWnd@@@Z @ 7578 NONAME
 ?GetRibbonBar@CMFCVisualManagerWindows7@@QEBAPEAVCMFCRibbonBar@@PEAVCWnd@@@Z @ 7579 NONAME
 ?GetRibbonBarImages@CMFCRibbonCollector@@MEAAXAEBVCMFCRibbonBar@@AEAVXRibbonBar@CMFCRibbonInfo@@@Z @ 7580 NONAME
 ?GetRibbonEditBackgroundColor@CMFCVisualManager@@UEAAKPEAVCMFCRibbonRichEditCtrl@@HHH@Z @ 7581 NONAME
 ?GetRibbonEditBackgroundColor@CMFCVisualManagerOffice2007@@UEAAKPEAVCMFCRibbonRichEditCtrl@@HHH@Z @ 7582 NONAME
 ?GetRibbonEditBackgroundColor@CMFCVisualManagerWindows7@@UEAAKPEAVCMFCRibbonRichEditCtrl@@HHH@Z @ 7583 NONAME
 ?GetRibbonHyperlinkTextColor@CMFCVisualManager@@UEAAKPEAVCMFCRibbonLinkCtrl@@@Z @ 7584 NONAME
 ?GetRibbonHyperlinkTextColor@CMFCVisualManagerOffice2007@@UEAAKPEAVCMFCRibbonLinkCtrl@@@Z @ 7585 NONAME
 ?GetRibbonPopupBorderSize@CMFCVisualManagerOffice2007@@UEBAHPEBVCMFCRibbonPanelMenu@@@Z @ 7586 NONAME
 ?GetRibbonPopupBorderSize@CMFCVisualManagerWindows7@@UEBAHPEBVCMFCRibbonPanelMenu@@@Z @ 7587 NONAME
 ?GetRibbonQuickAccessToolBarRightMargin@CMFCVisualManagerOffice2007@@UEAAHXZ @ 7588 NONAME
 ?GetRibbonSliderColors@CMFCVisualManager@@UEAAXPEAVCMFCRibbonSlider@@HHHAEAK1@Z @ 7589 NONAME
 ?GetRibbonSliderColors@CMFCVisualManagerOfficeXP@@MEAAXPEAVCMFCRibbonSlider@@HHHAEAK1@Z @ 7590 NONAME
 ?GetRibbonStatusBarTextColor@CMFCVisualManager@@UEAAKPEAVCMFCRibbonStatusBar@@@Z @ 7591 NONAME
 ?GetRibbonStatusBarTextColor@CMFCVisualManagerOffice2007@@UEAAKPEAVCMFCRibbonStatusBar@@@Z @ 7592 NONAME
 ?GetRichEditCtrl@CRichEditView@@QEBAAEAVCRichEditCtrl@@XZ @ 7593 NONAME
 ?GetRoot@CFileFind@@UEBA?AV?$CStringT@_WV?$StrTraitMFC_DLL@_WV?$ChTraitsCRT@_W@ATL@@@@@ATL@@XZ @ 7594 NONAME
 ?GetRoot@CGopherFileFind@@UEBA?AV?$CStringT@_WV?$StrTraitMFC_DLL@_WV?$ChTraitsCRT@_W@ATL@@@@@ATL@@XZ @ 7595 NONAME
 ?GetRootContainerRect@CPaneDivider@@QEAA?AVCRect@@XZ @ 7596 NONAME
 ?GetRootItem@CTreeCtrl@@QEBAPEAU_TREEITEM@@XZ @ 7597 NONAME
 ?GetRootItems@CMFCShellTreeCtrl@@IEAAHXZ @ 7598 NONAME
 ?GetROP2@CDC@@QEBAHXZ @ 7599 NONAME
 ?GetRoutingFrame@CCmdTarget@@IEAAPEAVCFrameWnd@@XZ @ 7600 NONAME
 ?GetRoutingFrame_@CCmdTarget@@KAPEAVCFrameWnd@@XZ @ 7601 NONAME
 ?GetRoutingView@CCmdTarget@@IEAAPEAVCView@@XZ @ 7602 NONAME
 ?GetRoutingView_@CCmdTarget@@KAPEAVCView@@XZ @ 7603 NONAME
 ?GetRowCount@CReBarCtrl@@QEBAIXZ @ 7604 NONAME
 ?GetRowCount@CSplitterWnd@@QEBAHXZ @ 7605 NONAME
 ?GetRowCount@CTabCtrl@@QEBAHXZ @ 7606 NONAME
 ?GetRowHeight@CMFCMenuBar@@UEBAHXZ @ 7607 NONAME
 ?GetRowHeight@CMFCToolBar@@UEBAHXZ @ 7608 NONAME
 ?GetRowHeight@CReBarCtrl@@QEBAII@Z @ 7609 NONAME
 ?GetRowInfo@CSplitterWnd@@QEBAXHAEAH0@Z @ 7610 NONAME
 ?GetRows@CToolBarCtrl@@QEBAHXZ @ 7611 NONAME
 ?GetRowsetSize@CRecordset@@QEBAKXZ @ 7612 NONAME
 ?GetRowsFetched@CRecordset@@QEBA_KXZ @ 7613 NONAME
 ?GetRowStatus@CRecordset@@QEBAGG@Z @ 7614 NONAME
 ?GetRuntimeClass@CAnimateCtrl@@UEBAPEAUCRuntimeClass@@XZ @ 7615 NONAME
 ?GetRuntimeClass@CAnimationBaseObject@@UEBAPEAUCRuntimeClass@@XZ @ 7616 NONAME
 ?GetRuntimeClass@CAnimationColor@@UEBAPEAUCRuntimeClass@@XZ @ 7617 NONAME
 ?GetRuntimeClass@CAnimationController@@UEBAPEAUCRuntimeClass@@XZ @ 7618 NONAME
 ?GetRuntimeClass@CAnimationPoint@@UEBAPEAUCRuntimeClass@@XZ @ 7619 NONAME
 ?GetRuntimeClass@CAnimationRect@@UEBAPEAUCRuntimeClass@@XZ @ 7620 NONAME
 ?GetRuntimeClass@CAnimationSize@@UEBAPEAUCRuntimeClass@@XZ @ 7621 NONAME
 ?GetRuntimeClass@CAnimationValue@@UEBAPEAUCRuntimeClass@@XZ @ 7622 NONAME
 ?GetRuntimeClass@CArchiveException@@UEBAPEAUCRuntimeClass@@XZ @ 7623 NONAME
 ?GetRuntimeClass@CAsyncMonikerFile@@UEBAPEAUCRuntimeClass@@XZ @ 7624 NONAME
 ?GetRuntimeClass@CAsyncSocket@@UEBAPEAUCRuntimeClass@@XZ @ 7625 NONAME
 ?GetRuntimeClass@CAutoHideDockSite@@UEBAPEAUCRuntimeClass@@XZ @ 7626 NONAME
 ?GetRuntimeClass@CBaseKeyFrame@@UEBAPEAUCRuntimeClass@@XZ @ 7627 NONAME
 ?GetRuntimeClass@CBasePane@@UEBAPEAUCRuntimeClass@@XZ @ 7628 NONAME
 ?GetRuntimeClass@CBaseTabbedPane@@UEBAPEAUCRuntimeClass@@XZ @ 7629 NONAME
 ?GetRuntimeClass@CBaseTransition@@UEBAPEAUCRuntimeClass@@XZ @ 7630 NONAME
 ?GetRuntimeClass@CBitmap@@UEBAPEAUCRuntimeClass@@XZ @ 7631 NONAME
 ?GetRuntimeClass@CBitmapButton@@UEBAPEAUCRuntimeClass@@XZ @ 7632 NONAME
 ?GetRuntimeClass@CBitmapRenderTarget@@UEBAPEAUCRuntimeClass@@XZ @ 7633 NONAME
 ?GetRuntimeClass@CBrush@@UEBAPEAUCRuntimeClass@@XZ @ 7634 NONAME
 ?GetRuntimeClass@CButton@@UEBAPEAUCRuntimeClass@@XZ @ 7635 NONAME
 ?GetRuntimeClass@CByteArray@@UEBAPEAUCRuntimeClass@@XZ @ 7636 NONAME
 ?GetRuntimeClass@CCachedDataPathProperty@@UEBAPEAUCRuntimeClass@@XZ @ 7637 NONAME
 ?GetRuntimeClass@CCheckListBox@@UEBAPEAUCRuntimeClass@@XZ @ 7638 NONAME
 ?GetRuntimeClass@CClientDC@@UEBAPEAUCRuntimeClass@@XZ @ 7639 NONAME
 ?GetRuntimeClass@CCmdTarget@@UEBAPEAUCRuntimeClass@@XZ @ 7640 NONAME
 ?GetRuntimeClass@CColorDialog@@UEBAPEAUCRuntimeClass@@XZ @ 7641 NONAME
 ?GetRuntimeClass@CComboBox@@UEBAPEAUCRuntimeClass@@XZ @ 7642 NONAME
 ?GetRuntimeClass@CComboBoxEx@@UEBAPEAUCRuntimeClass@@XZ @ 7643 NONAME
 ?GetRuntimeClass@CCommonDialog@@UEBAPEAUCRuntimeClass@@XZ @ 7644 NONAME
 ?GetRuntimeClass@CControlBar@@UEBAPEAUCRuntimeClass@@XZ @ 7645 NONAME
 ?GetRuntimeClass@CCriticalSection@@UEBAPEAUCRuntimeClass@@XZ @ 7646 NONAME
 ?GetRuntimeClass@CCtrlView@@UEBAPEAUCRuntimeClass@@XZ @ 7647 NONAME
 ?GetRuntimeClass@CD2DBitmap@@UEBAPEAUCRuntimeClass@@XZ @ 7648 NONAME
 ?GetRuntimeClass@CD2DBitmapBrush@@UEBAPEAUCRuntimeClass@@XZ @ 7649 NONAME
 ?GetRuntimeClass@CD2DBrush@@UEBAPEAUCRuntimeClass@@XZ @ 7650 NONAME
 ?GetRuntimeClass@CD2DGeometry@@UEBAPEAUCRuntimeClass@@XZ @ 7651 NONAME
 ?GetRuntimeClass@CD2DGradientBrush@@UEBAPEAUCRuntimeClass@@XZ @ 7652 NONAME
 ?GetRuntimeClass@CD2DLayer@@UEBAPEAUCRuntimeClass@@XZ @ 7653 NONAME
 ?GetRuntimeClass@CD2DLinearGradientBrush@@UEBAPEAUCRuntimeClass@@XZ @ 7654 NONAME
 ?GetRuntimeClass@CD2DMesh@@UEBAPEAUCRuntimeClass@@XZ @ 7655 NONAME
 ?GetRuntimeClass@CD2DPathGeometry@@UEBAPEAUCRuntimeClass@@XZ @ 7656 NONAME
 ?GetRuntimeClass@CD2DRadialGradientBrush@@UEBAPEAUCRuntimeClass@@XZ @ 7657 NONAME
 ?GetRuntimeClass@CD2DResource@@UEBAPEAUCRuntimeClass@@XZ @ 7658 NONAME
 ?GetRuntimeClass@CD2DSolidColorBrush@@UEBAPEAUCRuntimeClass@@XZ @ 7659 NONAME
 ?GetRuntimeClass@CD2DTextFormat@@UEBAPEAUCRuntimeClass@@XZ @ 7660 NONAME
 ?GetRuntimeClass@CD2DTextLayout@@UEBAPEAUCRuntimeClass@@XZ @ 7661 NONAME
 ?GetRuntimeClass@CDatabase@@UEBAPEAUCRuntimeClass@@XZ @ 7662 NONAME
 ?GetRuntimeClass@CDataPathProperty@@UEBAPEAUCRuntimeClass@@XZ @ 7663 NONAME
 ?GetRuntimeClass@CDateTimeCtrl@@UEBAPEAUCRuntimeClass@@XZ @ 7664 NONAME
 ?GetRuntimeClass@CDBException@@UEBAPEAUCRuntimeClass@@XZ @ 7665 NONAME
 ?GetRuntimeClass@CDC@@UEBAPEAUCRuntimeClass@@XZ @ 7666 NONAME
 ?GetRuntimeClass@CDCRenderTarget@@UEBAPEAUCRuntimeClass@@XZ @ 7667 NONAME
 ?GetRuntimeClass@CDHtmlDialog@@UEBAPEAUCRuntimeClass@@XZ @ 7668 NONAME
 ?GetRuntimeClass@CDialog@@UEBAPEAUCRuntimeClass@@XZ @ 7669 NONAME
 ?GetRuntimeClass@CDialogBar@@UEBAPEAUCRuntimeClass@@XZ @ 7670 NONAME
 ?GetRuntimeClass@CDialogEx@@UEBAPEAUCRuntimeClass@@XZ @ 7671 NONAME
 ?GetRuntimeClass@CDocItem@@UEBAPEAUCRuntimeClass@@XZ @ 7672 NONAME
 ?GetRuntimeClass@CDockablePane@@UEBAPEAUCRuntimeClass@@XZ @ 7673 NONAME
 ?GetRuntimeClass@CDockablePaneAdapter@@UEBAPEAUCRuntimeClass@@XZ @ 7674 NONAME
 ?GetRuntimeClass@CDockBar@@UEBAPEAUCRuntimeClass@@XZ @ 7675 NONAME
 ?GetRuntimeClass@CDockingPanesRow@@UEBAPEAUCRuntimeClass@@XZ @ 7676 NONAME
 ?GetRuntimeClass@CDockSite@@UEBAPEAUCRuntimeClass@@XZ @ 7677 NONAME
 ?GetRuntimeClass@CDockState@@UEBAPEAUCRuntimeClass@@XZ @ 7678 NONAME
 ?GetRuntimeClass@CDocManager@@UEBAPEAUCRuntimeClass@@XZ @ 7679 NONAME
 ?GetRuntimeClass@CDocObjectServer@@UEBAPEAUCRuntimeClass@@XZ @ 7680 NONAME
 ?GetRuntimeClass@CDocObjectServerItem@@UEBAPEAUCRuntimeClass@@XZ @ 7681 NONAME
 ?GetRuntimeClass@CDocTemplate@@UEBAPEAUCRuntimeClass@@XZ @ 7682 NONAME
 ?GetRuntimeClass@CDocument@@UEBAPEAUCRuntimeClass@@XZ @ 7683 NONAME
 ?GetRuntimeClass@CDragListBox@@UEBAPEAUCRuntimeClass@@XZ @ 7684 NONAME
 ?GetRuntimeClass@CDWordArray@@UEBAPEAUCRuntimeClass@@XZ @ 7685 NONAME
 ?GetRuntimeClass@CDynLinkLibrary@@UEBAPEAUCRuntimeClass@@XZ @ 7686 NONAME
 ?GetRuntimeClass@CEdit@@UEBAPEAUCRuntimeClass@@XZ @ 7687 NONAME
 ?GetRuntimeClass@CEditView@@UEBAPEAUCRuntimeClass@@XZ @ 7688 NONAME
 ?GetRuntimeClass@CEvent@@UEBAPEAUCRuntimeClass@@XZ @ 7689 NONAME
 ?GetRuntimeClass@CException@@UEBAPEAUCRuntimeClass@@XZ @ 7690 NONAME
 ?GetRuntimeClass@CFile@@UEBAPEAUCRuntimeClass@@XZ @ 7691 NONAME
 ?GetRuntimeClass@CFileDialog@@UEBAPEAUCRuntimeClass@@XZ @ 7692 NONAME
 ?GetRuntimeClass@CFileException@@UEBAPEAUCRuntimeClass@@XZ @ 7693 NONAME
 ?GetRuntimeClass@CFileFind@@UEBAPEAUCRuntimeClass@@XZ @ 7694 NONAME
 ?GetRuntimeClass@CFindReplaceDialog@@UEBAPEAUCRuntimeClass@@XZ @ 7695 NONAME
 ?GetRuntimeClass@CFolderPickerDialog@@UEBAPEAUCRuntimeClass@@XZ @ 7696 NONAME
 ?GetRuntimeClass@CFont@@UEBAPEAUCRuntimeClass@@XZ @ 7697 NONAME
 ?GetRuntimeClass@CFontDialog@@UEBAPEAUCRuntimeClass@@XZ @ 7698 NONAME
 ?GetRuntimeClass@CFormView@@UEBAPEAUCRuntimeClass@@XZ @ 7699 NONAME
 ?GetRuntimeClass@CFrameWnd@@UEBAPEAUCRuntimeClass@@XZ @ 7700 NONAME
 ?GetRuntimeClass@CFrameWndEx@@UEBAPEAUCRuntimeClass@@XZ @ 7701 NONAME
 ?GetRuntimeClass@CFtpConnection@@UEBAPEAUCRuntimeClass@@XZ @ 7702 NONAME
 ?GetRuntimeClass@CFtpFileFind@@UEBAPEAUCRuntimeClass@@XZ @ 7703 NONAME
 ?GetRuntimeClass@CGdiObject@@UEBAPEAUCRuntimeClass@@XZ @ 7704 NONAME
 ?GetRuntimeClass@CGopherConnection@@UEBAPEAUCRuntimeClass@@XZ @ 7705 NONAME
 ?GetRuntimeClass@CGopherFile@@UEBAPEAUCRuntimeClass@@XZ @ 7706 NONAME
 ?GetRuntimeClass@CGopherFileFind@@UEBAPEAUCRuntimeClass@@XZ @ 7707 NONAME
 ?GetRuntimeClass@CHeaderCtrl@@UEBAPEAUCRuntimeClass@@XZ @ 7708 NONAME
 ?GetRuntimeClass@CHelpComboBoxButton@@UEBAPEAUCRuntimeClass@@XZ @ 7709 NONAME
 ?GetRuntimeClass@CHotKeyCtrl@@UEBAPEAUCRuntimeClass@@XZ @ 7710 NONAME
 ?GetRuntimeClass@CHtmlEditDoc@@UEBAPEAUCRuntimeClass@@XZ @ 7711 NONAME
 ?GetRuntimeClass@CHtmlEditView@@UEBAPEAUCRuntimeClass@@XZ @ 7712 NONAME
 ?GetRuntimeClass@CHtmlView@@UEBAPEAUCRuntimeClass@@XZ @ 7713 NONAME
 ?GetRuntimeClass@CHttpConnection@@UEBAPEAUCRuntimeClass@@XZ @ 7714 NONAME
 ?GetRuntimeClass@CHttpFile@@UEBAPEAUCRuntimeClass@@XZ @ 7715 NONAME
 ?GetRuntimeClass@CHwndRenderTarget@@UEBAPEAUCRuntimeClass@@XZ @ 7716 NONAME
 ?GetRuntimeClass@CImageList@@UEBAPEAUCRuntimeClass@@XZ @ 7717 NONAME
 ?GetRuntimeClass@CInternetConnection@@UEBAPEAUCRuntimeClass@@XZ @ 7718 NONAME
 ?GetRuntimeClass@CInternetException@@UEBAPEAUCRuntimeClass@@XZ @ 7719 NONAME
 ?GetRuntimeClass@CInternetFile@@UEBAPEAUCRuntimeClass@@XZ @ 7720 NONAME
 ?GetRuntimeClass@CInternetSession@@UEBAPEAUCRuntimeClass@@XZ @ 7721 NONAME
 ?GetRuntimeClass@CInvalidArgException@@UEBAPEAUCRuntimeClass@@XZ @ 7722 NONAME
 ?GetRuntimeClass@CIPAddressCtrl@@UEBAPEAUCRuntimeClass@@XZ @ 7723 NONAME
 ?GetRuntimeClass@CKeyFrame@@UEBAPEAUCRuntimeClass@@XZ @ 7724 NONAME
 ?GetRuntimeClass@CLinkCtrl@@UEBAPEAUCRuntimeClass@@XZ @ 7725 NONAME
 ?GetRuntimeClass@CListBox@@UEBAPEAUCRuntimeClass@@XZ @ 7726 NONAME
 ?GetRuntimeClass@CListCtrl@@UEBAPEAUCRuntimeClass@@XZ @ 7727 NONAME
 ?GetRuntimeClass@CListView@@UEBAPEAUCRuntimeClass@@XZ @ 7728 NONAME
 ?GetRuntimeClass@CLongBinary@@UEBAPEAUCRuntimeClass@@XZ @ 7729 NONAME
 ?GetRuntimeClass@CMapPtrToPtr@@UEBAPEAUCRuntimeClass@@XZ @ 7730 NONAME
 ?GetRuntimeClass@CMapPtrToWord@@UEBAPEAUCRuntimeClass@@XZ @ 7731 NONAME
 ?GetRuntimeClass@CMapStringToOb@@UEBAPEAUCRuntimeClass@@XZ @ 7732 NONAME
 ?GetRuntimeClass@CMapStringToPtr@@UEBAPEAUCRuntimeClass@@XZ @ 7733 NONAME
 ?GetRuntimeClass@CMapStringToString@@UEBAPEAUCRuntimeClass@@XZ @ 7734 NONAME
 ?GetRuntimeClass@CMapWordToOb@@UEBAPEAUCRuntimeClass@@XZ @ 7735 NONAME
 ?GetRuntimeClass@CMapWordToPtr@@UEBAPEAUCRuntimeClass@@XZ @ 7736 NONAME
 ?GetRuntimeClass@CMDIChildWnd@@UEBAPEAUCRuntimeClass@@XZ @ 7737 NONAME
 ?GetRuntimeClass@CMDIChildWndEx@@UEBAPEAUCRuntimeClass@@XZ @ 7738 NONAME
 ?GetRuntimeClass@CMDIClientAreaWnd@@UEBAPEAUCRuntimeClass@@XZ @ 7739 NONAME
 ?GetRuntimeClass@CMDIFrameWnd@@UEBAPEAUCRuntimeClass@@XZ @ 7740 NONAME
 ?GetRuntimeClass@CMDIFrameWndEx@@UEBAPEAUCRuntimeClass@@XZ @ 7741 NONAME
 ?GetRuntimeClass@CMDITabProxyWnd@@UEBAPEAUCRuntimeClass@@XZ @ 7742 NONAME
 ?GetRuntimeClass@CMemFile@@UEBAPEAUCRuntimeClass@@XZ @ 7743 NONAME
 ?GetRuntimeClass@CMemoryException@@UEBAPEAUCRuntimeClass@@XZ @ 7744 NONAME
 ?GetRuntimeClass@CMenu@@UEBAPEAUCRuntimeClass@@XZ @ 7745 NONAME
 ?GetRuntimeClass@CMetaFileDC@@UEBAPEAUCRuntimeClass@@XZ @ 7746 NONAME
 ?GetRuntimeClass@CMFCAutoHideBar@@UEBAPEAUCRuntimeClass@@XZ @ 7747 NONAME
 ?GetRuntimeClass@CMFCAutoHideButton@@UEBAPEAUCRuntimeClass@@XZ @ 7748 NONAME
 ?GetRuntimeClass@CMFCBaseAccessibleObject@@UEBAPEAUCRuntimeClass@@XZ @ 7749 NONAME
 ?GetRuntimeClass@CMFCBaseTabCtrl@@UEBAPEAUCRuntimeClass@@XZ @ 7750 NONAME
 ?GetRuntimeClass@CMFCBaseToolBar@@UEBAPEAUCRuntimeClass@@XZ @ 7751 NONAME
 ?GetRuntimeClass@CMFCButton@@UEBAPEAUCRuntimeClass@@XZ @ 7752 NONAME
 ?GetRuntimeClass@CMFCCaptionBar@@UEBAPEAUCRuntimeClass@@XZ @ 7753 NONAME
 ?GetRuntimeClass@CMFCColorBar@@UEBAPEAUCRuntimeClass@@XZ @ 7754 NONAME
 ?GetRuntimeClass@CMFCColorButton@@UEBAPEAUCRuntimeClass@@XZ @ 7755 NONAME
 ?GetRuntimeClass@CMFCColorMenuButton@@UEBAPEAUCRuntimeClass@@XZ @ 7756 NONAME
 ?GetRuntimeClass@CMFCColorPopupMenu@@UEBAPEAUCRuntimeClass@@XZ @ 7757 NONAME
 ?GetRuntimeClass@CMFCColorPropertySheet@@UEBAPEAUCRuntimeClass@@XZ @ 7758 NONAME
 ?GetRuntimeClass@CMFCControlRenderer@@UEBAPEAUCRuntimeClass@@XZ @ 7759 NONAME
 ?GetRuntimeClass@CMFCCustomColorsPropertyPage@@UEBAPEAUCRuntimeClass@@XZ @ 7760 NONAME
 ?GetRuntimeClass@CMFCCustomizeButton@@UEBAPEAUCRuntimeClass@@XZ @ 7761 NONAME
 ?GetRuntimeClass@CMFCCustomizeMenuButton@@UEBAPEAUCRuntimeClass@@XZ @ 7762 NONAME
 ?GetRuntimeClass@CMFCDesktopAlertDialog@@UEBAPEAUCRuntimeClass@@XZ @ 7763 NONAME
 ?GetRuntimeClass@CMFCDesktopAlertWnd@@UEBAPEAUCRuntimeClass@@XZ @ 7764 NONAME
